zc:_glClearStencil
s3d:_Array_InternalArray__ICollection_Add_TisMark_t2724874473_m1613484179_gshared
ccg:__ZL80Graphic_t2426225576_CustomAttributesCacheGenerator_Graphic_OnFillVBO_m1723985607P21CustomAttributesCache
nog:_RuntimeTypeHandle_GetObjectData_m3567098501
aqj:__ZN6il2cpp2vm5Array13GetByteLengthEP11Il2CppArray
$4g:_Raycast3DCallback_BeginInvoke_m3028685017
vF:__Z102Register_UnityEngine_Experimental_Director_AnimatorControllerPlayable_INTERNAL_CALL_ResetTriggerStringv
GIe:_Comparison_1_Invoke_m353639462_gshared
MAg:_UInt64_System_IConvertible_ToDecimal_m4205696037
aRd:_GraphicRegistry_RegisterGraphicForCanvas_m2284226562
QBa:__Z21SourceMipLevelForBlitiiii
wlb:__ZN31CanvasBatchIntermediateRenderer15AddAsRenderNodeER15RenderNodeQueueRK20DeprecatedSourceData
Fpd:_Enumerator_get_Key_m2908810861
rD:__ZN23AnimationOffsetPlayable11SetRotationE11Quaternionf
qB:__ZN11UnityEngine9Animation28GenericAnimationBindingCacheD2Ev
kmh:_EqualityComparer_1__cctor_m968537130_gshared
Wee:_List_1_System_Collections_IList_IndexOf_m39706221_gshared
isd:_Decimal_op_Implicit_m2971610317
fAi:_TextGenerator_get_lineCount_m4287181941
MRd:_Graphic_UnregisterDirtyVerticesCallback_m1526739224
X3a:__Z18RestoreRenderStateR20CameraRenderOldStateR17ShaderPassContext
kld:_SynchronizedArrayListWrapper_get_Item_m3309425850
aOb:__Z18Transfer_BlittableI18StreamedBinaryReadILb1EELb1E5RectTIfEEvRK29SerializationCommandArgumentsR31RuntimeSerializationCommandInfo
MKb:__Z18Transfer_BlittableI24GenerateTypeTreeTransferLb0E11ColorRGBA32EvRK29SerializationCommandArgumentsR31RuntimeSerializationCommandInfo
w3:__Z25scripting_class_from_name17ScriptingImagePtrPKcS1_
lcj:__ZN14dense_hash_mapI10KeyWrapperINSt3__24pairIPK12PropertyInfoP11Il2CppClassEEEj17ReflectionMapHashIS8_ENS9_14EqualsComparerINS1_8equal_toIS8_EEEENS1_9allocatorINS2_IKS9_jEEEEE15set_deleted_keyERSH_
BEb:__Z29scripting_class_enum_basetype17ScriptingClassPtr
NMj:_emscripten_glDeleteBuffers__wrapper
mJg:_GenericTypeParameterBuilder_GetHashCode_m867619899
Rwg:_TimeSpan_ToString_m2947282901
Dlh:_EqualityComparer_1__cctor_m3397254040_gshared
OW:__ZNK20LocalFileSystemPosix6ParentERK13FileEntryDataRN4core12basic_stringIcNS3_20StringStorageDefaultIcEEEE
$zi:_TextGenerator_get_verts_m3124035267
oCi:_Vector2_get_one_m3174311904
x8d:_Array_Sort_TisVector2_t2243707579_m1307634946_gshared
rra:__ZN17PersistentManager22CheckInstanceIDsLoadedEPii
Iza:__ZN7ApiGLES17CopyBufferSubDataEjjlll
Qfi:_AnimatorControllerPlayable_IsInTransition_m4064534331
AUi:__ZN15dense_hashtableINSt3__24pairIK10KeyWrapperIPKcEP11Il2CppClassEES5_N6il2cpp5utils11StringUtils12StringHasherIS4_EEN14dense_hash_mapIS5_S8_SE_NS5_14EqualsComparerINSC_21CaseSensitiveComparerEEENS0_9allocatorIS9_EEE9SelectKeyESI_SK_E13set_empty_keyERKS9_
REi:_U3CCreateWhereIteratorU3Ec__Iterator1D_1_Reset_m1773515612_gshared
xXa:__ZN25CameraStackRenderingState20GetOrCreateBuiltinRTE24BuiltinRenderTextureTypeii17DepthBufferFormat19RenderTextureFormatj22RenderTextureReadWrite14VRTextureUsagei
wEi:_AesManaged_CreateEncryptor_m1729287824
_$a:__ZN17PrePassRenderLoop14RenderBasePassEP13RenderTextureRK14LightingLayersR13dynamic_arrayI16RenderObjectDataLj4EERbR10MinMaxAABB
oid:_Char_System_IConvertible_ToInt16_m2741348777_AdjustorThunk
Glc:__ZN5IMGUI18RepaintModalWindowER8GUIState
Lgb:__ZN21ArchiveStorageCreator10InitializeERKN4core12basic_stringIcNS0_20StringStorageDefaultIcEEEEb
uBe:_ReadOnlyCollection_1_System_Collections_Generic_IListU3CTU3E_set_Item_m1547026160_gshared
oDf:__ZL61MarshalAsAttribute_t2900773360_CustomAttributesCacheGeneratorP21CustomAttributesCache
Ftb:__Z23SetSpriteMeshIndexCountP14SharedMeshDataj
hca:__ZN7Texture13SetFilterModeEi
cbc:__Z46Register_UnityEngine_Application_get_isPlayingv
Prj:__ZN6il2cpp8metadata13GenericMethod9GetMethodEPK19Il2CppGenericMethod
tq:__ZNSt3__26vectorIN4core12basic_stringIcNS1_20StringStorageDefaultIcEEEENS_9allocatorIS5_EEE7reserveEj
Dud:_Convert_ToUInt16_m2130758075
t8i:__ZN15dense_hashtableINSt3__24pairIK10KeyWrapperINS1_IPK11Il2CppImageP11Il2CppClassEEEjEES9_17ReflectionMapHashIS8_EN14dense_hash_mapIS9_jSD_NS9_14EqualsComparerINS0_8equal_toIS8_EEEENS0_9allocatorISB_EEE9SelectKeyESI_SK_E3endEv
Itf:_X509BasicConstraintsExtension_Encode_m3505127076
sua:__ZN13GfxDeviceGLES11SetViewportERK5RectTIiE
zTd:_Image_get_pixelsPerUnit_m4104195799
wbh:_Toggle_InternalToggle_m2323729210
uyd:_Decimal_System_IConvertible_ToInt64_m2504363272
bic:__Z24Time_Get_Custom_PropTimev
wdd:_Array_GetValue_m3182152438
Rd:_emscripten_glDepthRange
nqg:_DESTransform_CipherFunct_m3559419566
zBg:_UIntPtr_get_Size_m537421489
f0c:_Rijndael_Create_m113171669
fSg:_GUILayoutGroup_CalcWidth_m4107152934
kTb:__Z14resize_trimmedINSt3__26vectorIN9ShaderLab20SerializedSubProgram12UAVParameterENS0_9allocatorIS4_EEEEEvRT_j
pjg:_SerializationInfo_AddValue_m1781549036
whf:_TlsServerKeyExchange_verifySignature_m3641534563
K9g:_Slider_FindSelectableOnLeft_m3136767885
oBa:__ZN4crndL20crnd_default_reallocEPvjPjbS0_
r0d:_Array_BinarySearch_TisInt32_t2071877448_m51233948_gshared
p7b:__ZN7Texture11SetWrapModeEi
MEj:__ZNSt3__212basic_stringIcNS_11char_traitsIcEENS_9allocatorIcEEEC2ERKS5_
Ljg:_ProviderData_CopyFrom_m431414335
Dsg:_UTF32Encoding_GetPreamble_m767706727
Ohc:__Z33Texture_CUSTOM_Internal_GetHeightP12Il2CppObject
PXd:_LayoutGroup_get_preferredHeight_m3901163825
YVa:__ZN23ScriptableRenderContextC2Ev
Urd:_DateTime_AbsoluteDays_m3061694073
sdi:_AnimationClipPlayable_set_speed_m3332297554
XLc:_UNITY_FT_Stream_GetChar
wOb:__Z18Transfer_BlittableI18StreamedBinaryReadILb1EELb1EdEvRK29SerializationCommandArgumentsR31RuntimeSerializationCommandInfo
Ubh:_Enumerator_System_Collections_IEnumerator_get_Current_m229223308_gshared
NEb:__Z26BuildSerializationCacheFor17ScriptingClassPtrRb
fgi:_AnimatorControllerPlayable_CrossFadeInFixedTimeInternal_m3729673154
Lbi:_Event_Init_m3901382626
yfb:__ZN10FileSystem12MountHandlerEP17FileSystemHandler
Vkd:_FixedSizeArrayListWrapper_AddRange_m2071800418
IB:__ZN13ProduceHelperI8AnimatorLb0EE7ProduceE18MemLabelIdentifier18ObjectCreationMode
jaa:__Z9InitInputv
Jde:_Enumerator_VerifyState_m2358705882_AdjustorThunk
UEc:_UNITY_tt_face_build_cmaps
_5g:_Selectable_Navigate_m915280351
yab:__ZN16MemoryFileSystem6DeleteER13FileEntryDatab
GCi:_Vector3_get_normalized_m936072361
gpa:__ZL21BlitScaleStbImageImplRK14ImageReferenceRS_NS_10ColorSpaceE
bof:_TlsStream_set_Position_m378064217
tHb:__Z29Transfer_Blittable_ArrayFieldI14SafeBinaryReadyEvRT_R9ArrayInfoRK23StaticTransferFieldInfo
gM:__ZN20SoundChannelInstance15setChannelGroupEPN4FMOD12ChannelGroupE
t5c:_Evidence_Equals_m2325859915
wEg:_Default__ctor_m172834064
nc:invoke_vifffii
NBb:__ZN20ArchiveStorageReader17MakeStorageUnusedEv
fri:_Regex_IsMatch_m2159202025
DKa:__ZNK25MultiBlocksMemoryFileData5CloneEv
Awj:_GC_add_ext_descriptor
Fkg:_RemotingServices_GetMethodBaseFromName_m3271095947
UOh:__Z71RuntimeInvoker_TimeSpan_t3430258949_Double_t4078015681_Int64_t909078037PK10MethodInfoPvPS2_
PGj:dynCall_iiiiiiiiiiii
Rad:_ASCIIEncoding_GetBytes_m3617160053
Agf:_CipherSuiteCollection_System_Collections_IList_RemoveAt_m143866082
HC:__ZN26AnimatorControllerPlayable26ParameterControlledByCurveEi
wXb:__ZL26KeywordSetToStringDontSortRKNSt3__26vectorIN4core12basic_stringIcNS1_20StringStorageDefaultIcEEEENS_9allocatorIS5_EEEERS5_
VTc:__Z54Register_UnityEngine_Analytics_CustomEventData_AddCharv
rka:__ZN6prcoreL17RemapGenericFloatI16TexFormatRGFloat17TexFormatRGBAHalfEEvPKNS_9InnerInfoE
JG:__ZN12AudioManager22CreateFMODSoundFromWWWEP10IWWWStream15FMOD_SOUND_TYPE17FMOD_SOUND_FORMATjjbbP10SampleClip
G1b:__ZNK32RendererMaterialAnimationBinding15GenerateBindingERKN4core12basic_stringIcNS0_20StringStorageDefaultIcEEEEbRN11UnityEngine9Animation14GenericBindingE
M2:__ZN8Remapper23GetOrGenerateInstanceIDERK26SerializedObjectIdentifier
LWe:_StreamWriter_Flush_m3426120024
Wa:invoke_iiiiiifffiiifii
pUe:_MemoryStream__ctor_m1489366847
O5c:_SecurityElement_IsValidTag_m64902195
Xbh:_Enumerator_System_Collections_IEnumerator_get_Current_m229223308_AdjustorThunk
mPg:_PropertyInfo_SetValue_m2961483868
uRg:_GUILayoutEntry_set_style_m70917293
Bke:_List_1_System_Collections_IList_Contains_m4193366963_gshared
YIi:_UnityEvent_3_FindMethod_Impl_m1889846153_gshared
UEg:_ConstructorInfo_Invoke_m2144827141
Stb:__ZN6Sprite8TransferI24GenerateTypeTreeTransferEEvRT_
Sic:__Z48Register_UnityEngine_Transform_SetAsFirstSiblingv
Utb:__ZN7SubMesh8TransferI24GenerateTypeTreeTransferEEvRT_
Kaj:__ZN14dense_hash_mapI10KeyWrapperIPK14Il2CppAssemblyEPK16MonoAssemblyNameN6il2cpp5utils11PointerHashIS2_EENS4_14EqualsComparerINSt3__28equal_toIS3_EEEENSD_9allocatorINSD_4pairIKS4_S7_EEEEE13set_empty_keyERSJ_
qOg:_MonoProperty_get_CanWrite_m2124922514
ZZh:__Z112RuntimeInvoker_Int32_t2071877448_Il2CppObject_Int32_t2071877448_Int32_t2071877448_Int32_t2071877448_Il2CppObjectPK10MethodInfoPvPS2_
PDj:_poll
bUe:_Stream_BeginRead_m1985960185
jUg:_GUIStyle_GetFontInternalDuringLoadingThread_m229734483
P$b:__ZN13ProduceHelperI14Texture2DArrayLb0EE7ProduceE18MemLabelIdentifier18ObjectCreationMode
Qdf:_MD4Managed_GG_m1462438360
ofc:__Z46Mesh_CUSTOM_PrintErrorCantAccessMeshForIndicesP12Il2CppObject
Bac:__ZN9Transform23SetSiblingIndexInternalEib
RRe:_BinaryReader_CheckBuffer_m1059275266
Fua:__ZN13GfxDeviceGLES17DestroySubProgramEPN9ShaderLab10SubProgramE
ux:__ZN7mecanim5human12HumanPoseSubERNS0_9HumanPoseERKS1_S4_
Cdf:_MD4_Create_m2582504069
Zjj:__ZN6il2cpp8metadata15GenericMetadata15GetGenericClassEiPK17Il2CppGenericInst
$fd:_Boolean_System_IConvertible_ToInt16_m977801621
mGb:__Z18Transfer_BlittableI14SafeBinaryReadLb0E10Matrix4x4fEvRK29SerializationCommandArgumentsR31RuntimeSerializationCommandInfo
mOa:__Z24GetFixedBehaviourManagerv
vUa:__ZN12FlareManager9UpdateJobEP25FlareManagerUpdateJobData
M$i:__ZN6il2cpp2vm10ThreadPool4WaitEP17Il2CppAsyncResultPPv
_Bj:_vfprintf
d5h:_Debug_get_logger_m4173808038
iVa:__ZN20DynamicPropertySheetD0Ev
m8a:__ZN14SafeBinaryRead17RegisterConverterEPKcS1_PFbPvRS_E
iZ:__ZN35RegisterRuntimeInitializeAndCleanup8RegisterEPFvPvES2_iS0_
Rdj:__ZNSt3__26vectorIN6il2cpp8metadata18GenericArrayMethodENS_9allocatorIS3_EEE7reserveEj
bHe:_ReadOnlyCollection_1_System_Collections_IList_Clear_m2600246370_gshared
Z4e:_DSAManaged_NormalizeArray_m2287089393
iyh:_InternalEnumerator_1_System_Collections_IEnumerator_get_Current_m2389982234_AdjustorThunk
qOa:__ZN8Material26ResetAllCachedMaterialDataEP6Shader
gMc:_UNITY_TT_Get_MM_Var
cKi:__ZN6il2cpp6icalls8mscorlib6System7Decimal13decimal2Int64EP19il2cpp_decimal_reprPx
aa:invoke_diddi
HHd:_ExecuteEvents__cctor_m288775360
yNc:__ZNK2UI6Canvas13GetRenderModeEv
Zsd:_Double_TryParseStringConstant_m2585405703
MFb:__Z18Transfer_BlittableI14SafeBinaryReadLb0EiEvRK29SerializationCommandArgumentsR31RuntimeSerializationCommandInfo
XYi:__ZN6il2cpp2vm13MetadataCache30GetPropertyDefinitionFromIndexEi
Hhi:_ResourceEnumerator__ctor_m1679839941
q0c:_RijndaelTransform_Clear_m1652144089
K9d:_BaseInvokableCall_ThrowOnInvalidArg_TisIl2CppObject_m1349548392_gshared
TWc:__ZN22BaseUnityConnectClient17InitializeSessionERKN4core12basic_stringIcNS0_20StringStorageDefaultIcEEEES6_N19CloudServiceHandler13InitModeFlagsE
t$e:_NumberFormatter_get_IsZero_m1325357749
iCd:_Enum_ToObject_m322320225
agc:__ZN13MonoBehaviour34StopCoroutineFromEnumeratorManagedE18ScriptingObjectPtr
$3c:_X509Certificate__ctor_m3860837120
tF:__Z100Register_UnityEngine_Experimental_Director_AnimatorControllerPlayable_INTERNAL_CALL_SetTriggerStringv
LPg:_GameObject_Internal_CreateGameObject_m3428198595
d8h:_Camera_RaycastTry2D_m755036866
YGe:_ReadOnlyCollection_1_System_Collections_Generic_IListU3CTU3E_set_Item_m3663361643_gshared
WB:__ZN7mecanim9animation14AvatarConstant15InitializeClassEv
Mwc:__ZN11UnityEngine9Analytics18SceneLoadTimeEvent12SetSceneLoadERKN4core12basic_stringIcNS2_20StringStorageDefaultIcEEEEiyyyy
qfi:_AnimatorControllerPlayable_GetCurrentAnimatorStateInfo_m689786022
oBb:__ZN30RuntimeInitializeOnLoadManager8TransferI18StreamedBinaryReadILb0EEEEvRT_
wHg:_TypeBuilder_not_supported_m3178173643
lEc:_UNITY_tt_face_load_pclt
oCb:__ZN21ArchiveStorageCreator14StoreDirectoryEv
s9b:__ZL34GetComponentsImplementationRecurseILb1ELi0ELi2EEbR10GameObjectbRK17CompareParametersRK39GetComponentsImplementation_ReturnValue
kzj:__ZN6il2cpp6icalls8mscorlib6System9Threading5Mutex20CreateMutex_internalEbP12Il2CppStringPb
Awc:__ZNK27PerformanceReportingManager26GetTypeInfoVirtualInternalEv
Ckd:_ArrayListWrapper_Remove_m1105489978
wUa:__ZNK6Camera18WorldToScreenPointERK8Vector3fPb
CSc:__ZN14UnityAnalyticsD0Ev
ygd:_Boolean_CompareTo_m3691698947_AdjustorThunk
uod:_HashKeys_CopyTo_m3566668422
wid:_Convert_ToSByte_m2665932200
$1:__ZNSt3__227__insertion_sort_incompleteIRPFbRKN18AwakeFromLoadQueue4ItemES4_EPS2_EEbT0_S9_T_
Xvi:_PKCS12_Encrypt_m2154408631
rGg:_ILGenerator_label_fixup_m1325994348
d4g:_Navigation_Equals_m4214630671_AdjustorThunk
iEe:_ReadOnlyCollection_1_System_Collections_Generic_IListU3CTU3E_set_Item_m257196015_gshared
ELg:_FieldInfo_GetPseudoCustomAttributes_m2500972355
arb:__ZN26EnlightenSystemInformation8TransferI14SafeBinaryReadEEvRT_
wae:_Array_InternalArray__get_Item_TisLink_t2723257478_m2281261655_gshared
Zwb:__ZN12MeshRendererD0Ev
vnd:_Hashtable__ctor_m2702360557
Ah:_utime
ocf:_PrimalityTest_Invoke_m4058801829
tkg:_RemotingConfiguration_SetCustomErrorsMode_m1844153208
sn:FUNCTION_TABLE_viiiiii
j_h:__Z84RuntimeInvoker_Int32_t2071877448_Il2CppObject_CustomAttributeNamedArgument_t94157543PK10MethodInfoPvPS2_
GEd:_CultureInfo_GetFormat_m3560116485
HA:__ZN7mecanim9animation22DestroyAvatarWorkspaceEPNS0_15AvatarWorkspaceERNS_6memory9AllocatorE
s2g:_ScriptableObject_CreateInstance_m3271154163
exf:_FactoryCache__ctor_m254400436
Hri:_AnchorInfo_get_IsPosition_m3791659233
a2d:_Array_InternalArray__IndexOf_TisResourceCacheItem_t333236149_m761772858_gshared
Blc:__ZNSt3__210__list_impIN10GUIManager12SortedScriptE11memory_poolIS2_EE5clearEv
tob:__ZN14PlayableOutput17SetSourcePlayableEP8Playable
Pkg:_TrackingServices__cctor_m3639412334
hoc:__Z32GUIStyle_Set_Custom_PropRichTextP12Il2CppObjecth
wu:__ZN7mecanim9animation29MotionOutputGetDeltaTransformEPKNS0_12MotionOutputE
KZb:__Z13RegisterClassI16GraphicsSettingsEvv
Lwc:__ZN27PerformanceReportingManager21OnSceneTimingCallbackERK15SceneLoadTimingRKN4core12basic_stringIcNS3_20StringStorageDefaultIcEEEE
rC:__ZN8Animator14OnAddComponentEPN5Unity9ComponentE
Gqe:_List_1_CheckMatch_m1184924052_gshared
pic:__Z43Transform_CUSTOM_INTERNAL_get_localRotationP12Il2CppObjectP11Quaternionf
C2b:__ZZL23RegisterLightPropertiesR22GenericPropertyBindingEN20Wrapper_LightColorr013SetFloatValueEPvf
ci:_emscripten_glGetTexParameteriv
VPe:_Int32_ToString_m1064459878_AdjustorThunk
dki:_ChannelData_CopyFrom_m4049054607
SZb:__Z13RegisterClassI4MeshEvv
g1d:_Array_FindLastIndex_TisIl2CppObject_m869210470_gshared
Znb:__ZN8PlayableD0Ev
_H:__ZN12AudioManager8TransferI19StreamedBinaryWriteILb0EEEEvRT_
IUe:_WriteDelegate_Invoke_m2103848735
lPb:__ZN18StreamedBinaryReadILb1EE21TransferSTLStyleArrayI13dynamic_arrayI11ColorRGBA32Lj4EEEEvRT_17TransferMetaFlags
QDi:_Locale_GetText_m512920887
_Pb:__Z18Transfer_BlittableI18StreamedBinaryReadILb0EELb0E8Vector2fEvRK29SerializationCommandArgumentsR31RuntimeSerializationCommandInfo
bkg:_RemotingConfiguration_get_ProcessId_m3870172209
KMe:_SortKey_ToString_m2406913228
eX:__ZN22LocalFileSystemHandler9MakeLocalER13FileEntryDatab
Usj:__ZN6il2cpp2vm8Profiler10AllocationEP12Il2CppObjectP11Il2CppClass
dsd:_Convert_ToDateTime_m1020507389
dBc:__ZNSt3__23mapIN20TextRenderingPrivate7FontRefENS1_6OSFontENS_4lessIS2_EENS_9allocatorINS_4pairIKS2_S3_EEEEEixERS8_
DSe:_Path_IsPathRooted_m1347207448
$lg:_ObjectManager_RegisterObjectInternal_m879109503
MYd:_Array_get_swapper_TisVector4_t2243707581_m97441823_gshared
tra:__ZNSt3__26__sortIRNS_4lessIiEEPiEEvT0_S5_T_
myc:__ZN14SafeBinaryRead21TransferSTLStyleArrayI10vector_mapINSt3__24pairIttEEfN20TextRenderingPrivate8FontImpl14KerningCompareENS2_9allocatorINS3_IS4_fEEEEEEEvRT_17TransferMetaFlags
m_b:__Z13RegisterClassI15QualitySettingsEvv
esj:__ZN6il2cpp2vm6String21InitializeEmptyStringEP11Il2CppClass
P$a:__ZN25DeferredRenderLoopScratchD0Ev
Ay:__ZN27AnimationLayerMixerPlayable14SetInputWeightEif
qx:__ZN7mecanim9animation17EvaluateHumanPoseERKNS0_18ClipMuscleConstantERKNS0_15ClipMuscleInputEPKfRKNS0_12MotionOutputERNS_5human9HumanPoseE
ZSb:__ZN15dense_hashtableINSt3__24pairIKiN4core17string_with_labelILi1EEEEEi18SInt32HashFunctionN14dense_hash_mapIiS5_S7_NS0_8equal_toIiEE13stl_allocatorIS6_L18MemLabelIdentifier1ELi16EEE9SelectKeyESA_SD_E9copy_fromERKSG_j
vea:__ZN6Camera11ResetAspectEv
Ktf:_X509BasicConstraintsExtension_get_HasPathLengthConstraint_m3788532759
tlb:__ZNK17InstancedPropInfo22FillInstancePropertiesER19ShaderPropertySheetjPK17BatchInstanceDatajRK15RenderNodeQueue
Ufa:__ZN22CreateGpuProgramOutputD2Ev
aij:__ZN6il2cpp6icalls8mscorlib6System2IO6MonoIO9SetLengthE12Il2CppIntPtrxPi
cAj:__ZN6il2cpp8metadata22Il2CppSignatureCompare6EqualsERK13dynamic_arrayIPK10Il2CppTypeLj4EES8_
oO:__ZN13ProduceHelperI13AudioListenerLb0EE7ProduceE18MemLabelIdentifier18ObjectCreationMode
tJe:_DateTimeFormatInfo_GetInstance_m3133223810
Ibf:_ModulusRing_BarrettReduction_m2802101099
eLa:__ZN12HandlerChain4OpenER13FileEntryData14FilePermission16FileAutoBehavior
Uwc:__ZN27PerformanceReportingManager29OnSceneLoadedAfterAwakeStaticEPS_iR18AwakeFromLoadQueueN19RuntimeSceneManager11LoadingModeE
N4:__ZN14FileCacherReadD2Ev
xqa:__ZN13RendererScene23UpdatePreviousFrameDataEii
V1c:_RSAPKCS1SignatureDeformatter_VerifySignature_m1825067195
nRi:__ZL25UnresolvedVirtualCall_123P12Il2CppObjectffPK10MethodInfo
Scc:__Z50Register_UnityEngine_CullingGroup_FinalizerFailurev
L_i:_KeyValuePair_2_ToString_m2613351884_gshared
zjb:__ZN6Camera15ThreadedCleanupEv
ibg:__ZL69ColorBlock_t2652774230_CustomAttributesCacheGenerator_m_DisabledColorP21CustomAttributesCache
f5g:_Scrollbar__ctor_m2244981801
Yhj:__ZN6il2cpp6icalls8mscorlib6System2IO6MonoIO9GetLengthE12Il2CppIntPtrPi
rkc:__ZNSt3__26__treeINS_12__value_typeIN4core12basic_stringIcNS2_20StringStorageDefaultIcEEEES6_EENS_19__map_value_compareIS6_S7_N6detail7ci_lessELb1EEENS_9allocatorIS7_EEE7destroyEPNS_11__tree_nodeIS7_PvEE
y2c:_SHA256Managed_HashCore_m4111458495
wEd:_CultureInfo_get_CompareInfo_m3085280862
_Df:__ZL55Dictionary_2_t2276497324_CustomAttributesCacheGeneratorP21CustomAttributesCache
Mii:_DllImportAttribute__ctor_m1165454237
ang:_ObjectManager_RecordDelayedFixup_m1895730844
Wdd:_ArrayTypeMismatchException__ctor_m1898555879
_F:__ZN9AudioClip23VirtualRedirectTransferER18StreamedBinaryReadILb0EE
aif:_ClientSessionInfo_CheckDisposed_m1394638186
cpg:_SByte_Parse_m2544167007
F7c:_Single_CompareTo_m2081476257
lVh:__Z61RuntimeInvoker_Boolean_t3825574718_Int32_t2071877448_IntPtr_tPK10MethodInfoPvPS2_
Rdb:__ZN24GenerateTypeTreeTransfer8TransferIN11AssetBundle9AssetInfoEEEvRT_PKc17TransferMetaFlags
m2e:_BigInteger__ctor_m2945783161
Mjf:_TlsClientHello_Update_m1723542631
PNe:_IndexOutOfRangeException__ctor_m3497760912
Bj:_glCopyTexSubImage2D
dQa:_UNITY_png_write_zTXt
YV:__ZN18ScreenManagerWebGL13SetShowCursorEb
Rsj:__ZN6il2cpp6icalls8mscorlib6System7Convert24InternalFromBase64StringEP12Il2CppStringb
ANa:__ZZ23InitPlayerLoopCallbacksvEN37EarlyUpdateProcessMouseInWindowstruct7ForwardEv
Uah:_Text_get_preferredWidth_m3352156860
gQc:__ZN2UI13CanvasManager14GetRenderOrderEPKNS_6CanvasE
kGb:__Z18Transfer_BlittableI14SafeBinaryReadLb0E5RectTIfEEvRK29SerializationCommandArgumentsR31RuntimeSerializationCommandInfo
mFe:_ReadOnlyCollection_1_System_Collections_Generic_IListU3CTU3E_RemoveAt_m878653284_gshared
zJe:_DateTimeFormatInfo_GetFormat_m3676195179
fAa:__ZN14GfxContextGLES14GetFramebufferEv
cNj:_emscripten_glGenVertexArrays__wrapper
gja:__ZN6prcoreL21CreateRemapAnyBlitterE13TextureFormatS0_
V7b:__ZN17AnimationCurveTplIfE16StripInvalidKeysEv
V2d:_Array_InternalArray__ICollection_Add_TisKeyValuePair_2_t3716250094_m2381539361_gshared
x9e:_X509Extension_WriteLine_m2850991173
_Oc:__ZNK2UI6Canvas17GetSortingLayerIDEv
CYb:__ZL12HashLen0to16PKcj
J3i:_il2cpp_method_has_attribute
l4b:__Z13RegisterClassI17GlobalGameManagerEvv
l2a:__ZN8Renderer24SetupNewRendererForSceneEv
f_d:_Array_InternalArray__ICollection_Remove_TisInt64_t909078037_m2653583130_gshared
Rtg:_Thread_get_ExecutionContext_m922067206
g5b:__ZN14PlayableOutput6HandleEv
Txj:__ZN6il2cpp5utils10MemoryPool9AddRegionEj
nn:FUNCTION_TABLE_iiiiiiiiiiiiii
Rmb:__ZN11Tetrahedron8TransferI24GenerateTypeTreeTransferEEvRT_
bFc:_UNITY_tt_get_cmap_info
e6a:__ZN16ReflectionProbes8ScheduleEN18ReflectionProbeJob7JobTypeEP15ReflectionProbei
Bye:_Collection_1_IsFixedSize_m3675221982_gshared
G5:__ZN16MessageForwarder13HandleMessageEPviR11MessageData
Mee:_Enumerator_MoveNext_m3293920409_AdjustorThunk
uX:__Z18IsDirectoryCreatedRKN4core12basic_stringIcNS_20StringStorageDefaultIcEEEE
yAh:_Comparer_1__cctor_m3112251759_gshared
Usf:_X509KeyUsageExtension_ToString_m1992050580
KAc:_UNITY_FT_GlyphLoader_Done
Oji:_ConstructionCall__ctor_m1143766850
mWg:_GUIStyleState_Init_m2434147050
zAh:_Comparer_1_System_Collections_IComparer_Compare_m3203078743_gshared
lmg:_ObjectReader_ReadArrayOfString_m3752210963
jMi:_Terminal_WriteLine_m3165006896
RFc:_tt_cmap14_char_var_index
VOh:__Z77RuntimeInvoker_TimeSpan_t3430258949_TimeSpan_t3430258949_TimeSpan_t3430258949PK10MethodInfoPvPS2_
oHc:_psh_globals_new
wUe:_FileStream_Seek_m950719389
psd:_Decimal_stripStyles_m294582157
Ktg:_UTF8Decoder_GetChars_m3819660582
Nta:__ZN9GfxDevice20SetMaxBufferedFramesEi
fle:_List_1_RemoveAll_m4125997475_gshared
eHj:dynCall_vdd
DPc:__ZN2UIL17UnloadAllCanvasesEv
H9a:__Z23ConvertIntegerToTypePtrIsEbPvR14SafeBinaryRead
cSh:__Z69RuntimeInvoker_Single_t2076509932_Int32_t2071877448_Int32_t2071877448PK10MethodInfoPvPS2_
Zkd:_FixedSizeArrayListWrapper_Remove_m1359458911
oja:__ZN6prcoreL29inner_stretch_rgb565_bilinearEPKNS_9InnerInfoE
oti:_Uri__ctor_m3927533881
dGd:_EventSystem_get_current_m319019811
gah:_Text_get_mainTexture_m813502234
X_a:__ZNK14RenderSettings19GetFlatAmbientColorEv
a6a:__ZN6prcoreL10inner_flipILj4EEEvPhS1_j
Yyb:__ZN18StreamedBinaryReadILb0EE21TransferSTLStyleArrayI10vector_mapIPKN5Unity4TypeE7Hash128NSt3__24lessIS6_EENS8_9allocatorINS8_4pairIS6_S7_EEEEEEEvRT_17TransferMetaFlags
Nu:__ZNK27StateMachineBehaviourPlayer15IsSenderEnabledEv
vBh:_Enumerator_VerifyState_m2118679243_gshared
jUd:_InputField_get_shouldHideMobileInput_m3694613599
Nic:__Z40Register_UnityEngine_Transform_SetParentv
V6h:_AudioConfigurationChangeHandler_Invoke_m635374412
Iub:__ZN14Texture2DArray17UploadToGfxDeviceEv
IEe:_ReadOnlyCollection_1_System_Collections_Generic_IListU3CTU3E_Insert_m4216310986_gshared
SAe:_ReadOnlyCollection_1_System_Collections_Generic_IListU3CTU3E_set_Item_m1532495847_gshared
LJ:__Z14FMODMemoryFreePvjPKc
Dfb:__ZN15dense_hashtableINSt3__24pairIKN4core12basic_stringIcNS2_20StringStorageDefaultIcEEEES6_EES6_20StringHash32FunctionIS6_EN14dense_hash_mapIS6_S6_SA_NS0_8equal_toIS6_EE13stl_allocatorIS8_L18MemLabelIdentifier54ELi16EEE9SelectKeyESD_SG_EC2ERKSJ_j
MTd:_Image_AddQuad_m1600600902
HIc:_cf2_glyphpath_moveTo
cxd:_DateTimeOffset__ctor_m1796624924
iSg:_GUILayoutUtility_get_spaceStyle_m1918520192
aGd:_BaseRaycaster_OnDisable_m1716508791
XZd:_Array_InternalArray__ICollection_Remove_TisKeyValuePair_2_t3716250094_m2566517826_gshared
Zlc:__ZN5IMGUI14GUIWindowStateD2Ev
Iwj:_GC_is_heap_ptr
Kfj:__GLOBAL__sub_I_Assembly_cpp
Lt:__ZN7mecanim5human10RetargetToEPKNS0_5HumanEPKNS0_9HumanPoseES6_RKN4math4trsXEPS4_PNS_8skeleton13SkeletonPoseTIS8_EESF_
Nx:__ZN7mecanim9animation8SeekClipERKNS0_12StreamedClipERNS0_18StreamedClipMemoryEf
fm:_emscripten_glIsTexture
lYg:_Mathf_Clamp_m3542052159
Fkd:_ArrayListWrapper_CopyTo_m793444109
Mk:_emscripten_glHint
VLc:_ft_var_readpackeddeltas
vwd:_DateTime_AddMilliseconds_m1813199744_AdjustorThunk
_Kg:_TypeBuilder_IsValueTypeImpl_m1499671481
iwf:_X509ChainStatus_t4278378721_marshal_pinvoke
Bef:_RSAManaged__ctor_m1680944437
im:_SDL_UpperBlit
qVg:_GUIStyle_op_Implicit_m781448948
C$a:__Z35GetTextureDecodeValuesWithIntensity16TextureUsageMode17TextureColorSpace10ColorSpacef
Ihd:_Byte_GetHashCode_m2885528842_AdjustorThunk
ecj:__ZN15dense_hashtableINSt3__24pairIK10KeyWrapperINS1_IPK9EventInfoP11Il2CppClassEEEjEES9_17ReflectionMapHashIS8_EN14dense_hash_mapIS9_jSD_NS9_14EqualsComparerINS0_8equal_toIS8_EEEENS0_9allocatorISB_EEE9SelectKeyESI_SK_E15set_deleted_keyERKSB_
ogh:_Dictionary_2_OnDeserialization_m2092139626_gshared
vlj:__ZNK6il2cpp2os6Socket12GetLastErrorEv
dEb:__ZN14SafeBinaryRead20OverrideRootTypeNameEPKc
R4:__ZN14FileCacherRead16UnlockCacheBlockEj
B8e:_X509Certificate_GetUnsignedBigInteger_m3491353542
Ayc:__ZNSt3__26vectorIN4core12basic_stringIcNS1_20StringStorageDefaultIcEEEE13stl_allocatorIS5_L18MemLabelIdentifier34ELi16EEE6assignINS_11__wrap_iterIPS5_EEEENS_9enable_ifIXaasr21__is_forward_iteratorIT_EE5valuesr16is_constructibleIS5_NS_15iterator_traitsISF_E9referenceEEE5valueEvE4typeESF_SF_
d2a:__ZN6Camera6RenderER11CullResultsR17ShaderPassContextPK21CameraRenderingParamsNS_10RenderFlagE
Lc:_emscripten_glUniform1f
nLa:__ZNK12HandlerChain4SizeERK13FileEntryData
jBc:__Z20ParseImageParametersR11UTF16StringRiRN20TextRenderingPrivate16TextFormatChangeE
Qc:_emscripten_glUniform1i
WDb:__ZN13MonoBehaviour9CallAwakeEv
pSg:__Z14bankers_roundff
tUb:__ZN9ShaderLab16SerializedTagMapaSERKS0_
YQ:__ZN11UnityEngine15CloudWebService16SessionContainer20RestoreSessionHeaderERKN4core12basic_stringIcNS2_20StringStorageDefaultIcEEEES8_RNS0_13SessionHeaderE
Swd:_DateTime_ToString_m1117481977
fMi:_Hacker_Start_m3377866405
eJg:_GenericTypeParameterBuilder_GetGenericArguments_m277381309
vA:__ZN11UnityEngine9Animation27CreateAvatarBindingConstantER9TransformPKN7mecanim9animation14AvatarConstantERNS3_6memory9AllocatorE
NAb:__ZN14SafeBinaryRead21TransferSTLStyleArrayINSt3__26vectorIN30RuntimeInitializeOnLoadManager9ClassInfoE13stl_allocatorIS4_L18MemLabelIdentifier12ELi16EEEEEEvRT_17TransferMetaFlags
iCg:_UnitySerializationHolder_GetObjectData_m2280028722
bpi:_PatternCompiler_EmitFalse_m1188949782
KAg:_UInt64_System_IConvertible_ToDateTime_m2412118561
eac:__ZN9BlobWriteC2ER13dynamic_arrayIhLj16EE24TransferInstructionFlags19BuildTargetPlatform
k3:__ZN14MessageHandler3GetEv
JTg:_GUISkin_set_verticalScrollbarThumb_m2647835739
cd:_emscripten_glAttachShader
zDe:_ReadOnlyCollection_1__ctor_m1539890895_gshared
Mta:__ZN9GfxDevice13SetActiveTierE12GraphicsTier
wde:_Enumerator_System_Collections_IEnumerator_get_Current_m3079057684_AdjustorThunk
Fxb:__ZNSt3__26vectorIN4core12basic_stringIcNS1_20StringStorageDefaultIcEEEENS_9allocatorIS5_EEE6assignIPS5_EENS_9enable_ifIXaasr21__is_forward_iteratorIT_EE5valuesr16is_constructibleIS5_NS_15iterator_traitsISC_E9referenceEEE5valueEvE4typeESC_SC_
r5e:_KeyPairPersistence_get_UserPath_m3433052783
AAf:__ZL58Decimal_t724701077_CustomAttributesCacheGenerator_MinusOneP21CustomAttributesCache
YFb:__Z18Transfer_BlittableI14SafeBinaryReadLb0E11QuaternionfEvRK29SerializationCommandArgumentsR31RuntimeSerializationCommandInfo
xQb:__Z18Transfer_BlittableI18StreamedBinaryReadILb0EELb1E12PropertyNameEvRK29SerializationCommandArgumentsR31RuntimeSerializationCommandInfo
jV:_tlsf_walk_heap
$7e:_PKCS12_Decode_m731190390
tvh:_InternalEnumerator_1_get_Current_m1550231132_gshared
vCg:_Version_CheckedSet_m76493673
jb:invoke_vif
kb:invoke_vid
bFj:__ZNSt3__212basic_stringIcNS_11char_traitsIcEENS_9allocatorIcEEE6insertEjPKc
mb:invoke_vii
gBi:_Transform_get_localRotation_m4001487205
Fbb:__ZN12TLSAllocatorI14StackAllocatorE16ThreadInitializeEP13BaseAllocator
bkd:_ArrayList_Sort_m2778059513
DSd:_LayoutGroup_SetChildAlongAxis_m2732017156
ZQc:__Z41CanvasRenderer_CUSTOM_DisableRectClippingP12Il2CppObject
sdf:_MD2_Create_m539024737
TKa:__ZN25SingleBlockMemoryFileDataD0Ev
Jdb:__ZNSt3__26vectorI14ConstantStringNS_9allocatorIS1_EEE6assignINS_11__wrap_iterIPS1_EEEENS_9enable_ifIXaasr21__is_forward_iteratorIT_EE5valuesr16is_constructibleIS1_NS_15iterator_traitsISA_E9referenceEEE5valueEvE4typeESA_SA_
TQ:__ZN11UnityEngine15CloudWebService16SessionContainer21ConvertFromFolderTimeERKN4core12basic_stringIcNS2_20StringStorageDefaultIcEEEEPjPt
lHb:__ZNSt3__26vectorI8GUIStyle13stl_allocatorIS1_L18MemLabelIdentifier1ELi16EEE7reserveEj
Gfj:__ZN6il2cpp6icalls8mscorlib6System9Threading6Thread27GetSerializedCurrentCultureEP12Il2CppThread
j2d:_Array_InternalArray__IndexOf_TisUInt32_t2149682021_m3231515987_gshared
I$b:__Z31CalculateHierarchyTransformType23TransformAccessReadOnly
oWi:__ZN15dense_hashtableINSt3__24pairIK10KeyWrapperI13dynamic_arrayIPK10Il2CppTypeLj4EEEPFvvEEES8_N6il2cpp8metadata19Il2CppSignatureHashEN14dense_hash_mapIS8_SB_SF_NS8_14EqualsComparerINSE_22Il2CppSignatureCompareEEENS0_9allocatorISC_EEE9SelectKeyESJ_SL_E12resize_deltaEjj
f_b:__Z13RegisterClassI11TimeManagerEvv
BJ:__ZN4FMOD8ChannelI11setPositionEjj
sei:_AnimatorControllerPlayable_INTERNAL_CALL_SetBoolString_m1232105510
qai:_Component_SendMessage_m913946877
f9:__ZN17BaseObjectManager13StaticDestroyEPv
wzi:_TextGenerationSettings_CompareVector2_m592645251
Fxd:_DBNull_System_IConvertible_ToChar_m3344298044
m9e:_X509Certificate_GetObjectData_m3888130484
pAb:__ZNSt3__26vectorIN15ResourceManager10DependencyE13stl_allocatorIS2_L18MemLabelIdentifier51ELi16EEEC2INS_11__wrap_iterIPS2_EEEET_SB_RKS5_PNS_9enable_ifIXaasr21__is_forward_iteratorISB_EE5valuesr16is_constructibleIS2_NS_15iterator_traitsISB_E9referenceEEE5valueEvE4typeE
qoi:_LinkStack_Push_m2660199875
vI:__ZN4FMOD6Reverb13setPropertiesEPK22FMOD_REVERB_PROPERTIES
N3h:_CustomEventData_AddChar_m1103619816
SVa:__ZN9DepthPass13PrepareSubsetEjRK10RenderNodeifRK17ShaderReplaceData
$Wg:_Input_get_compositionString_m636835668
wvi:_X509CertificateCollection_Add_m4008705157
K6b:__Z35SetMeshComponentFromArrayFromScriptR4Mesh30InternalScriptingShaderChannel34InternalScriptingVertexChannelTypei17ScriptingArrayPtri
h8b:__Z18ExtractTagThrowingR11ICallString
Jve:_Collection_1_IsFixedSize_m1816795498_gshared
HNa:__ZZ23InitPlayerLoopCallbacksvEN40EarlyUpdatePlayerCleanupCachedDatastruct7ForwardEv
mq:__ZN4core20StringStorageDefaultIcE6assignEPKcj
YSg:_GUIStyleState_GetBackgroundInternal_m439046630
Zkj:__ZN15dense_hashtableINSt3__24pairIK10KeyWrapperIP12Il2CppObjectEN6il2cpp2gc9CachedCCWEEES5_NS7_5utils11PointerHashIS3_EEN14dense_hash_mapIS5_S9_SD_NS5_14EqualsComparerINS0_8equal_toIS4_EEEENS0_9allocatorISA_EEE9SelectKeyESI_SK_E3endEv
QAb:__Z14resize_trimmedINSt3__26vectorIi13stl_allocatorIiL18MemLabelIdentifier12ELi16EEEEEvRT_j
kJd:_MouseButtonEventData_ReleasedThisFrame_m482758300
Ycj:__ZN15dense_hashtableINSt3__24pairIK10KeyWrapperINS1_IP11Il2CppClassjEEES4_EES6_N6il2cpp8metadata14ArrayClassHashEN14dense_hash_mapIS6_S4_SB_NS6_14EqualsComparerINSA_17ArrayClassCompareEEENS0_9allocatorIS8_EEE9SelectKeyESF_SH_E9copy_fromERKSK_j
cld:_ReadOnlyArrayListWrapper_set_Item_m2199017141
L3a:__ZN6Camera6SetFarEf
rvi:_DeriveBytes_DeriveIV_m3343375195
ICc:_UNITY_FT_Init_Class_ft_bitmap_glyph_class
g1c:_RNGCryptoServiceProvider_GetBytes_m167497991
Vja:__ZN6prcoreL12RemapGenericI17TexFormatABGR888817TexFormatARGB8888EEvPKNS_9InnerInfoE
yhb:__ZN11GameManager17MainThreadCleanupEv
_di:_AnimatorControllerPlayable_INTERNAL_CALL_GetAnimatorControllerInternal_m239716681
d1i:__ZN6il2cpp6icalls8mscorlib6System18CollectTypeMethodsINS_5utils10functional6FilterINSt3__212basic_stringIcNS7_11char_traitsIcEENS7_9allocatorIcEEEENS4_11StringUtils23CaseInsensitiveComparerEEEEEvP11Il2CppClassPKSH_jRKT_RNS7_6vectorIPK10MethodInfoNSB_ISR_EEEERA65535_b
eHg:_TypeBuilder_get_Assembly_m492491492
IKc:_UNITY_tt_slot_init
e$c:_HMACSHA512__cctor_m1167457383
KRb:__Z25scripting_array_class_get17ScriptingClassPtrj
_rc:__ZL22Transfer_ManagedObjectI9JSONWriteLb1EEvRK29SerializationCommandArgumentsR31RuntimeSerializationCommandInfo
gva:__ZN9GfxDevice20DestroyRenderSurfaceER12ObjectHandleI17RenderSurface_TagP17RenderSurfaceBaseE
HIa:__ZN9GfxDevice22UpdateComputeResourcesEjPK9TextureIDPK16TextureDimensionPKijPKjjPK15ComputeBufferIDS7_PK20ComputeBufferCounterjSC_S2_S5_S9_SF_
V3b:__ZN12_GLOBAL__N_15qAsinEff
i9d:_Dictionary_2_Do_ICollectionCopyTo_TisKeyValuePair_2_t3749587448_m2536766696_gshared
Gbb:__ZN12TLSAllocatorI14StackAllocatorE13ThreadCleanupEv
Hsj:__ZThn4_N6il2cpp2vm13ComObjectBase16MarshalInterfaceEP13Il2CppIStreamRK10Il2CppGuidPvjS7_j
zvb:__ZN4Mesh27SwizzleVertexColorsIfNeededEb
mcb:__Z27FindActiveTransformWithPathPKc
K8h:_CanvasGroup_get_alpha_m1304564441
v6h:_AsyncOperation_Finalize_m67522446
POh:__Z56RuntimeInvoker_TimeSpan_t3430258949_TimeSpan_t3430258949PK10MethodInfoPvPS2_
jPa:_UNITY_png_write_info
YXa:__ZNK6Camera7GetNearEv
Pza:__ZN7ApiGLES11UnmapBufferEjN2gl12BufferTargetE
roj:__ZN6il2cpp5utilsL24Utf32CharToSurrogatePairEjRA2_Ds
Upb:__Z25GetNextAllowedTextureSizeib13TextureFormat
bX:__ZN20LocalFileSystemWebGL4CopyER13FileEntryDataS1_
_le:_List_1_CheckIndex_m4231572822_gshared
TS:__ZN19CloudServiceHandler6RetainEv
V5c:_StrongName_Equals_m67226644
Kib:__ZN12BaseRenderer20FlattenToRenderQueueER15RenderNodeQueueRK20DeprecatedSourceData
gYe:_UnmanagedMemoryStream_get_Length_m587008850
zma:__Z34scripting_liveness_calculation_endPv
Toj:__ZN6il2cpp2os6ThreadC2Ev
K6c:_SecurityFrame_InitFromRuntimeFrame_m45195821
Yuf:_X509Chain_IsSignedWith_m292245392
a_d:_Array_InternalArray__ICollection_Remove_TisDateTime_t693205669_m1275668216_gshared
DDe:_ReadOnlyCollection_1_System_Collections_Generic_ICollectionU3CTU3E_Remove_m3751131234_gshared
stc:__Z18Transfer_BlittableI8JSONReadLb0E8Vector3fEvRK29SerializationCommandArgumentsR31RuntimeSerializationCommandInfo
hki:_ChannelServices__cctor_m3534779830
zej:__ZN6il2cpp2vm6Thread6DetachEP12Il2CppThread
yGc:_Render_Single_Pass
htd:_Convert_ToInt16_m416789348
Mbd:_EncoderExceptionFallback_Equals_m762170768
Znh:_EqualityComparer_1__cctor_m2666196678_gshared
UQg:_GUIStyle_Init_m3872198731
BA:__ZN7mecanim8skeleton30SkeletonBuildReverseIndexArrayEPiPKiPKNS0_8SkeletonES6_
Ykc:__Z19GetGUIBlendMaterialv
Fpj:__ZN6il2cpp2os10ThreadImpl5SleepEjb
jsc:__ZN9JSONWrite8TransferI13GUIStyleStateEEvRT_PKc17TransferMetaFlags
fCb:__ZN15FileSystemEntry4MoveERS_23FileSystemCopyMoveFlags
DMj:_glBindSampler__wrapper
lHi:_UnityAction_1_Invoke_m3523417209_gshared
Jf:_emscripten_set_mouseup_callback
Ayi:_SpaceAttribute__ctor_m1444406696
hW:__ZNK18ScreenManagerWebGL8GetWidthEv
oHj:dynCall_iiifii
kSd:_GridLayoutGroup_set_startAxis_m1635162426
FF:__ZN10SampleClipD2Ev
Pmi:_SynchronizationAttribute_EnterContext_m2984912761
IEd:_CultureInfo_construct_internal_locale_from_name_m971766383
I3d:_Array_InternalArray__ICollection_Add_TisUIVertex_t1204258818_m3869382594_gshared
ID:__Z56AnimationOffsetPlayable_CUSTOM_INTERNAL_CALL_GetPositionR9HPlayableR8Vector3f
cKc:_cff_cmap_unicode_init
ZBd:_Enum_ToObject_m2460371738
j3e:_PrimalityTests_Test_m1088386156
Xmc:__Z36Event_CUSTOM_Internal_SetNativeEvent13Il2Cpp_IntPtr
DDj:_readlink
I9i:__ZN15dense_hashtableINSt3__24pairIK10KeyWrapperINS1_IPK9EventInfoP11Il2CppClassEEEjEES9_17ReflectionMapHashIS8_EN14dense_hash_mapIS9_jSD_NS9_14EqualsComparerINS0_8equal_toIS8_EEEENS0_9allocatorISB_EEE9SelectKeyESI_SK_E12resize_deltaEjj
I7d:_Array_Resize_TisVector3_t2243707580_m893658391_gshared
Krh:_InternalEnumerator_1_System_Collections_IEnumerator_get_Current_m4259662004_AdjustorThunk
abe:_Array_InternalArray__get_Item_TisKeyframe_t1449471340_m1003508933_gshared
Fyj:__ZN6il2cpp8metadata14Il2CppTypeHash4HashEPK10Il2CppType
V7e:_StrongName_get_PublicKeyToken_m1968460885
Dxb:__ZNK6Sprite9GetBoundsE8Vector2fbb
vRa:__ZNK19RenderEventsContext21CleanupCommandBuffersEv
pya:__ZN11ContextGLES6CreateEi
NRe:_BinaryReader_Dispose_m4249456877
wWi:__ZN15dense_hashtableINSt3__24pairIK10KeyWrapperI13dynamic_arrayIPK10Il2CppTypeLj4EEEPFvvEEES8_N6il2cpp8metadata19Il2CppSignatureHashEN14dense_hash_mapIS8_SB_SF_NS8_14EqualsComparerINSE_22Il2CppSignatureCompareEEENS0_9allocatorISC_EEE9SelectKeyESJ_SL_E12maybe_shrinkEv
msd:_Double_ToString_m1085043609
jRb:__Z19TransferField_ArrayI18StreamedBinaryReadILb0EE27Converter_SimpleNativeClassI17AnimationCurveTplIfEEEvRK23StaticTransferFieldInfoR31RuntimeSerializationCommandInfoRT0_
Wff:_CipherSuite_createEncryptionCipher_m1926075645
rbb:__ZN14StackAllocator16FrameMaintenanceEb
CRd:_Graphic_Raycast_m3582517890
cfb:__Z18ReadStringFromFilePN4core17string_with_labelILi1EEERKNS_12basic_stringIcNS_20StringStorageDefaultIcEEEE
q0:__ZNK10GameObject20QueryComponentByTypeEPKN5Unity4TypeE
Bee:_Enumerator_MoveNext_m1367380970_AdjustorThunk
uKg:_OpCode_GetHashCode_m2974727122
Xff:_CipherSuite_createDecryptionCipher_m1118350455
vpi:_PatternCompiler_EmitReference_m1381860071
LE:__Z78AnimatorControllerPlayable_CUSTOM_INTERNAL_CALL_IsParameterControlledByCurveIDR9HPlayablei
PAd:_Double_System_IConvertible_ToInt16_m4200640326
$dc:__Z53Register_UnityEngine_GameObject_get_activeInHierarchyv
hSh:__Z90RuntimeInvoker_Single_t2076509932_Single_t2076509932_Single_t2076509932_Single_t2076509932PK10MethodInfoPvPS2_
r_:__ZL30InitializeCoreScriptingClassesv
zye:_Collection_1_CheckWritable_m3938993573_gshared
Eg:_glBlitFramebuffer
r3e:_BigInteger_GeneratePseudoPrime_m2606361440
LIb:__Z35Transfer_Blittable_SingleValueFieldI14SafeBinaryReadhEvRT_R17GeneralMonoObjectRK23StaticTransferFieldInfo
VXc:__ZN22BaseUnityConnectClientC2ERN11UnityEngine7Connect20BasePersistentValuesE
YIh:__Z129RuntimeInvoker_Int32_t2071877448_Il2CppObject_Int32_t2071877448_Int32_t2071877448_Il2CppObject_Int32_t2071877448_SByte_t454417549PK10MethodInfoPvPS2_
pig:_RemotingServices_GetRealProxy_m620317996
sWa:__ZN13dynamic_arrayI11CulledLightLj4EE6insertEPS0_PKS0_S4_
HVi:__ZNK15dense_hashtableI10KeyWrapperIPK19Il2CppGenericMethodES4_N6il2cpp8metadata23Il2CppGenericMethodHashEN14dense_hash_setIS4_S7_NS4_14EqualsComparerINS6_26Il2CppGenericMethodCompareEEENSt3__29allocatorIS4_EEE8IdentityESB_SE_E3endEv
sFi:_Predicate_1_Invoke_m2060780095_gshared
Xmb:__ZN11Tetrahedron8TransferI18StreamedBinaryReadILb0EEEEvRT_
Kn:FUNCTION_TABLE_vif
Ln:FUNCTION_TABLE_vid
Nn:FUNCTION_TABLE_vii
Lma:__Z40scripting_liveness_calculation_from_root18ScriptingObjectPtrPv
aPa:_UNITY_png_create_write_struct
WHh:__Z149RuntimeInvoker_Boolean_t3825574718_Int32_t2071877448_Il2CppObject_Int32_t2071877448_Int32_t2071877448_Il2CppObject_Int32_t2071877448_SByte_t454417549PK10MethodInfoPvPS2_
afa:__ZN7Texture23VirtualRedirectTransferER24GenerateTypeTreeTransfer
Pzc:_UNITY_FT_Set_Transform
Hoh:_ArrayReadOnlyList_1_Contains_m1266627404_gshared
iMj:_glDeleteFramebuffers__wrapper
cTd:_Image_get_overrideSprite_m706080347
vbf:_BigInteger_ModInverse_m1881894572
a0i:__ZN6il2cpp2vm7Runtime17GetDelegateInvokeEP11Il2CppClass
Wie:_List_1_AddEnumerable_m3541747636_gshared
crb:__ZN28EnlightenRendererInformation8TransferI14SafeBinaryReadEEvRT_
fIf:__ZL69DefaultDependencyAttribute_t3858269114_CustomAttributesCacheGeneratorP21CustomAttributesCache
zJa:__ZNK15Lz4Decompressor16DecompressMemoryEPKvPjPvS2_
y$g:_Ray_ToString_m2019179238
fGe:_ReadOnlyCollection_1_System_Collections_IList_get_Item_m887129009_gshared
eyd:_Decimal_System_IConvertible_ToType_m3828527724_AdjustorThunk
fEc:_UNITY_tt_face_load_os2
kdf:_HMAC_get_Key_m2528863640
lze:_Collection_1_IsSynchronized_m1366278230_gshared
mIb:__Z29Transfer_Blittable_ArrayFieldI14SafeBinaryRead8Vector4fEvRT_R9ArrayInfoRK23StaticTransferFieldInfo
AYd:_Array_get_swapper_TisInt32_t2071877448_m2837069166_gshared
M7i:__ZN6il2cpp2gc19AppendOnlyGCHashMapINSt3__24pairIPK10MethodInfoP11Il2CppClassEEP22Il2CppReflectionMethod17ReflectionMapHashIS9_ENS2_8equal_toIS9_EEE3AddERKS9_SB_
U0g:_RectTransform_INTERNAL_get_rect_m1177342209
EId:_PointerEventData_IsScrolling_m1971908975
DMi:_Keyboard_WarnIfTerminalNotConneced_m4209930749
crj:__ZN6il2cpp2os26LibraryNamePrefixAndSuffixD2Ev
qyd:_Decimal_System_IConvertible_ToInt16_m3159038792
mx:__ZN7mecanim9animation12EvaluateClipEPKNS0_4ClipEPKNS0_9ClipInputEPNS0_10ClipMemoryEPNS0_10ClipOutputE
INg:_MonoMethodInfo_GetReturnType_m2864247130
i0a:__ZN13RenderManager29SetCurrentCameraAndStackStateEP6CameraP25CameraStackRenderingState
lej:__ZN15dense_hashtableINSt3__24pairIK10KeyWrapperINS1_IP11Il2CppClassjEEES4_EES6_N6il2cpp8metadata14ArrayClassHashEN14dense_hash_mapIS6_S4_SB_NS6_14EqualsComparerINSA_17ArrayClassCompareEEENS0_9allocatorIS8_EEE9SelectKeyESF_SH_E12resize_deltaEjj
Th:_JS_WebRequest_Release
_Se:_DirectoryNotFoundException__ctor_m2242202556
rR:__ZN11UnityEngine15CloudWebService14DataErrorEventD0Ev
wad:_String_CreateString_m2448464375
Dwf:_X509SubjectKeyIdentifierExtension__ctor_m2959112706
xLg:_FieldInfo_get_IsNotSerialized_m2322769148
hkj:__ZN6il2cpp8metadata15GenericMetadata7InflateEPK19Il2CppGenericMethodPK20Il2CppGenericContext
jSa:__ZN19ShaderPropertySheet16SetArrayPropertyEN9ShaderLab16FastPropertyNameENS_12PropertyTypeEPKvj
BNg:_MonoGenericCMethod_get_ReflectedType_m2689239043
mze:_Collection_1_IsFixedSize_m499196375_gshared
vNd:_ColorTween_set_startColor_m3546206870_AdjustorThunk
YNc:__ZN2UI11CanvasGroup23VirtualRedirectTransferER19StreamedBinaryWriteILb0EE
xuh:_InternalEnumerator_1_get_Current_m4083613828_gshared
gmc:__ZN8GUIState8EndOnGUIEv
jsg:_UnicodeEncoding_GetString_m542738941
PKc:_UNITY_TT_Get_VMetrics
zSe:_Path_InsecureGetFullPath_m2635272425
awd:_DateTime_System_IConvertible_ToUInt32_m1363211018
_ng:_RuntimeMethodHandle__ctor_m1162528746
X_d:_SetPropertyUtility_SetStruct_TisSingle_t2076509932_m3849235084_gshared
aBa:__ZN7Texture21GetMasterTextureLimitEv
T4a:__Z12CanAddScriptR10GameObject17ScriptingClassPtrPS1_S2_
Hcj:__ZN6il2cpp2vm10Reflection12HasAttributeEP12Il2CppObjectP11Il2CppClass
yQa:_UNITY_png_write_sRGB
xvc:__ZN8JSONRead21TransferSTLStyleArrayI13dynamic_arrayI4AABBLj4EEEEvRT_18MemLabelIdentifier17TransferMetaFlags
A0:__ZN9ShaderLabL25StaticInitializeShaderLabEPv
U:Math_max
Q2i:_il2cpp_class_get_methods
CSe:_Path_CanonicalizePath_m383914732
tBh:_Enumerator_System_Collections_IEnumerator_get_Current_m1631145297_gshared
gkd:_ArrayList_Synchronized_m2395071980
$oj:__ZN6il2cpp2os6Thread16GetCurrentThreadEv
o4b:__ZN10GameObject13ComponentPair15SetComponentPtrEPN5Unity9ComponentE
aYe:_UnexceptionalStreamWriter_Write_m3206913035
TZb:__Z13RegisterClassI10MeshFilterEvv
SC:__ZNK26AnimatorControllerPlayable24GetAnimatorClipInfoCountEib
wib:__ZN10TagManager8TransferI19StreamedBinaryWriteILb0EEEEvRT_
fFb:__ZN11PreloadData23VirtualRedirectTransferER18StreamedBinaryReadILb0EE
xw:__Z17dynamic_pptr_castIP10MonoScript6ObjectET_RK4PPtrIT0_E
osj:__ZN6il2cpp6icalls8mscorlib6System10ReflectionL40il2cpp_class_get_generic_type_definitionEP11Il2CppClass
qqg:_DESTransform_ProcessBlock_m2826669227
EQh:__Z115RuntimeInvoker_Void_t1841601450_Il2CppObject_Int32_t2071877448_Int32_t2071877448_SByte_t454417549_Int32_t2071877448PK10MethodInfoPvPS2_
uOe:_Int16_CompareTo_m3493496879
stb:__ZN6Sprite17MainThreadCleanupEv
TK:__ZN10AudioMixer14UpdateMuteSoloEv
fai:_Component_GetComponents_m637589504
G3g:_MaskableGraphic_UnityEngine_UI_IClippable_get_gameObject_m954171032
Ofa:__ZN9ShaderLab10SubProgram7CompileEv
dAa:__ZN7ApiGLES16SetPatchVerticesEi
yVe:_MonoIOStat_t1621921065_marshal_pinvoke
hKa:__ZN10MemoryFileC2E18MemLabelIdentifierP14MemoryFileData14FilePermission
xjg:_TrackingServices_NotifyUnmarshaledObject_m1794048369
lNi:__ZN6il2cpp2vm5Class20FromGenericParameterEPK22Il2CppGenericParameter
tT:__ZN19CloudServiceHandler11FlushEventsEv
Bfi:_AnimatorControllerPlayable_INTERNAL_CALL_GetAnimatorClipInfoInternal_m3180917212
F8:__ZN15GlobalCallbacksC2Ev
qdb:__ZN11AssetBundle8TransferI14SafeBinaryReadEEvRT_
j6d:_Array_InternalArray__set_Item_TisLabelFixup_t4090909514_m565370771_gshared
oBc:_UNITY_FT_New_Memory_Face
fE:__Z81AnimatorControllerPlayable_CUSTOM_INTERNAL_CALL_GetAnimatorTransitionInfoInternalR9HPlayablei
UNa:__ZZ23InitPlayerLoopCallbacksvEN43PostLateUpdatePlayerSendFrameCompletestruct7ForwardEv
kta:__ZN26VertexDeclarationCacheGLES24DestroyVertexDeclarationEP17VertexDeclaration
N5c:__Z15CastclassSealedP12Il2CppObjectP11Il2CppClass
UXg:_Material_HasProperty_m3175512802
g3a:__ZN16ReflectionProbes40UpdateRealtimeReflectionProbesTimeslicedEv
k1b:__ZN16ReflectionProbes15InitializeClassEv
Zxj:__ZN6il2cpp5utils5MatchENSt3__212basic_stringIcNS1_11char_traitsIcEENS1_9allocatorIcEEEEjRKS7_j
gCc:_UNITY_FT_Destroy_Class_psnames_module_class
Zoi:_MRUList_Evict_m2430323183
fEe:_ReadOnlyCollection_1_System_Collections_Generic_ICollectionU3CTU3E_Remove_m1060547576_gshared
Slj:__ZN6il2cpp2vm5Image9GetCorlibEv
nA:__ZN8Animator13BatchedFKPassERK13dynamic_arrayIP14PlayableOutputLj4EE
dlf:_RecordProtocol_ProcessChangeCipherSpec_m3233959862
X9h:_Component_GetComponent_m4225719715
E8d:_Array_Sort_TisVector4_t2243707581_m474199742_gshared
hje:_List_1_CheckIndex_m2247532995_gshared
KXe:_TextWriter_Write_m576684782
OCi:_Vector3_Max_m2105825185
Qj:_glIsVertexArray
pF:__Z100Register_UnityEngine_Experimental_Director_AnimatorControllerPlayable_INTERNAL_CALL_SetIntegerStringv
hBb:__ZNSt3__26vectorIN4core12basic_stringIcNS1_20StringStorageDefaultIcEEEE13stl_allocatorIS5_L18MemLabelIdentifier12ELi16EEEC2INS_11__wrap_iterIPS5_EEEET_SE_RKS8_PNS_9enable_ifIXaasr21__is_forward_iteratorISE_EE5valuesr16is_constructibleIS5_NS_15iterator_traitsISE_E9referenceEEE5valueEvE4typeE
gKa:__ZN25SingleBlockMemoryFileDataC2E18MemLabelIdentifierPvjb
ea:invoke_fff
yah:_Text_get_fontSize_m3105730761
qJj:b14
ukf:_TlsServerHello_Update_m1740270635
hNc:__ZN2UI6Canvas17MainThreadCleanupEv
e7g:_ScrollRect_Rebuild_m3423824761
Loe:_List_1_Find_m3862454845_gshared
Ooi:_MatchCollection_get_Item_m2609281578
WGa:__ZN7ApiGLES13CreateProgramEv
qkb:__ZN11HaloManager7AddHaloEv
htg:_UTF8Encoding__ctor_m100325490
nBa:__ZN4crnd12crn_unpackerD2Ev
bah:_StencilMaterial_ClearAll_m1372779118
ak:_emscripten_glTexImage2D
Rhg:_ObjRefSurrogate_SetObjectData_m1873902916
AKc:_tt_driver_class_pic_init
j_:__ZN18ScriptingArguments9AddStringEPKc
Mvj:_setup_header
cGj:runPostSets
lpa:__ZL23stbir__resize_arbitraryPvPKviiiS_iiiffffPfiij14stbir_datatype12stbir_filterS4_10stbir_edgeS5_16stbir_colorspace
Dke:_List_1_System_Collections_IList_Insert_m848656350_gshared
HKb:__Z18Transfer_BlittableI24GenerateTypeTreeTransferLb1E8Vector4fEvRK29SerializationCommandArgumentsR31RuntimeSerializationCommandInfo
UOe:_Int16_ToString_m3971652088_AdjustorThunk
lk:_pthread_detach
Y_i:__ZN6il2cpp2vm19SocketPollingThread7RunLoopEv
xwf:_X509ExtensionEnumerator_Reset_m3200687545
dhg:_MethodDictionary_AllocInternalProperties_m3261295876
zgc:__ZN15DirectorManager20ScheduleGraphDestroyERK14HPlayableGraph
$ra:__ZNSt3__213__stable_sortIRN10vector_mapI17ScriptingClassPtrPKN5Unity4TypeENS_4lessIS2_EENS_9allocatorINS_4pairIS2_S6_EEEEE13value_compareENS_11__wrap_iterIPSB_EEEEvT0_SJ_T_NS_15iterator_traitsISJ_E15difference_typeEPNSM_10value_typeEi
eVb:__ZN9ShaderLab25SerializedTextureProperty8TransferI24GenerateTypeTreeTransferEEvRT_
teb:__ZN15dense_hashtableINSt3__24pairIKN4core12basic_stringIcNS2_20StringStorageDefaultIcEEEEP11AssetBundleEES6_20StringHash32FunctionIS6_EN14dense_hash_mapIS6_S9_SC_NS0_8equal_toIS6_EENS0_9allocatorISA_EEE9SelectKeyESF_SH_E12resize_deltaEjj
TQj:_emscripten_glIsShader__wrapper
zaj:__ZN6il2cpp2gc19AppendOnlyGCHashMapINSt3__24pairIPK14Il2CppAssemblyP11Il2CppClassEEP24Il2CppReflectionAssembly17ReflectionMapHashIS9_ENS2_8equal_toIS9_EEEC2Ev
coc:__Z32GUIStyle_Get_Custom_PropFontSizeP12Il2CppObject
fng:_DelegatePInvokeWrapper_CallbackHandler_t362827733
duc:__Z18Transfer_BlittableI8JSONReadLb1EyEvRK29SerializationCommandArgumentsR31RuntimeSerializationCommandInfo
Ik:_emscripten_glMatrixMode
Ir:__ZN8Animator23VirtualRedirectTransferER18StreamedBinaryReadILb0EE
OTe:_NotSupportedException__ctor_m836173213
Bhg:_MethodReturnDictionary__ctor_m756139344
NQ:__ZN11UnityEngine15CloudWebService14DataDispatcher16PrepareDataBlockERNS0_16SessionContainerE
lHa:__ZN18GfxFramebufferGLES5ClearE13GfxClearFlagsRK10ColorRGBAffib
CQb:__ZL26Transfer_SimpleNativeClassI18StreamedBinaryReadILb0EE10RectOffsetLb0EEvRK29SerializationCommandArgumentsR31RuntimeSerializationCommandInfo
dCc:_UNITY_ft_destroy_default_module_classes
ihe:_List_1_CheckMatch_m1772343151_gshared
BVa:__ZL12DepthPassJobPN21GfxDeviceAsyncCommand10ArgScratchEPKNS_3ArgE
JTb:__ZNSt3__26vectorIN9ShaderLab20SerializedSubProgram16TextureParameterENS_9allocatorIS3_EEE6assignINS_11__wrap_iterIPS3_EEEENS_9enable_ifIXaasr21__is_forward_iteratorIT_EE5valuesr16is_constructibleIS3_NS_15iterator_traitsISC_E9referenceEEE5valueEvE4typeESC_SC_
mRe:_IntPtr_Equals_m1214967011_AdjustorThunk
Dne:_List_1_Add_m3591975577_gshared
VQc:__Z55Register_UnityEngine_CanvasGroup_get_ignoreParentGroupsv
s_b:__Z13RegisterClassI19LowerResBlitTextureEvv
Lm:FUNCTION_TABLE_iiiiiiiiiiii
Tjb:__ZN16GraphicsSettingsD0Ev
aOj:_pthread_mutex_init__wrapper
I1a:__ZN15LODGroupManager21CalculateLODDataArrayERK13LODParametersPK6Cameraf
n:cttz_i8
tIc:_UNITY_FT_GlyphLoader_Add
Yqh:_InternalEnumerator_1_System_Collections_IEnumerator_get_Current_m1004764375_AdjustorThunk
aLe:_DateTimeFormatInfo_get_FullDateTimePattern_m2607507656
Ukf:_HttpsClientStream_RaiseServerCertificateValidation_m3356770426
Tzd:_DelegateSerializationHolder__ctor_m3915060553
kBb:__ZN15SerializeTraitsINSt3__26vectorIN30RuntimeInitializeOnLoadManager9ClassInfoE13stl_allocatorIS3_L18MemLabelIdentifier12ELi16EEEEE8TransferI24GenerateTypeTreeTransferEEvRS7_RT_
Y8d:_Array_swap_TisUIVertex_t1204258818_TisUIVertex_t1204258818_m1163375424_gshared
El:_emscripten_glViewport
usj:__ZN6il2cpp6icalls8mscorlib6System15MonoCustomAttrs17IsDefinedInternalEP12Il2CppObjectP20Il2CppReflectionType
jvb:__ZN4Mesh21UnswizzleVertexColorsEb
Vwd:_DateTime_ToString_m2276663647_AdjustorThunk
xKc:_cff_parse_font_bbox
mB:__GLOBAL__sub_I_runtime_animation2_lump_cpp
hzb:__ZN14PlayerSettings23VirtualRedirectTransferER18StreamedBinaryReadILb0EE
SAj:__ZN6il2cpp2os5Event5ResetEv
_Ae:_ReadOnlyCollection_1_System_Collections_IList_Insert_m1130110335_gshared
Gfi:_AnimatorControllerPlayable_GetCurrentAnimatorClipInfoCount_m335090574
Vjj:__ZN6il2cpp8metadata15GenericMetadata17InflateParametersEPK13ParameterInfohPK20Il2CppGenericContextb
xQe:_Int64_System_IConvertible_ToUInt32_m850395426_AdjustorThunk
J6h:_PCMReaderCallback_Invoke_m3610389815
b$c:_HMACSHA512__ctor_m2390736870
Iu:__ZNK17AnimationPlayable27GetNextCompatibleDescendantEi
gs:__ZN8Animator20ProcessAnimationsJobEPNS_11AnimatorJobEj
QHg:_TypeBuilder_GetInterfaces_m1818658502
iKe:_NumberFormatter_AppendIntegerString_m868842252
Iaa:__Z25SetNeedToPerformRenderingb
WNg:_MonoMethod_GetPseudoCustomAttributes_m466965107
tZa:__ZNSt3__227__insertion_sort_incompleteIR23CompareReflectionProbesP31RuntimeReflectionProbeBlendInfoEEbT0_S5_T_
QVa:__ZN14qsort_internal30FindAndMovePivotToLastPositionIP15RODataDepthPassi17ROSorterDepthPassEEvT_S4_T0_T1_
ikc:__ZN20UnityWebRequestProtoI19TransportJavaScript16AtomicRefCounter14RedirectHelper14ResponseHelper15DownloadHandler13UploadHandler12HeaderHelper14AsyncOperationE35Task_FinalizeAfterDHCompleteContentEPv
HCh:_Enumerator_System_Collections_IDictionaryEnumerator_get_Value_m3005608231_gshared
X2g:_MaskUtilities_NotifyStencilStateChanged_m1527407683
P1a:__ZN12CullingGroup10SendEventsEPK17CullingGroupEventj
T4e:_DSAManaged_GenerateKeyPair_m2711647034
P7a:__ZN13sorted_vectorINSt3__24pairIN4core12basic_stringIcNS2_20StringStorageDefaultIcEEEES6_EEN10vector_mapIS6_S6_27compare_tstring_insensitiveIS6_E13stl_allocatorIS7_L18MemLabelIdentifier37ELi16EEE13value_compareESD_E9erase_oneIS6_EEjRKT_
Wrb:__ZThn32_NK8Renderer8GetLayerEv
m3d:_Array_InternalArray__ICollection_Add_TisResourceCacheItem_t333236149_m1151081240_gshared
Tkg:_SoapServices_GetXmlTypeForInteropType_m3821579913
SOj:_emscripten_glTexParameterfv__wrapper
dsi:_CaptureAssertion_IsComplex_m1433259302
H3i:_il2cpp_method_get_param_count
YYb:__ZN10systeminfo19ISOToSystemLanguageERN4core12basic_stringIcNS0_20StringStorageDefaultIcEEEE
s9i:__ZNK15dense_hashtableINSt3__24pairIK10KeyWrapperINS1_IPK12PropertyInfoP11Il2CppClassEEEjEES9_17ReflectionMapHashIS8_EN14dense_hash_mapIS9_jSD_NS9_14EqualsComparerINS0_8equal_toIS8_EEEENS0_9allocatorISB_EEE9SelectKeyESI_SK_E3endEv
jBj:__ZN6il2cpp8metadata26Il2CppGenericMethodCompare6EqualsEPK19Il2CppGenericMethodS4_
Fca:__ZNSt3__26vectorIP10MemoryPool13stl_allocatorIS2_L18MemLabelIdentifier72ELi16EEE21__push_back_slow_pathIKS2_EEvRT_
PGc:_ps_dimension_done
ZKd:_LayoutRebuilder_MarkLayoutForRebuild_m640589351
ZMc:__Z46Register_UnityEngine_TextGenerator_Dispose_cppv
GId:_PointerEventData_get_pressEventCamera_m724559964
a5c:_String_IndexOfUnchecked_m3356721554
Jqb:__ZN16LightmapSettings8TransferI14SafeBinaryReadEEvRT_
zCa:__ZN17BufferManagerGLES13ReleaseBufferEP14DataBufferGLES
buc:__Z18Transfer_BlittableI8JSONReadLb1EjEvRK29SerializationCommandArgumentsR31RuntimeSerializationCommandInfo
lvi:_PKCS12_Decrypt_m1557069392
Qah:_VertexHelper_AddUIVertexQuad_m280792808
_rf:_WebHeaderCollection_ToString_m1246460752
wsh:_InternalEnumerator_1_System_Collections_IEnumerator_get_Current_m2842514953_AdjustorThunk
phi:_Font_get_fontSize_m1732593415
$o:stackSave
jHc:_ps_dimension_end
zfc:__Z41Register_UnityEngine_Mesh_Internal_Createv
Tjj:__ZNK15dense_hashtableI10KeyWrapperIP18Il2CppGenericClassES3_N6il2cpp8metadata22Il2CppGenericClassHashEN14dense_hash_setIS3_S6_NS3_14EqualsComparerINS5_25Il2CppGenericClassCompareEEENSt3__29allocatorIS3_EEE8IdentityESA_SD_E12test_deletedERK30dense_hashtable_const_iteratorIS3_S3_S6_SF_SA_SD_E
nOi:__ZN6il2cpp2vm5Class14GetNestedTypesEP11Il2CppClassPPv
s$c:_MACTripleDES_Initialize_m1318099802
Ydf:_MD5SHA1_VerifySignature_m507888141
Xgd:_Byte_System_IConvertible_ToChar_m4188836679
KKe:_NumberFormatter_InitDecHexDigits_m2036076025
kch:_Enumerator_get_CurrentKey_m3839846791_AdjustorThunk
Ouc:__ZN8JSONRead21TransferSTLStyleArrayI13dynamic_arrayIaLj1EEEEvRT_18MemLabelIdentifier17TransferMetaFlags
R3a:__ZN6Camera9SetAspectEf
NZc:__ZN19TransportJavaScript9DoRequestERKN4core12basic_stringIcNS0_20StringStorageDefaultIcEEEEm21UnityWebRequestMethodS6_bbP12HeaderHelperP13UploadHandlerP15DownloadHandlerP14ResponseHelperP15UnityWebRequest
wa:invoke_viiffiii
Eag:__ZL79TouchInputModule_t2561058385_CustomAttributesCacheGenerator_m_ForceModuleActiveP21CustomAttributesCache
iQj:_emscripten_glBindVertexArray__wrapper
Khh:_Dictionary_2_InitArrays_m435313205_gshared
M4a:__ZN9Transform37InitializeTransformHierarchyRecursiveER18TransformHierarchyRii
H$b:__Z34DefaultPrepareDispatchBoundsUpdateR13RendererScene18MemLabelIdentifier
OQd:_Graphic_get_useLegacyMeshGeneration_m1366444625
Acg:__ZL65InputField_t1631627530_CustomAttributesCacheGenerator_m_InputTypeP21CustomAttributesCache
g3e:_ModulusRing_Pow_m1137250399
kuf:_X509Chain_Build_m2341271288
NRa:__ZN17MeshRenderingData4InitEP4MeshS1_iP15SharedGfxBufferS3_
End:_Hashtable__cctor_m2952659675
lwf:_X509ChainStatus__ctor_m3628359961_AdjustorThunk
G6d:_Array_InternalArray__set_Item_TisUICharInfo_t3056636800_m1953167516_gshared
q5c:_Evidence_get_HostEvidenceList_m2095478124
Fic:__Z57Register_UnityEngine_Transform_INTERNAL_set_localPositionv
bhf:_Context_Clear_m4000337070
fxa:__ZN13GfxDeviceGLES26SetRandomWriteTargetBufferEi15ComputeBufferID
Xyf:_IntervalCollection_Normalize_m538796191
eqd:_Console_SetEncodings_m342145566
VAi:_TrackedReference_op_Equality_m3491334086
FQd:_FontUpdateTracker_UntrackText_m3827316510
qeb:__ZN18AssetBundleManager19RegisterAssetBundleEP11AssetBundle
Sae:_Array_InternalArray__get_Item_TisSingle_t2076509932_m1495809753_gshared
y6d:_Array_InternalArray__set_Item_TisAnimatorClipInfo_t3905751349_m978873279_gshared
j8b:__ZNK11ICallString6ToUTF8Ev
bsi:_CaptureAssertion_get_Alternate_m2729005740
Rtj:_GC_number_stack_black_listed
RVa:__ZNSt3__211__sift_downIR17ROSorterDepthPassP15RODataDepthPassEEvT0_S5_T_NS_15iterator_traitsIS5_E15difference_typeES5_
DEg:_Default_SelectMethod_m3081239996
jha:__ZN18UnityPropertySheet11UnityTexEnvC2Ev
ss:__ZN8Animator17ApplyOnAnimatorIKEiRNS_11AnimatorJobE
$4:__ZN12FileAccessor4ReadEyyPvPy
Lfa:__ZN13dynamic_arrayI16ShaderKeywordSetLj4EE6insertEPS0_PKS0_S4_
fhg:_MethodDictionary_IsOverridenKey_m3922224650
Tod:_SyncHashtable_Contains_m3042906549
tqe:_List_1_System_Collections_IList_set_Item_m4016273526_gshared
Cwf:_X509KeyUsageExtension_CopyFrom_m931530012
q3a:__ZN13RenderTexture9SetHeightEi
Q9h:_Color32__ctor_m1932627809_AdjustorThunk
dRc:__Z36CanvasRenderer_CUSTOM_SetPopMaterialP12Il2CppObjectS0_i
L4g:_RectMask2D_PerformClipping_m1232012832
Uhj:__ZN6il2cpp6icalls8mscorlib6System2IO6MonoIO17GetFileAttributesEP12Il2CppStringPi
Tch:_Transform_1_Invoke_m4020530914_gshared
vFc:_tt_cmap8_char_index
F_:__Z24scripting_class_get_name17ScriptingClassPtr
U6:__ZN13RuntimeStaticI15GUIEventManagerLb0EE13StaticDestroyEPv
pEa:__ZN7ApiGLES14TextureSamplerEjj17TextureFilterMode15TextureWrapModeifb18ShadowSamplingModeN2gl17TextureSrgbDecodeE
Y4b:__ZN15DirectorManager18ScheduleGraphStartERK14HPlayableGraph
R3h:_CustomEventData_AddUInt16_m3349298376
wHb:__Z29Transfer_Blittable_ArrayFieldI14SafeBinaryReadjEvRT_R9ArrayInfoRK23StaticTransferFieldInfo
a8h:_Camera_FireOnPostRender_m94860165
ge:_emscripten_set_keydown_callback
ood:_Enumerator_get_Value_m3684748062
xib:__ZN19StreamedBinaryWriteILb0EE21TransferSTLStyleArrayINSt3__26vectorI17SortingLayerEntryNS2_9allocatorIS4_EEEEEEvRT_17TransferMetaFlags
yzg:_UInt32_Parse_m3371984903
h5:__ZN12FileAccessorC2Ev
L5a:__ZN9Transform35SetLocalPositionWithoutNotificationERKN4math7_float3E
Rpi:_PatternLinkStack_GetCurrent_m2994645935
wgi:_AnimatorControllerPlayable_PlayInFixedTime_m2629510873
hhg:_MethodDictionary_set_Item_m3475146889
ebh:_Toggle_PlayEffect_m3950629415
__d:_SetPropertyUtility_SetStruct_TisColorBlock_t2652774230_m2085520896_gshared
PEb:__Z39WriteQueueForTransferSignatureIntoCacheRK31TransferFunctionScriptingTraitsRK24TransferRequestSignature17ScriptingClassPtrR23CachedSerializationDataRb
Jna:__ZN13RenderManager18UpdateAllRenderersEv
uUc:__ZN22BaseUnityConnectClient30OnEnteringStatePausedOrStoppedEv
RWi:__ZN13dynamic_arrayIPK10Il2CppTypeLj4EE6assignEPKS2_S5_
b9i:__ZN15dense_hashtableINSt3__24pairIK10KeyWrapperINS1_IPK12PropertyInfoP11Il2CppClassEEEjEES9_17ReflectionMapHashIS8_EN14dense_hash_mapIS9_jSD_NS9_14EqualsComparerINS0_8equal_toIS8_EEEENS0_9allocatorISB_EEE9SelectKeyESI_SK_E12resize_deltaEjj
Hx:__ZN7mecanim5human12HumanPoseAddERNS0_9HumanPoseERKS1_S4_
j5h:_Animator_ResetTrigger_m865269317
exe:_Collection_1_IsFixedSize_m218241296_gshared
G5a:__Z24MergeTransformComponentsR9TransformS0_b
W6h:_DelegatePInvokeWrapper_AudioConfigurationChangeHandler_t3743753033
xVe:_MonoIO_get_PathSeparator_m2635828107
ryh:_InternalEnumerator_1_get_Current_m889125315_gshared
F_e:_MonoType_get_Name_m865859211
iEd:_CultureInfo__cctor_m2290268677
N8c:_String_Trim_m3982520224
$jg:_RemotingConfiguration__cctor_m2129988840
vve:_Collection_1_Insert_m44548038_gshared
wsj:__ZN6il2cpp2vm13ComObjectBase19GetRuntimeClassNameEPP15Il2CppHString__
Oj:_emscripten_glVertexAttribPointer
Rla:__ZN14PreloadManager26UpdatePreloadingSingleStepENS_21UpdatePreloadingFlagsEi
NXg:_Material__ctor_m1440882780
X2c:_SHA512Managed_Initialize_m891287980
VTh:__Z82RuntimeInvoker_Boolean_t3825574718_Il2CppObject_TextGenerationSettings_t2543476768PK10MethodInfoPvPS2_
Qmb:__ZN26ProbeSetTetrahedralization8TransferI24GenerateTypeTreeTransferEEvRT_
E5c:_SecurityException__ctor_m1484114982
vxi:_X509Crl_GetHashName_m183504634
Kdd:_Array_GetValue_m1507415734
Pgc:__Z57Register_UnityEngine_RectTransform_INTERNAL_set_anchorMinv
yJe:_Object_MemberwiseClone_m2655589444
nja:__ZN6prcoreL25inner_stretch_i8_bilinearEPKNS_9InnerInfoE
jS:__ZN11UnityEngine15CloudWebService13WWWRestClient17GetResponseStatusEv
dOg:_MonoMethod_get_IsGenericMethod_m4276550811
edh:_Transform_1_BeginInvoke_m3826027984_gshared
hR:__ZN11UnityEngine15CloudWebService16SessionContainer24GetSessionHeaderJsonDataERKN4core12basic_stringIcNS2_20StringStorageDefaultIcEEEERNS2_13StringBuilderE
zsd:_Decimal_op_Implicit_m2149927308
H6:__ZN13RuntimeStaticI21AssetReferenceStorageLb0EE13StaticDestroyEPv
Foj:__ZN6il2cpp6icalls8mscorlib6System9AppDomain22InternalGetProcessGuidEP12Il2CppString
eIc:_cf2_builder_moveTo
p5e:_KeyPairPersistence_get_UseMachineKeyStore_m560802076
BBh:_Enumerator_System_Collections_IDictionaryEnumerator_get_Entry_m345330700_AdjustorThunk
$Kb:__Z18Transfer_BlittableI24GenerateTypeTreeTransferLb1EjEvRK29SerializationCommandArgumentsR31RuntimeSerializationCommandInfo
vdf:_MD2Managed_Padding_m410163267
dlb:__ZN11ColorRGBA328TransferI14SafeBinaryReadEEvRT_
h7h:_Bounds__ctor_m1202659404_AdjustorThunk
Lf:_emscripten_glClearDepth
Wsb:__ZN14SafeBinaryRead21TransferSTLStyleArrayINSt3__26vectorIN15QualitySettings14QualitySettingENS1_9allocatorIS4_EEEEEEvRT_17TransferMetaFlags
mTe:_File_OpenText_m4058508963
Yya:__ZN7ApiGLES13CreateTextureEjN2gl9TexFormatEiiiii
KQh:__Z54RuntimeInvoker_Double_t4078015681_Interval_t2354235237PK10MethodInfoPvPS2_
Uyb:__ZNSt3__26vectorINS_4pairIPKN5Unity4TypeE7Hash128EENS_9allocatorIS7_EEE8__appendEj
dlg:_WellKnownClientTypeEntry__ctor_m670594074
udj:__ZN15dense_hashtableINSt3__24pairIK10KeyWrapperIP11Il2CppClassES4_EES5_N6il2cpp8metadata16SZArrayClassHashEN14dense_hash_mapIS5_S4_SA_NS5_14EqualsComparerINS9_19SZArrayClassCompareEEENS0_9allocatorIS7_EEE9SelectKeyESE_SG_EC2ERKSJ_j
Rvd:_DateTime_System_IConvertible_ToSingle_m3927769066_AdjustorThunk
JJc:_cff_font_load
alf:_RecordProtocol_SendRecord_m2977889250
Pac:__Z13IsPathCreatedRKN4core12basic_stringIcNS_20StringStorageDefaultIcEEEE
rpa:__ZL22stbir__encode_scanlineP11stbir__infoiPvPfiii
Xxc:__ZN20QuadTreeNodeRenderer13StaticDestroyEPv
x_d:_Array_InternalArray__ICollection_Remove_TisUInt32_t2149682021_m4198326168_gshared
t$b:__ZN9Transform12CleanupClassEv
qxj:__ZN6il2cpp6icalls8mscorlib6System9Threading16NativeEventCalls19CloseEvent_internalE12Il2CppIntPtr
Et:__ZN11UnityEngine9Animation33SetGenericTransformPropertyValuesERKNS0_30AnimatorGenericBindingConstantERKN7mecanim10ValueArrayEP9Transformb
$gf:_ClientContext_set_ClientHelloProtocol_m2246603449
sBc:_UNITY_FT_Set_Pixel_Sizes
bXd:_U3CMouseDragOutsideRectU3Ec__Iterator1_MoveNext_m2845491958
vUb:__ZNSt3__26vectorIN9ShaderLab19SerializedSubShaderENS_9allocatorIS2_EEE26__swap_out_circular_bufferERNS_14__split_bufferIS2_RS4_EE
W1i:_AnalyticsTracker_TriggerEvent_m1494303835
QJd:_StandaloneInputModule_IsModuleSupported_m623598506
yej:__ZN6il2cpp2vmL24thread_cleanup_on_cancelEPv
hpg:_SByte_ToString_m4105923225_AdjustorThunk
_gb:_LZ4_compress_generic
mEd:_CultureInfo_ConstructCurrentUICulture_m3363349599
Ptb:__ZN13dynamic_arrayI7SubMeshLj4EE18resize_initializedEjRKS0_12ResizePolicy
afg:__ZL75CanvasScaler_t2574720772_CustomAttributesCacheGenerator_m_FallbackScreenDPIP21CustomAttributesCache
c_e:_MonoType_GetEvent_m4160342003
v4g:_RawImage_set_texture_m2400157626
rLi:_PrimeHelper_ToPrime_m1606935350_gshared
qlb:__Z30ProcessDynamicBatchGeometryJobP25DynamicVBOGeometryJobDataj
zWa:__ZNSt3__27__sort4IRNS_6__lessI11CulledLightS2_EEPS2_EEjT0_S6_S6_S6_T_
D4i:__ZN6il2cpp2vm14TypeNameParser26ParseArrayModifierOptionalEv
C0e:_MSCompatUnicodeTable_Level3_m260824928
WZ:__Z26scripting_object_get_class18ScriptingObjectPtr
X_b:__ZNK28MonoBehaviourPropertyBinding15GenerateBindingERKN4core12basic_stringIcNS0_20StringStorageDefaultIcEEEEbRN11UnityEngine9Animation14GenericBindingE
KVg:_GUIStyle_CalcMinMaxWidth_m2027503105
OOe:_Int32_FindExponent_m3187554672
B5e:_KeyPairPersistence_Load_m1355205585
QPe:_Int32_ToString_m2960866144_AdjustorThunk
IFi:_Predicate_1_Invoke_m3539717340_gshared
KLi:_HashSet_1_Contains_m3626542335_gshared
J7c:_Single_CompareTo_m2081476257_AdjustorThunk
X_h:__Z57RuntimeInvoker_Int32_t2071877448_RaycastHit2D_t4063908774PK10MethodInfoPvPS2_
Uqj:__ZN6il2cpp6icalls8mscorlib6System11Environment15internalGetHomeEv
ucb:__ZNK5Unity9Component7GetNameEv
Qmg:__ZN21InterfaceFuncInvoker4IP12Il2CppObjectS1_P28SerializationInfo_t22898743028StreamingContext_t1417235061S1_E6InvokeEjP11Il2CppClassS1_S1_S3_S4_S1_
ZZi:_ObjectPool_1_Get_m3724675538_gshared
NQa:_UNITY_png_set_error_fn
pt:__ZN7mecanim8skeleton26SkeletonPoseComputeGlobalQEPKNS0_8SkeletonEPKNS0_13SkeletonPoseTIN4math4trsXEEEPS7_ii
Nvc:__ZN8JSONRead21TransferSTLStyleArrayI13dynamic_arrayIfLj4EEEEvRT_18MemLabelIdentifier17TransferMetaFlags
_ke:_List_1_GetEnumerator_m2672519407_gshared
Qs:__ZN9BlobWrite8TransferI22OffsetPtrArrayTransferIiEEEvRT_PKc17TransferMetaFlags
n0e:_ContractionComparer_Compare_m314873025
wtj:__ZN6il2cpp6icalls8mscorlib6System7Runtime15InteropServices8GCHandle15GetTargetHandleEP12Il2CppObjectii
wWg:_GUIUtility_EndGUIFromException_m2091524531
gQe:_Int64_System_IConvertible_ToDouble_m638786774
$J:__ZN4FMOD6System7releaseEv
L4:__Z18PathToAbsolutePathRKN4core12basic_stringIcNS_20StringStorageDefaultIcEEEE
mce:_Enumerator_MoveNext_m3078170540_AdjustorThunk
Csb:__ZNK8Renderer26GetTypeInfoVirtualInternalEv
K9h:_Color_Lerp_m3323752807
tfc:__Z22Mesh_CUSTOM_HasChannelP12Il2CppObject30InternalScriptingShaderChannel
h5b:__ZN15DirectorManager17AcquireOutputNodeEv
Jw:__ZN8Playable11SetDurationEd
oGa:__ZN16GeometryJobTasks20ScheduleGeometryJobsER9GfxDevicePFvP15GeometryJobDataEPK22GeometryJobInstructionjb
oVg:_GUIUtility_Internal_GetHotControl_m2510727642
aI:__ZN12AudioManager29ShutdownReinitializeAndReloadEv
Xui:_NetscapeCertTypeExtension_Decode_m2210025005
r1g:_RectTransform_GetLocalCorners_m1836626405
mlg:_BaseFixupRecord_DoFixup_m1821597450
oNi:__ZN15dense_hashtableINSt3__24pairIK10KeyWrapperIPK22Il2CppGenericParameterEP11Il2CppClassEES6_N6il2cpp5utils11PointerHashIS4_EEN14dense_hash_mapIS6_S9_SE_NS6_14EqualsComparerINS0_8equal_toIS5_EEEENS0_9allocatorISA_EEE9SelectKeyESJ_SL_E6insertERKSA_
qTe:_FileLoadException__ctor_m1356374414
Hza:__ZN14DataBufferGLES16RecreateWithDataEjPKv
nac:__Z29GetGlobalAllowNameConversionsv
E6a:__ZN8Material8SetColorEN9ShaderLab16FastPropertyNameERK10ColorRGBAf
nMg:_Module_GetCustomAttributes_m3581287913
UL:__ZN11AudioSource23VirtualRedirectTransferER18StreamedBinaryReadILb0EE
qd:___syscall91
M6:__ZN21AssetReferenceStorageC2Ev
Cyc:__ZNSt3__26vectorIN4core12basic_stringIcNS1_20StringStorageDefaultIcEEEE13stl_allocatorIS5_L18MemLabelIdentifier34ELi16EEEC2INS_11__wrap_iterIPS5_EEEET_SE_RKS8_PNS_9enable_ifIXaasr21__is_forward_iteratorISE_EE5valuesr16is_constructibleIS5_NS_15iterator_traitsISE_E9referenceEEE5valueEvE4typeE
J_:__ZL41AssemblyNameMatchesWithOrWithoutExtensionPKcS0_
YDa:__ZN14GfxContextGLES43AddRenderSurfaceToDeferredFBOInvalidateListEPK17RenderSurfaceGLES
wfj:__ZN6il2cpp6icalls8mscorlib6System9Threading6Thread15Thread_internalEP12Il2CppThreadP14Il2CppDelegate
Vea:__ZN11NamedObject23VirtualRedirectTransferER14SafeBinaryRead
gBc:__ZNSt3__26vectorIN20TextRenderingPrivate8FontImpl13CharacterInfoE13stl_allocatorIS3_L18MemLabelIdentifier1ELi16EEE6insertENS_11__wrap_iterIPKS3_EERS9_
$la:__ZN23PreloadManagerOperation6IsDoneEv
g0i:__ZN6il2cpp2vm7Runtime15InvokeWithThrowEPK10MethodInfoPvPS5_
g9e:_X509Certificate_get_RawData_m3000055075
Q5b:__Z33GetHasChangedDeprecatedSystemMaskv
Xnj:__ZN6il2cpp5utils11StringUtils11Utf16ToUtf8ERKNSt3__212basic_stringIDsNS2_11char_traitsIDsEENS2_9allocatorIDsEEEE
FSe:_MonoIO_GetException_m2577367044
pCh:_Enumerator_VerifyState_m1165543189_AdjustorThunk
xwd:_DateTime_AddSeconds_m722082155_AdjustorThunk
Fld:_SynchronizedArrayListWrapper_CopyTo_m956887031
vXi:__ZNSt3__213__lower_boundIRN6il2cpp5utils11collections13ArrayValueMapIPK10Il2CppType17Il2CppInteropData26InteropDataToTypeConverterNS1_8metadata14Il2CppTypeLessENSA_26Il2CppTypeEqualityComparerEE22LowerBoundFindComparerEPKS8_S7_EET0_SI_SI_RKT1_T_
vqa:__ZN21LightProbeProxyVolume18HasHardwareSupportEv
ija:__ZN6prcoreL31inner_stretch_argb8888_bilinearEPKNS_9InnerInfoE
gOb:__Z18Transfer_BlittableI18StreamedBinaryReadILb1EELb1E8BitFieldEvRK29SerializationCommandArgumentsR31RuntimeSerializationCommandInfo
LDc:_UNITY_FT_Outline_Decompose
ljf:_TlsClientCertificate_get_ClientCertificate_m3062440489
g5c:_StrongNamePublicKeyBlob_ToString_m3721281223
Orh:_InternalEnumerator_1_get_Current_m198513457_AdjustorThunk
lUa:__Z20scripting_object_new17ScriptingClassPtr
ZR:__ZN11UnityEngine15CloudWebService10RestClientINS0_16WWWRestHeaderMapEED2Ev
njc:__Z58Register_UnityEngine_Object_Internal_CloneSingleWithParentv
hE:__Z75AnimatorControllerPlayable_CUSTOM_INTERNAL_CALL_GetAnimatorClipInfoInternalP12Il2CppObjectR9HPlayableihS0_
Jsc:__ZN9JSONWrite8TransferI13dynamic_arrayI8BitFieldLj4EEEEvRT_PKc17TransferMetaFlags
P_a:__ZN18ShadowMapJobHeaderD0Ev
UQd:_Graphic_OnRectTransformDimensionsChange_m1610753363
wud:_Convert_ToUInt16_m3265369225
P:Math_exp
JZe:_MonoEnumInfo_get_Cache_m3551569711
Co:FUNCTION_TABLE_iiifi
Qnj:__ZN6il2cpp2os5posix13PosixAutoLockD2Ev
MZd:_Array_InternalArray__ICollection_Contains_TisVector3_t2243707580_m3625701788_gshared
Esa:__ZNSt3__26vectorINS_4pairIyP17VertexDeclarationEENS_9allocatorIS4_EEE6insertENS_11__wrap_iterIPKS4_EERS9_
THc:_cff_get_advances
t4a:__ZN13MonoBehaviour9SetScriptERK4PPtrI10MonoScriptE18ScriptingObjectPtr
rDc:_UNITY_FT_Create_Class_sfnt_module_class
hei:_AnimatorControllerPlayable_SetFloatString_m3937146789
Ryd:_Decimal_IsZero_m3557909184_AdjustorThunk
jjd:_Char_ToString_m1401375624
A$c:_MD5CryptoServiceProvider__cctor_m3309191799
HX:__ZNK10FileSystem16LastErrorMessageEv
Lkc:__ZN13ProduceHelperI18CrashReportManagerLb0EE7ProduceE18MemLabelIdentifier18ObjectCreationMode
Btj:__ZNK6il2cpp8metadata14Il2CppTypeLessclEPK10Il2CppTypeS4_
Yki:_ConfigHandler_ReadCustomProviderData_m784203316
Zde:_Enumerator_System_Collections_IEnumerator_Reset_m3052395060_gshared
zZc:__ZN22UnityWebRequestManager10InitializeEv
Ebf:_Kernel_DwordDivMod_m3728402123
xDb:__ZN13MonoBehaviour13AwakeFromLoadE17AwakeFromLoadMode
zQc:__ZZN2UI14CanvasRenderer15InitializeClassEvEN38FunctorImpl_810kCanvasHierarchyChanged4CallEPviR11MessageData
zJb:__ZL26Transfer_SimpleNativeClassI17RemapPPtrTransfer8GradientLb1EEvRK29SerializationCommandArgumentsR31RuntimeSerializationCommandInfo
c6b:__ZN12CachedWriter9InitWriteER15CacheWriterBase
K4b:__Z21UnsignedInt64ToStringy
atg:_UTF7Decoder__ctor_m549434986
k$g:_Quaternion_ToString_m2638853272
Uxh:_InternalEnumerator_1_get_Current_m1025321669_AdjustorThunk
Rfc:__Z36MonoBehaviour_CUSTOM_InvokeRepeatingP12Il2CppObjectP12Il2CppStringff
Qic:__Z66Register_UnityEngine_Transform_INTERNAL_CALL_InverseTransformPointv
Exi:_X509Crl_VerifySignature_m1390212587
nxf:_Group__ctor_m4103922028
cRa:__ZN6Camera26ClearIntermediateRenderersEj
oQa:_UNITY_png_write_pCAL
TPj:_glLinkProgram__wrapper
Pja:__ZN6prcoreL12RemapGenericI17TexFormatARGB888815TexFormatBGR888EEvPKNS_9InnerInfoE
G$c:_MD5CryptoServiceProvider_ProcessFinalBlock_m1052610785
jE:__Z79AnimatorControllerPlayable_CUSTOM_INTERNAL_CALL_GetNextAnimatorClipInfoInternalR9HPlayablei
Vld:_BitArray_Set_m2878881714
wNe:_Guid_CompareTo_m2203922782_AdjustorThunk
h8g:_Selectable_get_colors_m3501193396
tjj:__ZN6il2cpp6icalls8mscorlib6System13Globalization11CultureInfo35construct_internal_locale_from_nameEP17Il2CppCultureInfoP12Il2CppString
aFh:__Z58RuntimeInvoker_Il2CppObject_Int32_t2071877448_Il2CppObjectPK10MethodInfoPvPS2_
lLb:__ZL22Transfer_ManagedObjectI24GenerateTypeTreeTransferLb1EEvRK29SerializationCommandArgumentsR31RuntimeSerializationCommandInfo
rmi:_ContextAttribute_Equals_m53324298
F8h:_Canvas_ForceUpdateCanvases_m2446828475
Xj:_emscripten_set_main_loop_timing
RCg:_WeakReference_AllocateHandle_m1783929473
Cza:__ZN14DataBufferGLES12RecordRenderEv
Y5a:__ZN14ImageReference10FlipImageYEv
ibi:_DebugLogHandler_LogFormat_m177245518
ymc:__Z14GetDefaultSkini
zF:__ZN4FMOD3DSP9setBypassEb
Xab:__Z19NormalizeWheelInputf
UZd:_Array_InternalArray__ICollection_Remove_TisLink_t865133271_m1984184141_gshared
Ovc:__Z29Transfer_Blittable_ArrayFieldI8JSONReadhEvRT_R9ArrayInfoRK23StaticTransferFieldInfo
kYd:_LayoutRebuilder_IsDestroyed_m3442208294
m8b:__ZN11MonoManager25GetImageFromAssemblyIndexEi
CAj:__ZN6il2cpp2os20ThreadLocalValueImpl8SetValueEPv
ARa:__ZN22RenderingCommandBuffer20CleanupCommandBufferEv
src:__Z18Transfer_BlittableI9JSONWriteLb1EtEvRK29SerializationCommandArgumentsR31RuntimeSerializationCommandInfo
rTe:_FileLoadException__ctor_m918124939
nk:___syscall85
sTa:__ZNSt3__26__sortIRPFbP10GUIElementS2_EPS2_EEvT0_S7_T_
lcf:_SequentialSearchPrimeGeneratorBase_GenerateSearchBase_m2930465198
v3b:__ZN16GraphicsSettings12CleanupClassEv
SL:__ZNK11AudioSource26GetTypeInfoVirtualInternalEv
JNi:__ZN6il2cpp2vmL21SetupInterfacesLockedEP11Il2CppClassRKNS_2os12FastAutoLockE
rFb:__ZN11MonoManager23VirtualRedirectTransferER24GenerateTypeTreeTransfer
gnb:__ZN19StreamedBinaryWriteILb0EE8TransferI13dynamic_arrayI8Vector3fLj4EEEEvRT_PKc17TransferMetaFlags
iA:__ZN23AnimationPlayableOutput17SetSourcePlayableEP8Playable
Pwf:_Capture__ctor_m885749277
NUg:_GUIStyle_set_clipOffset_m3871613343
cUd:_SubmitEvent__ctor_m222860306
Ui:_emscripten_glUniformMatrix4fv
dR:__ZN11UnityEngine15CloudWebService14DataDispatcher15SetupWebRequestEv
QLh:__Z94RuntimeInvoker_Int32_t2071877448_Il2CppObject_Int32_t2071877448_Il2CppObject_Int32_t2071877448PK10MethodInfoPvPS2_
BXe:_TextWriter__cctor_m4047845042
nVc:__ZN11UnityEngine15PlatformWrapper13GetShaderCapsEv
U$a:__ZNSt3__211__sift_downIR26RenderDeferredObjectSorterP16RenderObjectDataEEvT0_S5_T_NS_15iterator_traitsIS5_E15difference_typeES5_
wUd:_InputField_CaretBlink_m3960486606
Zj:_emscripten_glGetProgramiv
$5e:_SmallXmlParser_ReadCharacters_m1966365555
gnf:_InternalAsyncResult_get_CompletedWithError_m3993955322
e4b:__ZN21FixedBehaviourManager6UpdateEv
Cac:__ZN9Transform9SetParentEPS_NS_15SetParentOptionE
ECe:_ReadOnlyCollection_1_System_Collections_IList_Add_m527174473_gshared
a0:__ZN19ShaderPropertySheet8SetFloatEN9ShaderLab16FastPropertyNameEfNS_8SetFlagsE
Bcg:__ZL68InputField_t1631627530_CustomAttributesCacheGenerator_m_AsteriskCharP21CustomAttributesCache
lna:__ZN19RuntimeSceneManager24BeginIntegrateMainThreadEP10UnityScene
pPh:__Z80RuntimeInvoker_Void_t1841601450_Il2CppObject_Int32_t2071877448_Int16_t4041245914PK10MethodInfoPvPS2_
mqj:__ZNSt3__2plIcNS_11char_traitsIcEENS_9allocatorIcEEEENS_12basic_stringIT_T0_T1_EERKS9_S6_
sYe:_LocalDataStoreSlot__cctor_m1192669356
bUb:__ZN9ShaderLab20SerializedSubProgramaSERKS0_
xGj:_roundf
yad:_String_CreateString_m2556700934
vib:__ZN18StreamedBinaryReadILb0EE21TransferSTLStyleArrayINSt3__26vectorI17SortingLayerEntryNS2_9allocatorIS4_EEEEEEvRT_17TransferMetaFlags
Rr:__ZN8Animator15SetPrepareStageEv
C9g:_Slider_get_axis_m162140813
KNi:__ZN6il2cpp2vmL24SetupTypeHierarchyLockedEP11Il2CppClassRKNS_2os12FastAutoLockE
cbb:__ZL11TextHandleriPK23EmscriptenKeyboardEventPv
dZa:__Z20CalculateLightMatrixRK15SharedLightDataP10Matrix4x4f
_7g:_ScrollRect_SetLayoutHorizontal_m3486408020
GAc:_destroy_face
Mdi:_AnimationOffsetPlayable_INTERNAL_CALL_GetPosition_m602003518
gMj:_glBlendEquationSeparate__wrapper
Lxj:__ZN6il2cpp6icalls8mscorlib6System8Security12Cryptography24RNGCryptoServiceProvider13RngInitializeEP11Il2CppArray
Rqf:_IPAddress__cctor_m3624830012
bM:__ZN20SoundChannelInstance7setMuteEb
O$f:__ZL115AnimatorStateInfo_t2577870592_CustomAttributesCacheGenerator_AnimatorStateInfo_t2577870592____nameHash_PropertyInfoP21CustomAttributesCache
Jsf:_AsnEncodedData_EnhancedKeyUsageExtension_m1452131166
bPb:__Z19TransferField_ArrayI18StreamedBinaryReadILb1EE27Converter_SimpleNativeClassI17AnimationCurveTplIfEEEvRK23StaticTransferFieldInfoR31RuntimeSerializationCommandInfoRT0_
kAa:__ZN18GfxFramebufferGLES22MakeCurrentFramebufferENS_7BuiltinE
Vxf:_Interpreter_Close_m1500459069
rk:_JS_SystemInfo_GetWidth
Opa:__ZN12CachedReader4ReadEPvj
nIc:_cf2_blues_init
Srh:_InternalEnumerator_1_System_Collections_IEnumerator_get_Current_m3600601141_gshared
l2c:_SHA1Internal_HashFinal_m3188468925
YCi:_Vector3_op_Inequality_m799191452
Qid:_Char_GetHashCode_m2343577184
vYa:__Z24CalculateLightShadowFadeRK6CamerafffR8Vector4f
z1:__ZN19RuntimeSceneManagerD2Ev
cki:_ChannelData_get_CustomProperties_m1470957369
hja:__ZN6prcore17GetIntegerBlitterE13TextureFormatS0_N14ImageReference8BlitModeE
V7h:_Camera_INTERNAL_CALL_ScreenPointToRay_m2752248646
q8i:__ZN6il2cpp2gc19AppendOnlyGCHashMapINSt3__24pairIPK11Il2CppImageP11Il2CppClassEEP22Il2CppReflectionModule17ReflectionMapHashIS9_ENS2_8equal_toIS9_EEE11TryGetValueERKS9_PSB_
RCh:_Enumerator_VerifyState_m3173176371_AdjustorThunk
Vpf:_TypeConverterAttribute__cctor_m506796812
mac:__ZN9BlobWrite14ReduceCopyImplERK14ReduceCopyDataj
jAh:_Comparer_1_System_Collections_IComparer_Compare_m1790257529_gshared
XKj:_glShaderSource__wrapper
EKa:__ZN25MultiBlocksMemoryFileData17AdjustBlocksCountEj
agj:__ZNSt3__214__split_bufferIN6il2cpp2vm22EmbeddedResourceRecordERNS_9allocatorIS3_EEED2Ev
ghf:_TlsClientHello__ctor_m1699671541
Lyc:__ZN13TextRendering4Font8TransferI24GenerateTypeTreeTransferEEvRT_
Mli:_Context_NotifyGlobalDynamicSinks_m2916447645
lNa:__ZN23ManagedAttributeManager15InitializeClassEv
Pcc:__Z27CullingGroup_CUSTOM_DisposeP12Il2CppObject
pfj:__ZN6il2cpp6icalls8mscorlib6SystemL23CheckWideningConversionEjjj
XRa:__ZN13ComputeShader15SetTextureParamEjRKN9ShaderLab16FastPropertyNameE9TextureID16TextureDimension
T8g:_Shadow_set_effectDistance_m1951993364
IRg:_GUILayoutEntry_ApplyStyleSettings_m371609721
Shh:_Dictionary_2_ContainsKey_m416495915_gshared
xm:_glStencilMask
Hpj:__ZN6il2cpp2os10ThreadImpl16GetCurrentThreadEv
And:_Hashtable__ctor_m2337481811
vCh:_Enumerator_System_Collections_IEnumerator_get_Current_m2010873149_gshared
Beg:__ZL74SpriteState_t1353336012_CustomAttributesCacheGenerator_m_HighlightedSpriteP21CustomAttributesCache
Ijg:_RealProxy__ctor_m2505535530
cvj:_GC_push_conditional_with_exclusions
iAg:_UInt32_System_IConvertible_ToUInt16_m2798641702_AdjustorThunk
Jlg:_BinaryFormatter_get_DefaultSurrogateSelector_m219714691
IOg:_MonoProperty_GetOptionalCustomModifiers_m3827844355
ADj:_strrchr
i1e:_SimpleCollator_GetSortKey_m2188419329
tfg:__ZL56LayoutElement_t2808691390_CustomAttributesCacheGeneratorP21CustomAttributesCache
Vnb:__ZN14RenderSettings27UpdateIndirectSpecularColorEv
Ezb:__ZN14PlayerSettings8TransferI18StreamedBinaryReadILb0EEEEvRT_
c1i:__ZN6il2cpp6icalls8mscorlib6System8MonoType16GetMethodsByNameEP20Il2CppReflectionTypeP12Il2CppStringibS5_
Pii:_GCHandle__ctor_m2952050298
$2g:_Mask_IsRaycastLocationValid_m62488857
x$:__ZN17DirectorFrameTime10SampleTimeEfff
Jsa:__ZNSt3__27__sort3IRNS_4lessIN22BuiltinResourceManager8ResourceEEEPS3_EEjT0_S7_S7_T_
xzh:_DefaultComparer_Compare_m3472472212_gshared
RTe:_MonoIO_GetLength_m2812344043
XGc:_ps_hints_t2mask
aF:__Z110Register_UnityEngine_Experimental_Director_AnimatorControllerPlayable_INTERNAL_CALL_GetParametersArrayInternalv
vwb:__ZN10BlendShape8TransferI19StreamedBinaryWriteILb0EEEEvRT_
Pgi:_PlayableHandle_INTERNAL_CALL_IsValidInternal_m2792360706
CBi:_Transform_IsChildOf_m10844547
jRe:__Z21il2cpp_codegen_sizeofP11Il2CppClass
fba:__Z19GetTimeSinceStartupv
R6c:_SecurityFrame_get_Assembly_m2816566490
mMc:_TT_Load_Composite_Glyph
HDi:_NetFxCoreExtensions_CreateDelegate_m2492743074
NDh:__Z51RuntimeInvoker_Boolean_t3825574718_Int64_t909078037PK10MethodInfoPvPS2_
jed:_Array_Sort_m2994254654
dqe:_List_1__ctor_m593058937_gshared
iMi:_Hacker_terminalLine_m3008669431
RWa:__ZN29RenderNodeQueuePrepareContextC2Ev
ON:__ZN10SampleClipC2E18MemLabelIdentifier18ObjectCreationMode
$Ub:__ZN9ShaderLab20SerializedSubProgram16TextureParameter8TransferI24GenerateTypeTreeTransferEEvRT_
ozj:__ZN6il2cpp2os11MutexHandle4WaitEj
h9b:__ZL34GetComponentsImplementationRecurseILb1ELi1ELi1EEbR10GameObjectbRK17CompareParametersRK39GetComponentsImplementation_ReturnValue
nzj:__ZN6il2cpp2os11MutexHandle4WaitEv
Fjd:_ArrayList_set_Capacity_m592558035
Yka:__ZN6prcoreL17RemapGenericFloatI15TexFormatRGHalf18TexFormatARGBFloatEEvPKNS_9InnerInfoE
Vjc:__ZN18CrashReportManager23VirtualRedirectTransferER14SafeBinaryRead
TQa:__ZN13RenderManager23AddRemoveCamerasDelayedEv
qQa:_UNITY_png_write_pHYs
m_d:_Array_InternalArray__ICollection_Remove_TisILTokenInfo_t149559338_m1523907845_gshared
kTc:__ZN11UnityEngine9Analytics15AnalyticsConfigC2Ev
dLi:_Enumerator_CheckState_m1761755727_gshared
Tnd:_Hashtable_Rehash_m2877670513
p3a:__ZN13RenderTexture8SetWidthEi
uWd:_InputField_Insert_m1593238693
oMc:_UNITY_FT_GlyphLoader_CheckSubGlyphs
h$i:__ZN6il2cpp2vm21ThreadPoolCompartment20SpawnNewWorkerThreadEv
h3d:_Array_InternalArray__ICollection_Add_TisCustomAttributeTypedArgument_t1498197914_m3260005285_gshared
ZYa:__Z25SetupObjectBakedOcclusionbRK15SharedLightDataRK26SharedLightmapSettingsDataRK15LightmapIndicesR17ShaderPassContext
Iod:_SyncHashtable_GetObjectData_m3774367030
zNe:_Guid_GetHashCode_m1401300871
ipc:__Z42Register_UnityEngine_GUIStyle_set_fontSizev
bs:__ZN8Animator9BuildJobsERK13dynamic_arrayIP14PlayableOutputLj4EERS0_INS_11AnimatorJobELj4EEPS7_bb
B$:__ZN9ShaderLab16FastPropertyName4InitEPKc
o_b:__Z13RegisterClassIN2UI13RectTransformEEvv
G0e:_MSCompatUnicodeTable_ToWidthCompat_m2299599532
LMi:__ZN13Il2CppHashMapIPK22Il2CppGenericParameterP11Il2CppClassN6il2cpp5utils11PointerHashIS1_EENSt3__28equal_toIS2_EENS9_9allocatorINS9_4pairIK10KeyWrapperIS2_ES4_EEEEEC2EjRKS8_RKSB_
s$e:_NumberFormatter_get_IsFloatingSource_m2830957202
Ytb:__ZN10VertexData8TransferI17RemapPPtrTransferEEvRT_
Hca:__ZN13RenderTexture9SetMipMapEb
_6g:_ScrollRect_set_verticalScrollbarSpacing_m2356851539
JZ:__Z18GetDirectorManagerv
$$e:_OperatingSystem_GetObjectData_m2276196875
Uhb:__ZNK10TagManager26GetTypeInfoVirtualInternalEv
mCb:__ZN21ArchiveStorageCreator13AppendRawNodeERKN4core12basic_stringIcNS0_20StringStorageDefaultIcEEEEN20ArchiveStorageHeader9NodeFlagsEyy
oic:__Z38Transform_CUSTOM_INTERNAL_get_rotationP12Il2CppObjectP11Quaternionf
l5i:__ZNSt3__26vectorIN6il2cpp2vm17TypeNameParseInfoENS_9allocatorIS3_EEE8allocateEj
cgi:_AnimatorControllerPlayable_CrossFadeInFixedTime_m1082259778
f8i:__ZNK15dense_hashtableINSt3__24pairIK10KeyWrapperINS1_IPK10MethodInfoP11Il2CppClassEEEjEES9_17ReflectionMapHashIS8_EN14dense_hash_mapIS9_jSD_NS9_14EqualsComparerINS0_8equal_toIS8_EEEENS0_9allocatorISB_EEE9SelectKeyESI_SK_E5beginEv
yCa:__ZN7ApiGLES19UploadBufferSubDataEjN2gl12BufferTargetEllPKv
l8c:_String_System_IConvertible_ToInt32_m1927223638
H_d:_Array_InternalArray__ICollection_Remove_TisContentType_t1028629049_m3085152315_gshared
u8h:_Canvas_set_sortingOrder_m2922819993
nad:_ASCIIEncoding__ctor_m4127831672
cHb:__Z19TransferField_ArrayI14SafeBinaryRead27Converter_SimpleNativeClassI8GUIStyleEEvRK23StaticTransferFieldInfoR31RuntimeSerializationCommandInfoRT0_
jtg:_UTF8Encoding__ctor_m3336862259
Wxj:__ZN6il2cpp5utils10MemoryPoolC2Ej
cvf:_X509Chain_GetAuthorityKeyIdentifier_m2607407678
Sxj:__ZN6il2cpp5utils10MemoryPoolC2Ev
vnb:__ZN14RenderSettings5ResetEv
wgj:__ZNSt3__212basic_stringIDsNS_11char_traitsIDsEENS_9allocatorIDsEEE6appendEPKDsj
PHh:__Z117RuntimeInvoker_Int32_t2071877448_Il2CppObject_Il2CppObject_Int32_t2071877448_Int32_t2071877448_BooleanU26_t3168250738PK10MethodInfoPvPS2_
Ywh:_InternalEnumerator_1_get_Current_m3724267862_AdjustorThunk
w9d:_Dictionary_2_Do_ICollectionCopyTo_TisKeyValuePair_2_t3716250094_m1740410536_gshared
BQg:_GUI_CallWindowDelegate_m2039577415
rpj:__ZN6il2cpp2os10ThreadImplD2Ev
f7e:_RSAManaged_Dispose_m3018788098
iqc:__ZN8Gradient8TransferI9JSONWriteEEvRT_
Mrd:_DateTime_ToUniversalTime_m1815024752
Cbb:__ZNK12TLSAllocatorI14StackAllocatorE22GetAllocatedMemorySizeEv
$Gf:__ZL54AssemblyName_t894705941_CustomAttributesCacheGeneratorP21CustomAttributesCache
Jud:_Convert_ToUInt32_m3394039268
y5a:__ZN17RemapPPtrTransfer12PushMetaFlagE17TransferMetaFlags
tLa:__ZN12HandlerChain4NameEv
dyb:__ZNSt3__26vectorI9InputAxisNS_9allocatorIS1_EEE10deallocateEv
xOe:_Int16_Equals_m3925135434_AdjustorThunk
GRc:__Z44Register_UnityEngine_CanvasRenderer_get_cullv
peh:_Enumerator_Dispose_m2532362830_AdjustorThunk
KEf:__ZL60IHashCodeProvider_t1980576455_CustomAttributesCacheGeneratorP21CustomAttributesCache
K_b:__ZN13ProduceHelperI13MonoBehaviourLb0EE7ProduceE18MemLabelIdentifier18ObjectCreationMode
nde:_Enumerator_VerifyState_m1677639504_AdjustorThunk
qgf:_CipherSuiteCollection_get_Item_m280627160
KFb:__Z44InitializeTransferFunctionScriptingTraitsForI17RemapPPtrTransferEvR31TransferFunctionScriptingTraits
ajg:_SerializationInfoEnumerator_MoveNext_m1876990879
Bwg:_TimeSpan_Duration_m4205681645
X6a:__ZN14UnityWebStream24UpdateAllUnityWebStreamsEv
mDf:__ZL60ObsoleteAttribute_t3878847927_CustomAttributesCacheGeneratorP21CustomAttributesCache
Bti:_Uri_ParseAsWindowsAbsoluteFilePath_m1108586962
qR:__ZN11UnityEngine15CloudWebService14DataErrorEventD2Ev
D4d:_Array_InternalArray__ICollection_CopyTo_TisRaycastHit2D_t4063908774_m3837098618_gshared
jna:__ZN18LoadSceneOperation21MustCompleteNextFrameEv
EK:__ZNK12AudioManager16GetAudioListenerEv
QGd:_EventTrigger_OnScroll_m626934407
rVf:__ZL48Camera_t189460977_CustomAttributesCacheGeneratorP21CustomAttributesCache
K2a:__ZNSt3__26vectorI11CameraStackNS_9allocatorIS1_EEE8__appendEj
DVd:_InputField_OnDisable_m1865339380
fAg:_UInt32_System_IConvertible_ToType_m747769316
sx:__ZN7mecanim9animation12GetHumanPoseERKNS0_18ClipMuscleConstantEPKNS0_10ValueDeltaERNS_5human9HumanPoseE
W8i:__ZN6il2cpp2vm10Reflection17GetPropertyObjectEP11Il2CppClassPK12PropertyInfo
WSc:__ZN11UnityEngine9Analytics15UserCustomEvent12CustomParams6InsertEPKcRNS1_11CustomValueE
vMj:_glDeleteVertexArrays__wrapper
vX:__Z13GetFileSystemv
a3b:__ZZL23RegisterLightPropertiesR22GenericPropertyBindingEN29Wrapper_LightColorTemperature13SetFloatValueEPvf
_5:__ZNK5Unity4Type21FindAllDerivedClassesER13dynamic_arrayIPKS0_Lj4EENS0_17TypeFilterOptionsE
T6:__ZN13RuntimeStaticI15GUIEventManagerLb0EE16StaticInitializeEPv
sgh:_Dictionary_2_ToTKey_m2900575080_gshared
tLe:_DaylightTime_get_Delta_m2316831491
JZd:_Array_InternalArray__ICollection_Contains_TisUILineInfo_t3621277874_m1175659630_gshared
Rvg:_WaitHandle_WaitOne_m370363697
ixf:_FactoryCache_Lookup_m1681894361
Rwd:_DateTime_Subtract_m698282245_AdjustorThunk
iSa:__ZN19ShaderPropertySheet9SetMatrixEN9ShaderLab16FastPropertyNameERK10Matrix4x4fNS_8SetFlagsE
E0c:_RIPEMD160Managed_Initialize_m3365407578
Zpb:__Z29GetTextureSizeAllowedMultiple13TextureFormat
Qqf:_IPAddress_HostToNetworkOrder_m1092199707
k$d:_SetPropertyUtility_SetStruct_TisSpriteState_t1353336012_m2898060836_gshared
V4c:_SecurityAttribute__ctor_m3425755778
D4b:__ZN21IntermediateRenderers3AddEP20IntermediateRenderer
E2i:_il2cpp_array_element_size
Yf:_glCheckFramebufferStatus
x0d:_Array_compare_TisInt32_t2071877448_m840310202_gshared
Wyh:_InternalEnumerator_1_System_Collections_IEnumerator_get_Current_m442726479_AdjustorThunk
rqg:_DESTransform_ECB_m2629024873
wxh:_InternalEnumerator_1_System_Collections_IEnumerator_get_Current_m790514740_AdjustorThunk
mad:__Z37il2cpp_codegen_get_executing_assemblyPK10MethodInfo
D1d:_Array_InternalArray__IndexOf_TisByte_t3683104436_m3605266236_gshared
cWg:_GUIStyle_set_richText_m1853532836
N2b:__ZZL23RegisterLightPropertiesR22GenericPropertyBindingEN22Wrapper_LightIntensity13GetFloatValueEPv
c5g:_RaycastAllCallback_Invoke_m981876639
Yrg:_UnicodeEncoding__ctor_m72484327
uij:__ZN14dense_hash_mapI10KeyWrapperIP14Il2CppIUnknownEjN6il2cpp5utils11PointerHashIS1_EENS3_14EqualsComparerINSt3__28equal_toIS2_EEEENS9_9allocatorINS9_4pairIKS3_jEEEEE15set_deleted_keyERSF_
D6:__ZN22BuiltinResourceManager16StaticInitializeEPv
wKe:_NumberFormatter_ScaleOrder_m1915154678
lif:_ClientSessionInfo_SetContext_m2649357891
oPe:_Int32_System_IConvertible_ToInt64_m3790029067_AdjustorThunk
sGd:_RaycasterManager_GetRaycasters_m1154876874
ynf:_SslStreamBase_InternalReadCallback_m2524917586
B5:__ZN8Remapper6RemoveEi
mie:_List_1_CheckCollection_m2608305187_gshared
nBc:__ZL36CleanupTextRenderingScriptingClassesv
bEe:_ReadOnlyCollection_1__ctor_m3532148437_gshared
Rdd:_Array_BinarySearch_m3270245097
rfc:__Z34Mesh_CUSTOM_SetArrayForChannelImplP12Il2CppObject30InternalScriptingShaderChannel34InternalScriptingVertexChannelTypeiP11Il2CppArrayi
dTe:_MonoIO_DeleteFile_m3273821223
q2e:_BigInteger_GenerateRandom_m2507308768
Hvd:_DateTime_System_IConvertible_ToDouble_m1431748426_AdjustorThunk
wZd:_Array_InternalArray__ICollection_Contains_TisUInt16_t986882611_m510319131_gshared
D5d:_Array_InternalArray__Insert_TisRaycastHit2D_t4063908774_m3174907903_gshared
fzd:_Decimal_ToString_m541380585
W2i:_il2cpp_class_is_valuetype
gYc:__ZZN18UnityConnectClient23RegisterGlobalCallbacksEvEN41EarlyUpdateUnityConnectClientUpdatestruct7ForwardEv
EB:__ZN11UnityEngine9Animation28GenericAnimationBindingCache25RegisterIAnimationBindingEPKN5Unity4TypeEiP17IAnimationBinding
QE:__Z106Register_UnityEngine_Experimental_Director_AnimatorControllerPlayable_INTERNAL_CALL_GetLayerWeightInternalv
KRc:__Z70RectTransformUtility_CUSTOM_INTERNAL_CALL_RectangleContainsScreenPointP12Il2CppObjectRK13Vector2fIcallS0_
jCd:_Enum_ToObject_m2601523252
xVa:__Z20RenderSceneDepthPassRK19SharedRendererSceneRK17ShaderReplaceDatabR17ShaderPassContext
ESc:__ZN14UnityAnalytics25UnregisterGlobalCallbacksEv
o1a:__Z40ProcessCameraIndexListIsNodeVisibleInOutRK22SceneCullingParametersPK9SceneNodePK4AABBR9IndexList
Tkb:__ZN16GraphicsSettings8TransferI17RemapPPtrTransferEEvRT_
kWe:_StreamReader__ctor_m2654332332
iPc:__ZN2UI6Canvas13UpdateBatchesEb
TKj:_glGetShaderInfoLog__wrapper
e_e:_MonoType_GetFields_internal_m2022019979
sge:_List_1_CheckCollection_m3968030679_gshared
Crg:_StringBuilder_ToString_m617673931
MVc:__ZN11UnityEngine7Connect13ConfigHandler12GetListenersERKN4core12basic_stringIcNS2_20StringStorageDefaultIcEEEE
xva:__ZN9GfxDevice18AllocRenderSurfaceEb
gZb:__ZN10TagManager32GetSortingLayerUniqueIDFromValueEi
Cri:_AnchorInfo_get_IsComplete_m1247624133
vPd:_Dropdown_Show_m324374589
s_:__ZL27CleanupCoreScriptingClassesv
LId:_RaycastResult_get_isValid_m2482925612
gfc:__Z26AnimationCurve_CUSTOM_InitP12Il2CppObjectP11Il2CppArray
yOj:_glUniform1uiv__wrapper
taj:__ZN6il2cpp2vm10Reflection7IsEventEP12Il2CppObject
i2:__ZN17PersistentManager26GetStreamNameSpaceInternalEi
lG:__ZN4FMOD6System11createSoundEPKcjP22FMOD_CREATESOUNDEXINFOPPNS_5SoundE
m9h:_CanvasRenderer_get_cull_m3577089379
Wn:FUNCTION_TABLE_iiifiiii
q_g:_Object_Destroy_m4145850038
iTh:__Z109RuntimeInvoker_Void_t1841601450_PlayableHandleU26_t3483893774_Int32_t2071877448_SByte_t454417549_Il2CppObjectPK10MethodInfoPvPS2_
M5i:__ZN6il2cpp2vm4Type14IsSystemDBNullEPK10Il2CppType
x0:__ZN9ShaderLab19CommonPropertyNames13StaticCleanupEPv
q3:__Z31scripting_method_get_returntype18ScriptingMethodPtr
g7g:_ScrollRect_UpdateBounds_m3266596336
grb:__ZN15SerializeTraitsI12LightmapDataE8TransferI24GenerateTypeTreeTransferEEvRS0_RT_
YPa:_unity_z_zcfree
cNd:_ColorBlock_GetHashCode_m649325222
ZKj:_glStencilOpSeparate__wrapper
O6b:__ZN4Mesh5SetUvEiPKfjj
Mna:__ZN7Texture13SetAnisoLimitENS_20AnisotropicFilteringE
boa:__ZN28LightProbeProxyVolumeManager25UpdateSHCoeffsTextureDataER21LightProbeProxyVolume
vJa:__Z18CreateDecompressor15CompressionType18MemLabelIdentifier
HO:__ZN11AudioModule16SetListenerPauseEb
Qh:_emscripten_glCompressedTexSubImage2D
ODa:__ZN13GfxDeviceGLES22MemoryBarrierImmediateEyN2gl17MemoryBarrierTypeE
Iud:_Convert_ToUInt32_m1336475941
hhj:__ZN6il2cpp6icalls8mscorlib6System4Type18internal_from_nameEP12Il2CppStringbb
lla:__ZN6prcoreL26RemapGenericFloatToIntegerI18TexFormatARGBFloat17TexFormatARGB8888EEvPKNS_9InnerInfoE
vKc:_cff_ps_has_glyph_names
XGi:_InvokableCall_1__ctor_m2837611051_gshared
opi:_PatternCompiler_EmitPosition_m3013268572
Gwf:_X509SubjectKeyIdentifierExtension__ctor_m1109455121
HRd:_Graphic_CreateColorFromAlpha_m2614574534
upc:__Z44Register_UnityEngine_GUIStyle_SetDefaultFontv
CNb:__Z18Transfer_BlittableI18StreamedBinaryReadILb1EELb1EiEvRK29SerializationCommandArgumentsR31RuntimeSerializationCommandInfo
Os:__ZN9BlobWrite8TransferI22OffsetPtrArrayTransferIKN4math7_float3EEEEvRT_PKc17TransferMetaFlags
Q3c:_TripleDES_IsWeakKey_m483013953
Vtf:_X509Certificate2_get_PrivateKey_m2662162956
i9i:__ZN15dense_hashtableINSt3__24pairIK10KeyWrapperINS1_IPK12PropertyInfoP11Il2CppClassEEEjEES9_17ReflectionMapHashIS8_EN14dense_hash_mapIS9_jSD_NS9_14EqualsComparerINS0_8equal_toIS8_EEEENS0_9allocatorISB_EEE9SelectKeyESI_SK_E12maybe_shrinkEv
UNb:__Z18Transfer_BlittableI18StreamedBinaryReadILb1EELb1EsEvRK29SerializationCommandArgumentsR31RuntimeSerializationCommandInfo
fz:__ZN26AnimatorControllerPlayable17IsMultithreadableEv
t7c:_Single_System_IConvertible_ToSByte_m3757385387
dUe:_StreamAsyncResult_SetComplete_m2141125667
Rna:__ZL21SetAnisoLimitEnumImplN7Texture20AnisotropicFilteringEb
rUc:__ZN22BaseUnityConnectClient17OnEnterStateReadyEv
sY:__GLOBAL__sub_I_platformdependent_webgl_source_lump_cpp
Bkb:__ZN14GrowableBufferD2Ev
zec:__Z29Input_CUSTOM_GetMouseButtonUpi
C1i:__ZN6il2cpp6icalls8mscorlib6System8MonoType16InternalGetEventEP20Il2CppReflectionTypeP12Il2CppStringi
eEc:_UNITY_tt_face_load_maxp
Lec:__Z46Input_CUSTOM_INTERNAL_set_compositionCursorPosRK13Vector2fIcall
hu:__ZN7mecanim5human12FullBodyMaskEv
Y$:__ZN19ShaderPropertySheet11ComputeHashEv
u5d:_Array_InternalArray__Insert_TisUInt16_t986882611_m2263078_gshared
gMd:_CanvasScaler_HandleScaleWithScreenSize_m80056230
HR:__ZN11UnityEngine15CloudWebService16SessionContainer16GetJsonDataBlockEjRKN4core12basic_stringIcNS2_20StringStorageDefaultIcEEEERS6_PjSA_
L0i:__ZNK6il2cpp5utils10functional6FilterINSt3__212basic_stringIcNS3_11char_traitsIcEENS3_9allocatorIcEEEENS0_11StringUtils21CaseSensitiveComparerEEclIPKcEEbRKT_
Tsg:_UTF7Encoding_InternalGetBytes_m2772055844
S0e:_SimpleCollator__cctor_m2693747668
_yd:_Decimal_CompareTo_m2454501434_AdjustorThunk
x2:__ZN14SafeBinaryReadD2Ev
Syg:_UInt16_System_IConvertible_ToChar_m4055364664
h_b:__Z13RegisterClassI7TextureEvv
$Ob:__ZN8Gradient8TransferI18StreamedBinaryReadILb1EEEEvRT_
Tdh:_Enumerator_Dispose_m2369319718_AdjustorThunk
epc:__Z45Register_UnityEngine_GUIStyle_SetFontInternalv
K0i:__ZN6il2cpp6icalls8mscorlib6SystemL16CheckMemberMatchI9FieldInfoNS_5utils10functional6FilterINSt3__212basic_stringIcNS8_11char_traitsIcEENS8_9allocatorIcEEEENS5_11StringUtils21CaseSensitiveComparerEEEEEbPKT_PK11Il2CppClassSN_iRKT0_
khj:__ZN6il2cpp6icalls8mscorlib6System4Type15MakeGenericTypeEP20Il2CppReflectionTypeP11Il2CppArray
kj:_SDL_PauseAudio
$2i:_il2cpp_class_from_type
xed:_Array_Sort_m2323017822
Ruj:_GC_clear_mark_bit
K5g:_Scrollbar_UpdateDrag_m3839695926
ASg:_GUILayoutUtility__cctor_m2957755459
w0:__ZN9ShaderLab19CommonPropertyNames16StaticInitializeEPv
QYe:_MissingMemberException__ctor_m3710131950
uA:__ZN7mecanim9animation18CreateAvatarOutputEPKNS0_14AvatarConstantEbbRNS_6memory9AllocatorE
Epc:__Z45GUIUtility_CUSTOM_Internal_GetKeyboardControlv
Tpg:_CspParameters__ctor_m2546931874
WL:__ZN11AudioSource23VirtualRedirectTransferER24GenerateTypeTreeTransfer
qTc:__ZN14UnityAnalytics15SendCustomEventERN11UnityEngine9Analytics15UserCustomEventE
zub:__ZN14Texture2DArray23VirtualRedirectTransferER14SafeBinaryRead
qYa:__ZNK6Camera21CalculateCanDoShadowsEv
PRd:_Graphic__cctor_m1643894470
dpj:__ZN6il2cpp2os6Thread12SetStackSizeEj
puf:_X509ChainElementEnumerator_get_Current_m2232618221
LBb:__ZNK20ArchiveStorageReader15HasStreamBlocksEv
i7b:__ZNK8Renderer16IsVisibleInSceneEv
a7g:_ScrollRect_set_onValueChanged_m3957749575
VX:__Z13VFormatBufferPciPKcz
TPb:__Z18Transfer_BlittableI18StreamedBinaryReadILb0EELb1EhEvRK29SerializationCommandArgumentsR31RuntimeSerializationCommandInfo
QEi:_U3CCreateWhereIteratorU3Ec__Iterator1D_1_Dispose_m1879652802_gshared
HTd:_Image_GenerateSimpleSprite_m4275440988
sbi:_Display_get_systemHeight_m3377672024
Hzg:_UInt16_ToString_m3280699191
pla:__ZN6prcoreL27StretchGenericFloatBilinearI15TexFormatRFloatEEvPKNS_9InnerInfoE
REh:__Z130RuntimeInvoker_Int32_t2071877448_Il2CppObject_Int32_t2071877448_Int32_t2071877448_Il2CppObject_Int32_t2071877448_Int32_t2071877448PK10MethodInfoPvPS2_
SJh:__Z102RuntimeInvoker_Il2CppObject_Int32_t2071877448_Int32_t2071877448_Il2CppObject_Il2CppObject_Il2CppObjectPK10MethodInfoPvPS2_
n1d:_Array_IndexOf_TisCustomAttributeNamedArgument_t94157543_m745056346_gshared
ZBa:__Z14PadImageBorderR14ImageReferenceii
N7i:__ZN15dense_hashtableINSt3__24pairIK10KeyWrapperINS1_IPK10MethodInfoP11Il2CppClassEEEjEES9_17ReflectionMapHashIS8_EN14dense_hash_mapIS9_jSD_NS9_14EqualsComparerINS0_8equal_toIS8_EEEENS0_9allocatorISB_EEE9SelectKeyESI_SK_E4findERSA_
TYi:__ZN6il2cpp2vm13MetadataCache28GetFieldDefaultValueForFieldEPK9FieldInfo
Ooh:_ArrayReadOnlyList_1_ReadOnlyError_m2289309720_gshared
yy:__ZN27AnimationLayerMixerPlayableD2Ev
O$i:__ZN6il2cpp2vm8basepathEPKc
kI:__ZN12AudioManager39HandlePendingAudioConfigurationCallbackEv
gk:_emscripten_glIsFramebuffer
NEa:__ZNK13TranslateGLES9GetFormatE13TextureFormat17TextureColorSpace
U3b:__ZN12_GLOBAL__N_16qAtan2Eff
Ttd:_Convert_ToInt64_m954367741
kk:_JS_Sound_SetLoopPoints
xjd:_ArrayList__ctor_m1467563650
fN:__ZN12AudioManager17ShouldSourcePauseEb
lyj:__ZN6il2cpp2vm26MetadataAllocGenericMethodEv
pGa:__ZN19ConstantBuffersGLES12RecordRenderEv
iqa:__ZN18AsyncUploadManager22UploadStreamingTextureEP28FileTextureUploadInstruction
ksc:__ZN9JSONWrite8TransferI10RectOffsetEEvRT_PKc17TransferMetaFlags
FBa:__ZN4crnd12symbol_codec11decode_bitsEj
PIc:_cf2_doFlex
i8d:_Array_Sort_TisRaycastResult_t21186376_TisRaycastResult_t21186376_m38820193_gshared
k5h:_Animator_ResetTriggerString_m1445965342
Smb:__ZN10Matrix3x4f8TransferI24GenerateTypeTreeTransferEEvRT_
nTe:_StreamReader__ctor_m3454466728
pI:__ZN4FMOD6System12createReverbEPPNS_6ReverbE
hBg:_UInt64_Equals_m1243465002
TBi:_Vector2_get_Item_m2792130561
xma:__Z16MarkDependenciesR27GarbageCollectorThreadStatej
hwf:_X509ChainElementEnumerator_Reset_m3832280427
Y_e:_MulticastDelegate_RemoveImpl_m2024746777
qMd:_CanvasUpdateRegistry_ParentCount_m2367607495
S_e:_MulticastDelegate_Equals_m3064081489
sXh:__Z54RuntimeInvoker_Void_t1841601450_ColorBlock_t2652774230PK10MethodInfoPvPS2_
baf:_Activator_CreateInstance_m1465989661
r0:__ZNK9Transform11GetPositionEv
bti:_PositionAssertion_GetWidth_m2294218483
YSa:__ZN23SharedMeshRenderingData18UnloadVertexStreamEi
cDi:_Vector4_set_Item_m3077071044
C4b:__ZN31CanvasBatchIntermediateRenderer11AddSubBatchERK16DrawBuffersRangePK19ShaderPropertySheet
c3b:__ZN19RenderEventsContextC2Ei
VP:__Z6simd4fRKf
z4d:_Array_InternalArray__ICollection_CopyTo_TisColor32_t874517518_m379086718_gshared
A9g:_Slider_ClampValue_m2851810895
Nk:_emscripten_glEnable
aTg:_GUISkin_set_font_m4009958323
CIi:_UnityEvent_1_FindMethod_Impl_m3813546_gshared
Xkj:__ZN6il2cpp2gc16GarbageCollector29RegisterFinalizerForNewObjectEP12Il2CppObject
_hb:__ZN10TagManager23VirtualRedirectTransferER14SafeBinaryRead
ADc:_UNITY_FT_Init_Class_ft_grays_raster
h$a:__Z15InitLightMeshesv
COf:__ZL97WaitHandle_t677569169_CustomAttributesCacheGenerator_WaitHandle_t677569169____Handle_PropertyInfoP21CustomAttributesCache
i_i:_KeyValuePair_2_ToString_m1391611625_AdjustorThunk
wn:FUNCTION_TABLE_iifiii
m_e:_MonoType_HasElementTypeImpl_m1040892148
HRa:__ZN22RenderingCommandBuffer36AcquireAndRegisterSharedMaterialDataEP8Material
eMb:__Z18Transfer_BlittableI19StreamedBinaryWriteILb0EELb1E8Vector2fEvRK29SerializationCommandArgumentsR31RuntimeSerializationCommandInfo
vIc:_cf2_arrstack_init
qIf:__ZL65ClassInterfaceAttribute_t910653559_CustomAttributesCacheGeneratorP21CustomAttributesCache
$5i:__ZN15dense_hashtableINSt3__24pairIK10KeyWrapperINS1_IPK14Il2CppAssemblyP11Il2CppClassEEEjEES9_17ReflectionMapHashIS8_EN14dense_hash_mapIS9_jSD_NS9_14EqualsComparerINS0_8equal_toIS8_EEEENS0_9allocatorISB_EEE9SelectKeyESI_SK_E15insert_noresizeERKSB_
CV:__Z15CleanLogHandler7LogTypePKcz
CVb:__ZN9ShaderLab19SerializedSubShader8TransferI19StreamedBinaryWriteILb0EEEEvRT_
wsg:_UTF32Encoding_GetBytes_m2290150495
TDb:__ZN6Camera17RemoveImageFilterERK11ImageFilter
oDa:__ZNSt3__218__insertion_sort_3IR25ValueParameterArraySorterPN20GpuProgramParameters14ValueParameterEEEvT0_S6_T_
mmd:_CaseInsensitiveHashCodeProvider_AreEqual_m2456617355
y2g:_LayoutUtility_GetLayoutProperty_m4052007472
$Gi:_InvokableCall_1_Invoke_m3239892614_gshared
FSa:__ZNSt3__214__split_bufferI20ComputeShaderVariantRNS_9allocatorIS1_EEED2Ev
zyc:__ZNSt3__26vectorIN4core12basic_stringIcNS1_20StringStorageDefaultIcEEEE13stl_allocatorIS5_L18MemLabelIdentifier34ELi16EEE7reserveEj
Jif:_Context_set_WriteSequenceNumber_m3356252710
QPc:__ZN2UI26InitializeDeviceForOverlayEi
xNe:_Guid_Equals_m2389236871
M0:__Z27LogRepeatingStringWithFlagsRKN4core12basic_stringIcNS_20StringStorageDefaultIcEEEE15LogMessageFlagsi
Kw:__ZNK8Playable11GetDurationEv
cx:__ZN17AnimationPlayable28ComputeNeedsBindingRebuildedEv
ufe:_List_1_CheckIndex_m3609163576_gshared
Qzb:__ZN15ResourceManagerD0Ev
Rtf:_X509ExtensionCollection__ctor_m1324282194
LWc:__ZN18UnityConnectClient33OnPlayerSessionStateChangedStaticEPS_jyy
oEf:__ZL74CaseInsensitiveHashCodeProvider_t2307530285_CustomAttributesCacheGeneratorP21CustomAttributesCache
Qya:__ZN7ApiGLES4LoadE16GfxDeviceLevelGL
trb:__ZN18StreamedBinaryReadILb0EE21TransferSTLStyleArrayI13dynamic_arrayI31EnlightenSystemAtlasInformationLj8EEEEvRT_17TransferMetaFlags
yBa:__ZN4crnd12crn_unpacker22decode_color_endpointsEv
ckj:__ZN15dense_hashtableI10KeyWrapperIP18Il2CppGenericClassES3_N6il2cpp8metadata22Il2CppGenericClassHashEN14dense_hash_setIS3_S6_NS3_14EqualsComparerINS5_25Il2CppGenericClassCompareEEENSt3__29allocatorIS3_EEE8IdentityESA_SD_E15insert_noresizeERKS3_
FCe:_ReadOnlyCollection_1_System_Collections_IList_Clear_m3006875897_gshared
A1b:__ZZL31RegisterOtherRendererPropertiesR22GenericPropertyBindingEN30Wrapper_RendererReceiveShadows13GetFloatValueEPv
Hee:_Enumerator_System_Collections_IEnumerator_get_Current_m3866069145_gshared
Bba:__ZN8Material11SetPassFastEPN9ShaderLab4PassER17ShaderPassContextP6Shaderib
JWc:__ZN11UnityEngine7Connect20BasePersistentValues10SaveValuesER9JSONWrite
i0g:_Rect_get_max_m96665935_AdjustorThunk
wii:_RuntimeHelpers_InitializeArray_m3920580167
sHd:_ExecuteEvents_get_pointerDownHandler_m1172742772
T7b:__Z14ScaleCurveTimeR17AnimationCurveTplIfEf
Evf:_X509CertificateEnumerator_System_Collections_IEnumerator_MoveNext_m3708362145
bVa:__Z12SetupLODFadeR9GfxDeviceR17ShaderPassContextf
hwi:_X501_ToString_m3328169518
W_a:__ZL24CollectForwardObjectsJobP27CollectForwardObjectsHeader
QZ:__ZN8Playable13SetGameObjectEP10GameObject
C2a:__ZNK25CameraStackRenderingState24ResolveTempToEyeTexturesEv
O0a:__Z13IsNodeVisibleRK9SceneNodeRK4AABBRK22SceneCullingParameters
MRc:__Z57RectTransformUtility_CUSTOM_INTERNAL_CALL_PixelAdjustRectP12Il2CppObjectS0_R5RectTIfE
qlg:_DelayedFixupRecord_FixupImpl_m4249966635
vQj:_emscripten_glStencilMask__wrapper
FBc:__ZZ29InitializeTextRenderingModulevEN40CleanUpTextRenderingGarbageCollectstruct7ForwardEv
E3:__ZN11TypeManager19ClassNameToTypeInfoEPKcb
C2e:_BigInteger_ToString_m3837784224
CRa:__ZN15RenderNodeQueue7CleanupEv
vxc:__ZN16NovodexAllocator8allocateEjPKcS1_i
v_a:__Z17PrepareShadowMapsRK11CullResultsRK11ActiveLightRK10MinMaxAABB
Ytg:_NativeEventCalls_CreateEvent_internal_m1605829321
F6f:__ZL73RuntimePlatform_t1869584967_CustomAttributesCacheGenerator_MetroPlayerX64P21CustomAttributesCache
ouh:_InternalEnumerator_1_System_Collections_IEnumerator_get_Current_m3239681450_AdjustorThunk
T_a:__ZN9ShaderLab10GrabPassesD2Ev
MZg:_MonoBehaviour_set_useGUILayout_m2666356651
Kub:__ZN14Texture2DArray13UploadTextureEv
EXh:__Z69RuntimeInvoker_TextGenerationSettings_t2543476768_Vector2_t2243707579PK10MethodInfoPvPS2_
OFc:_tt_cmap14_done
mna:__ZN18AwakeFromLoadQueue25RegisterObjectInstanceIDsEv
Pgd:_Buffer_BlockCopy_m1586717258
pLf:__ZL93X509Certificate_t283079845_CustomAttributesCacheGenerator_X509Certificate_GetName_m2354987368P21CustomAttributesCache
vzc:__ZN20TextRenderingPrivate19NativeTextGenerator15InsertCharacterEiPj
VDd:_CompareInfo_GetSortKey_m3691382873
Uxd:_DBNull_ToString_m3228904745
zmc:__ZN5IMGUI20MoveWindowFromLayoutER8GUIStateiRK5RectTIfE
KOh:__Z80RuntimeInvoker_Void_t1841601450_Int32_t2071877448_Int32_t2071877448_Il2CppObjectPK10MethodInfoPvPS2_
yef:_RC4_get_IV_m506011366
qxi:_X509Crl__ctor_m2469408229
NBh:_Enumerator_get_CurrentValue_m3562053380_AdjustorThunk
Mwf:_X509SubjectKeyIdentifierExtension_CopyFrom_m136762226
Ece:_Enumerator_System_Collections_IEnumerator_Reset_m610822832_AdjustorThunk
ggc:__Z41MonoBehaviour_Set_Custom_PropUseGUILayoutP12Il2CppObjecth
qAc:_UNITY_FT_Open_Face
nMj:_glGenRenderbuffers__wrapper
G7h:_Bounds_ToString_m1966597703
x3e:_BigInteger_op_Division_m1581119694
ORb:__ZN16ScriptingManagerD0Ev
a4h:_UnityAnalyticsHandler_CustomEvent_m2884790978
Dmg:_CallbackHandler_Invoke_m1498072969
yqg:_DSACryptoServiceProvider__ctor_m701823690
qSg:_Mathf_Clamp_m2354025655
_Eg:_CustomAttributeData_GetCustomAttributes_m2421330738
umj:__ZN30dense_hashtable_const_iteratorINSt3__24pairIK10KeyWrapperINS1_IPKcS4_EEEiEES6_24NamespaceAndNamePairHashN14dense_hash_mapIS6_iS9_NS6_14EqualsComparerI26NamespaceAndNamePairEqualsEENS0_9allocatorIS8_EEE9SelectKeyESD_SF_EppEv
xxg:_Type_get_IsEnum_m313908919
Gcc:__Z44Register_UnityEngine_Component_get_transformv
$ue:_Collection_1_System_Collections_ICollection_CopyTo_m1335644572_gshared
Vle:_List_1_CheckMatch_m2830747427_gshared
oJa:__ZN17ArchiveFileSystem12MountArchiveEPKcS1_
urc:__Z18Transfer_BlittableI9JSONWriteLb1E8Vector4fEvRK29SerializationCommandArgumentsR31RuntimeSerializationCommandInfo
w_:__Z11RequireTypePKcS0_S0_
ZBh:_Enumerator_System_Collections_IEnumerator_Reset_m70453843_gshared
Zrb:__ZThn32_NK8Renderer14GetSubsetIndexEi
vCi:_Vector3_get_Item_m3616014016
o0b:__ZN13ProduceHelperI15ResourceManagerLb0EE7ProduceE18MemLabelIdentifier18ObjectCreationMode
mwa:__ZN9GfxDevice15ImmediateVertexEfff
RZb:__Z13RegisterClassI8MaterialEvv
$Cd:_FieldAccessException__ctor_m3893881490
KUh:__Z82RuntimeInvoker_Int32_t2071877448_Rect_t3681755626_Il2CppObject_Vector2_t2243707579PK10MethodInfoPvPS2_
_ta:__ZN13GfxDeviceGLES15SetStencilStateEPK18DeviceStencilStatei
Q7i:__ZN15dense_hashtableINSt3__24pairIK10KeyWrapperINS1_IPK10MethodInfoP11Il2CppClassEEEjEES9_17ReflectionMapHashIS8_EN14dense_hash_mapIS9_jSD_NS9_14EqualsComparerINS0_8equal_toIS8_EEEENS0_9allocatorISB_EEE9SelectKeyESI_SK_E6insertERKSB_
DCj:_cycle
Yzi:_TextGenerator_Populate_m4139823822
Gd:_emscripten_glUniform1iv
Xah:_Text_get_preferredHeight_m452532789
j8c:_String_System_IConvertible_ToDouble_m3860911722
X9a:__ZN16MemoryFileSystemD2Ev
GUb:__ZN9ShaderLab18SerializedPropertyD2Ev
Hzc:__Z17dynamic_pptr_castIP9Texture2D7TextureET_RK4PPtrIT0_E
Ax:__ZN7mecanim14ValueArrayLoopERKNS_10ValueArrayES2_RS0_fRKNS_14ValueArrayMaskE
WDe:_ReadOnlyCollection_1_System_Collections_IList_set_Item_m1272038804_gshared
Sph:_InternalEnumerator_1_System_Collections_IEnumerator_get_Current_m1931522460_AdjustorThunk
R4c:_SecurityPermission_IsEmpty_m1869313067
xvf:_X509CertificateCollection__ctor_m3709509050
jcc:__Z37Register_UnityEngine_Camera_get_depthv
K6e:_EncryptedPrivateKeyInfo_get_Salt_m2734354394
SFe:_ReadOnlyCollection_1_System_Collections_Generic_IListU3CTU3E_set_Item_m1918537449_gshared
Dte:_Collection_1_System_Collections_ICollection_CopyTo_m3896480607_gshared
YHd:_PointerEventData_set_position_m794507622
IUh:__Z115RuntimeInvoker_Void_t1841601450_Rect_t3681755626_Il2CppObject_Int32_t2071877448_Int32_t2071877448_Int32_t2071877448PK10MethodInfoPvPS2_
r9:__ZN15dense_hashtableINSt3__24pairIKPKcPK4RTTIEES3_N11TypeManager23ConstCharPtrHashFunctorEN14dense_hash_mapIS3_S7_SA_NS9_19ConstCharPtrEqualToE13stl_allocatorIS8_L18MemLabelIdentifier6ELi16EEE9SelectKeyESC_SF_E12resize_deltaEjj
I9a:__Z23ConvertIntegerToTypePtrItEbPvR14SafeBinaryRead
_ei:_AnimatorControllerPlayable_IsParameterControlledByCurveID_m4183631446
xu:__ZN7mecanim5human29HumanGetGoalOrientationOffsetENS0_4GoalE
Xd:_emscripten_glStencilFunc
dKh:__Z101RuntimeInvoker_Void_t1841601450_Il2CppObject_Il2CppObject_Il2CppObject_Il2CppObject_Int32_t2071877448PK10MethodInfoPvPS2_
nld:_SynchronizedArrayListWrapper_get_Capacity_m2541698837
aOg:_MonoMethod_MakeGenericMethod_impl_m2063853616
H6c:__Z46il2cpp_codegen_get_marshal_directive_exceptionPKc
EWb:__ZN9ShaderLab20SerializedSubProgram14AddMatrixParamEPKcii15ShaderParamTypei
be:_glGetActiveUniformBlockName
tD:__ZN26AnimatorControllerPlayable23ValidateParameterStringE17GetSetValueResultRKN4core12basic_stringIcNS1_20StringStorageDefaultIcEEEE
FNe:_Guid_AppendByte_m2890893073
KJg:_MethodBuilder_Invoke_m1874904900
$hd:_Char_System_IConvertible_ToType_m3106771703_AdjustorThunk
Pyf:_Interval_Intersects_m3480157390_AdjustorThunk
bfc:__Z39Quaternion_CUSTOM_INTERNAL_CALL_InverseRK11QuaternionfRS_
Wii:_GCHandle_Alloc_m1063472408
hJ:__ZN4FMOD7Channel20set3DConeOrientationEP11FMOD_VECTOR
ln:FUNCTION_TABLE_iiifii
Gpg:_CryptoConfig_CreateFromName_m391442950
tnj:__ZN6il2cpp2vm12GenericClass11SetupEventsEP11Il2CppClass
WLc:_tt_delta_interpolate
HFc:_tt_cmap12_get_info
$od:_SortedList__ctor_m3698381356
Xij:__ZN6il2cpp2vm15ReboxIReferenceEP14Il2CppIUnknownP11Il2CppClass
PWe:_StreamWriter_LowLevelWrite_m4205372900
TJi:__ZN6il2cpp6icalls8mscorlib6System7Decimal14decimalCompareEP19il2cpp_decimal_reprS5_
axj:__ZThn4_N6il2cpp2vm13CachedCCWBaseINS0_13ManagedObjectEE7ReleaseEv
Fmd:_CollectionBase_System_Collections_IList_get_Item_m2370387510
Z7d:_Array_Sort_TisCustomAttributeNamedArgument_t94157543_m3436077809_gshared
ANj:_glCopyTexImage2D__wrapper
c2g:_ResourceRequest__ctor_m3340010930
kXd:_LayoutElement__ctor_m789941073
Z7h:_Camera_FireOnPreCull_m1679634170
Sia:__Z18ClearByDrawingQuad13GfxClearFlagsRK10ColorRGBAffjR17ShaderPassContext
Gli:_DynamicPropertyCollection_FindProperty_m1233265924
Nka:__ZN6prcoreL17RemapGenericFloatI14TexFormatRHalf15TexFormatRFloatEEvPKNS_9InnerInfoE
QUa:__Z16ShouldUseShadowsb
FZ:__ZN15DirectorManager21RebuildStageCallbacksEv
Ola:__ZN19RuntimeSceneManager9LoadSceneERKN4core12basic_stringIcNS0_20StringStorageDefaultIcEEEES6_S6_RK9UnityGUIDiNS_11LoadingModeE
rCa:__ZN7ApiGLES10DrawArraysE16GfxPrimitiveTypejjj
eci:_Event_PopEvent_m1952528237
QG:__ZN10SampleClip13LoadBaseSoundEv
DIh:__Z62RuntimeInvoker_Il2CppObject_Int32_t2071877448_SByte_t454417549PK10MethodInfoPvPS2_
jlj:__ZN15dense_hashtableINSt3__24pairIK10KeyWrapperIP12Il2CppObjectEN6il2cpp2gc9CachedCCWEEES5_NS7_5utils11PointerHashIS3_EEN14dense_hash_mapIS5_S9_SD_NS5_14EqualsComparerINS0_8equal_toIS4_EEEENS0_9allocatorISA_EEE9SelectKeyESI_SK_E15insert_noresizeERKSA_
jye:_Collection_1_Contains_m643401393_gshared
Ria:__ZN22DeviceMVPMatricesStateC2ER9GfxDevice
b8c:_String__ctor_m372528291
Ym:FUNCTION_TABLE_iifii
Icj:__ZN6il2cpp2vm10Reflection12HasAttributeEP9FieldInfoP11Il2CppClass
Xma:__ZNSt3__26__treeIiNS_4lessIiEE13stl_allocatorIiL18MemLabelIdentifier1ELi16EEE7destroyEPNS_11__tree_nodeIiPvEE
jc:invoke_viiifi
rdi:_AnimationClipPlayable_GetSpeed_m668389965
NZe:_LongComparer_Compare_m3981323622
M9g:_Slider_FindSelectableOnUp_m15474611
Ora:__ZNK11AssetBundle14GetPreloadDataEiR13dynamic_arrayIiLj4EE
S7e:_EncryptedData_get_EncryptedContent_m2732115576
nLh:__Z81RuntimeInvoker_Boolean_t3825574718_SByte_t454417549_Il2CppObject_SByte_t454417549PK10MethodInfoPvPS2_
lf:_JS_Sound_SetPosition
Eqi:_Assertion_set_FalseExpression_m1781616372
Iwf:_X509SubjectKeyIdentifierExtension_FromHexChars_m2515150420
uYi:__ZL13GetSharedInstPK17Il2CppGenericInst
cDf:__ZL51IReflect_t3412036974_CustomAttributesCacheGeneratorP21CustomAttributesCache
XJd:_StandaloneInputModule_SendSubmitEventToSelectedObject_m3421155293
ehi:_RenderPipelineManager_CleanupRenderPipeline_m2242901458
bai:_Component_GetComponentsInChildren_m908027537
zUc:__ZN22BaseUnityConnectClient17SaveSessionValuesEv
tni:_CallContextRemotingData_Clone_m2226242476
Y1:__Z63ThreadAndSerializationSafeCheckSetMonoBehaviourBeingTransferredP13MonoBehaviour
Z_a:__Z24SetupActiveLightsContextR21ActiveLightingContextRK12ActiveLightsRK11CullResultsP14ShadowMapCacheRK10MinMaxAABB
vhc:__Z38Sprite_CUSTOM_INTERNAL_get_textureRectP12Il2CppObjectP5RectTIfE
Qxd:_DBNull_System_IConvertible_ToUInt32_m2681284284
ubj:__ZNK15dense_hashtableINSt3__24pairIK10KeyWrapperIPK22Il2CppGenericParameterEPK24MonoGenericParameterInfoEES6_N6il2cpp5utils11PointerHashIS4_EEN14dense_hash_mapIS6_SA_SF_NS6_14EqualsComparerINS0_8equal_toIS5_EEEENS0_9allocatorISB_EEE9SelectKeyESK_SM_E3endEv
hjb:__ZN6Camera8TransferI24GenerateTypeTreeTransferEEvRT_
fmh:_EqualityComparer_1__cctor_m416314417_gshared
Ia:invoke_iiiiiiif
Fa:invoke_iiiiiiii
uCb:__ZN24RingBufferMemoryFileData16ConsumeReadBytesEy
_Yg:_Mesh_GetUVChannel_m364477864
$uf:_X509ChainElementCollection_Contains_m3599995067
k2a:__ZN8Renderer17PendingAddToSceneEv
tRj:b123
sRj:b122
vRj:b125
uRj:b124
xRj:b127
wRj:b126
ERj:b129
Ngc:__Z52Register_UnityEngine_RectTransform_INTERNAL_get_rectv
i_:__Z21PostprocessStacktracePKcRN4core12basic_stringIcNS1_20StringStorageDefaultIcEEEE
Kmf:_SslClientStream_OnLocalPrivateKeySelection_m3649986106
NIf:__ZL70TypeLibImportClassAttribute_t2390314680_CustomAttributesCacheGeneratorP21CustomAttributesCache
dca:__ZN19RenderBufferManager13GetTempBufferEii17DepthBufferFormat19RenderTextureFormatj22RenderTextureReadWrite14VRTextureUsagei
Izb:__ZN18StreamedBinaryReadILb0EE21TransferSTLStyleArrayI13dynamic_arrayI16SplashScreenLogoLj4EEEEvRT_17TransferMetaFlags
s_d:_Array_InternalArray__ICollection_Remove_TisX509ChainStatus_t4278378721_m4127982424_gshared
tcc:__Z47Register_UnityEngine_Camera_get_allCamerasCountv
p1c:___clang_call_terminate
CUc:__ZN22BaseUnityConnectClient20StartEventDispatcherEv
X6b:__ZNSt3__26vectorIj13stl_allocatorIjL18MemLabelIdentifier1ELi16EEE6assignIPKtEENS_9enable_ifIXaasr21__is_forward_iteratorIT_EE5valuesr16is_constructibleIjNS_15iterator_traitsIS9_E9referenceEEE5valueEvE4typeES9_S9_
qs:__ZN7mecanim9animation16EvaluateAvatarIKEPKNS0_14AvatarConstantEPKNS0_11AvatarInputEPNS0_12AvatarOutputEPNS0_12AvatarMemoryEPNS0_15AvatarWorkspaceEb
UCa:__ZL25ProgramUniformMatrix4x3fvPK7ApiGLESjiihPKv
DOa:__ZN12InputManager13InputEndFrameEv
God:_SyncHashtable__ctor_m2029869827
Gej:__ZN6il2cpp2vm6Thread5SetupEP12Il2CppThread
fHe:_ReadOnlyCollection_1_System_Collections_IList_Remove_m2200089035_gshared
yte:_Collection_1_CheckWritable_m2756357359_gshared
IDj:___munmap
FUd:_InputField_get_characterLimit_m2386380888
hbg:__ZL68ColorBlock_t2652774230_CustomAttributesCacheGenerator_m_PressedColorP21CustomAttributesCache
Ftd:_Convert_ToInt64_m1722087499
cg:_localtime_r
WRh:__Z74RuntimeInvoker_Vector3_t2243707580_Vector3_t2243707580_Vector3_t2243707580PK10MethodInfoPvPS2_
pRh:__Z80RuntimeInvoker_Il2CppObject_Ray_t2469606224_Single_t2076509932_Int32_t2071877448PK10MethodInfoPvPS2_
zIf:__ZL65InterfaceTypeAttribute_t4113096249_CustomAttributesCacheGeneratorP21CustomAttributesCache
eg:_strftime
nca:__ZN7Texture33SetStoredColorSpaceNoDirtyNoApplyE17TextureColorSpace
bY:__ZN12FileAccessorD2Ev
rvb:__ZN14VertexDataInfoC2Ev
WCd:_Exception_GetObjectData_m2653827630
CCi:_Vector3_Equals_m2692262876_AdjustorThunk
Zsh:_InternalEnumerator_1_get_Current_m2415979394_gshared
yOb:__ZL17Transfer_GUIStyleI18StreamedBinaryReadILb1EELb1EEvRK29SerializationCommandArgumentsR31RuntimeSerializationCommandInfo
M6g:_ScrollRect_SetDirtyCaching_m1491302821
s1i:__ZN6il2cpp6icalls8mscorlib6SystemL9IsPrivateEPK12PropertyInfo
aFg:_CustomAttributeData_GetCustomAttributes_m3258419955
I0:__ZN9shadertag10InitializeEv
dVa:__ZN13BatchRenderer20RenderSingleWithPassER17ShaderPassContextPK18SharedMaterialDataP6ShaderPN9ShaderLab4PassEiPKNS7_10GrabPassesEjib15BatchBreakCause
PD:__Z92Register_UnityEngine_Experimental_Director_AnimationOffsetPlayable_INTERNAL_CALL_SetRotationv
ftb:__ZN15QualitySettings14QualitySetting8TransferI24GenerateTypeTreeTransferEEvRT_
l4d:_Array_InternalArray__ICollection_CopyTo_TisParameterModifier_t1820634920_m4127516211_gshared
gbd:_DecoderReplacementFallback__ctor_m2344783488
dch:_Enumerator_System_Collections_IDictionaryEnumerator_get_Key_m467957770_AdjustorThunk
XQd:_GraphicRegistry_UnregisterGraphicForCanvas_m820096873
HMc:__Z28Font_Get_Custom_PropMaterialP12Il2CppObject
ixj:__ZN6il2cpp6icalls8mscorlib6System9Threading16NativeEventCalls19ResetEvent_internalE12Il2CppIntPtr
O8f:__ZL65EventTrigger_t1967201810_CustomAttributesCacheGenerator_delegatesP21CustomAttributesCache
yve:_Collection_1_Remove_m4136193368_gshared
MGd:_EventTrigger_OnPointerUp_m2791622548
V8g:_Shadow_set_useGraphicAlpha_m141905402
k6b:__ZN22BlockMemoryCacheWriter14LockCacheBlockEjPPhS1_
epj:__ZN6il2cpp2os6Thread10RunWrapperEPv
Vjg:_RealProxy_InternalGetTransparentProxy_m3415358600
Duc:__Z22TransferField_NonArrayI8JSONRead27Converter_SimpleNativeClassI8GUIStyleEEvRK23StaticTransferFieldInfoR31RuntimeSerializationCommandInfoRT0_
Kg:_llvm_eh_typeid_for
j4b:__Z13RegisterClassI10GameObjectEvv
EEf:__ZL53HashValues_t2390200547_CustomAttributesCacheGeneratorP21CustomAttributesCache
Ltf:_X509BasicConstraintsExtension_get_PathLengthConstraint_m3004531343
WYe:_MissingMemberException__ctor_m4277447068
kge:_List_1_Find_m1881447651_gshared
qPg:_StrongNameKeyPair_System_Runtime_Serialization_ISerializable_GetObjectData_m1693082120
nQb:__Z18Transfer_BlittableI18StreamedBinaryReadILb0EELb1E8Vector4fEvRK29SerializationCommandArgumentsR31RuntimeSerializationCommandInfo
Tpj:__ZN6il2cpp2vm6Method8GetParamEPK10MethodInfoj
AQe:_Int64_CompareTo_m1953686218
$hj:__ZN6il2cpp6icalls8mscorlib6System2IO6MonoIO4ReadE12Il2CppIntPtrP11Il2CppArrayiiPi
XPj:_glBindVertexArray__wrapper
uqg:_DSA_Create_m3450041777
Hga:__ZN8Material8TransferI14SafeBinaryReadEEvRT_
dbi:_Debug_LogWarningFormat_m79553173
apb:__ZN12CubemapArray17UploadToGfxDeviceEv
m7g:_ScrollRect_AdjustBounds_m1033723448
_ka:__ZN6prcoreL17RemapGenericFloatI15TexFormatRGHalf17TexFormatRGBAHalfEEvPKNS_9InnerInfoE
Dde:_Enumerator_System_Collections_IEnumerator_Reset_m2200349770_gshared
XCg:_OrdinalComparer__ctor_m2952942058
_Oh:__Z107RuntimeInvoker_Boolean_t3825574718_Int32_t2071877448_Int64U5BU5DU26_t2476256456_StringU5BU5DU26_t3730240492PK10MethodInfoPvPS2_
xuf:_X509Chain_CheckRevocationOnChain_m2441901351
Vwj:__ZN6il2cpp2vm13ManagedObject14QueryInterfaceERK10Il2CppGuidPPv
B3c:_SymmetricAlgorithm_CreateDecryptor_m4240570785
cyg:_Type_GetMethod_m3650909507
kH:__ZN11AudioSource4StopEb
jCj:_frexp
gIb:__ZN14SafeBinaryRead21TransferSTLStyleArrayI13dynamic_arrayI10Matrix4x4fLj4EEEEvRT_17TransferMetaFlags
kze:_Collection_1_CheckWritable_m732350052_gshared
ahd:_Byte_System_IConvertible_ToDecimal_m1036493607
hba:__Z25GetSplashScreenBackgroundRK5RectTIfE
q9:__ZN14dense_hash_mapIPKcPK4RTTIN11TypeManager23ConstCharPtrHashFunctorENS5_19ConstCharPtrEqualToE13stl_allocatorINSt3__24pairIKS1_S4_EEL18MemLabelIdentifier6ELi16EEEixERSB_
FXc:__ZN13RuntimeStaticI19UnityConnectServiceLb0EE16StaticInitializeEPv
Qzh:_DefaultComparer_Compare_m1247109616_gshared
qhi:_ResourceManager__ctor_m498829021
XGa:__ZN18GlslGpuProgramGLESD2Ev
K6a:__ZN13RenderTexture14SetVolumeDepthEi
Emg:_SerializationCallbacks__ctor_m722356782
hvc:__ZN10Matrix4x4f8TransferI8JSONReadEEvRT_
G3:__ZN14dense_hash_mapIPKcPK4RTTIN11TypeManager23ConstCharPtrHashFunctorENS5_19ConstCharPtrEqualToE13stl_allocatorINSt3__24pairIKS1_S4_EEL18MemLabelIdentifier6ELi16EEE5beginEv
M1:__ZN17PersistentManager18ReadObjectThreadedEi
_xa:__ZN25TransformFeedbackSkinning31CleanupTransformFeedbackShadersEv
ytj:__ZN6il2cpp6icalls8mscorlib6System7Runtime16CompilerServices14RuntimeHelpers15InitializeArrayEP11Il2CppArray12Il2CppIntPtr
wuh:_InternalEnumerator_1_System_Collections_IEnumerator_get_Current_m2851415307_gshared
xzc:__ZNK20TextRenderingPrivate8FontImpl19GetCharacterAdvanceEjijfPj
vzj:__ZN6il2cpp6icalls8mscorlib4Mono8Security12Cryptography18KeyPairPersistence16_IsUserProtectedEP12Il2CppString
Zpf:_DefaultUriParser__ctor_m4218024811
AGg:_DerivedType_GetField_m3960169619
ryd:_Decimal_System_IConvertible_ToInt16_m3159038792_AdjustorThunk
aub:__ZN10VertexData8TransferI18StreamedBinaryReadILb0EEEEvRT_
v8e:_PKCS12_GetExistingParameters_m2413397265
W6a:__ZN14PreloadManager16UpdatePreloadingEv
vmb:__ZN14SafeBinaryRead21TransferSTLStyleArrayI19StaticArrayTransferIiLi4EEEEvRT_17TransferMetaFlags
IHh:__Z148RuntimeInvoker_Int32_t2071877448_Il2CppObject_Int32_t2071877448_Int32_t2071877448_Il2CppObject_Int32_t2071877448_Int32_t2071877448_Int32_t2071877448PK10MethodInfoPvPS2_
srj:__ZN14dense_hash_mapI10KeyWrapperIPK19Il2CppGenericMethodEP10MethodInfoN6il2cpp8metadata23Il2CppGenericMethodHashENS4_14EqualsComparerINS8_26Il2CppGenericMethodCompareEEENSt3__29allocatorINSD_4pairIKS4_S6_EEEEEC2EjRKS9_RKSC_
ccb:__ZNK21UnityDefaultAllocatorI17LowLevelAllocatorE8ContainsEPKv
Uh:_emscripten_get_main_loop_timing
VSe:_DirectoryInfo__ctor_m3750996792
oLd:_BaseMeshEffect_ModifyMesh_m2134816219
etb:__ZN24GenerateTypeTreeTransfer21TransferSTLStyleArrayINSt3__26vectorIN15QualitySettings14QualitySettingENS1_9allocatorIS4_EEEEEEvRT_17TransferMetaFlags
_4a:__ZN23ManagedAttributeManager52CallManagedGetParentTypeDisallowingMultipleInclusionE17ScriptingClassPtr
Zae:_Array_InternalArray__get_Item_TisAnimatorClipInfo_t3905751349_m2163447872_gshared
$xb:__ZNSt3__26vectorI9InputAxisNS_9allocatorIS1_EEE6resizeEj
kVa:__ZN13BatchRendererC2ER15RenderLoopStatsRK15RenderNodeQueuebbb
Y4c:_SecurityElement_IsValidAttributeValue_m483287146
hbd:_Decoder_set_Fallback_m1780632169
ep:getTempRet0
LTh:__Z81RuntimeInvoker_Void_t1841601450_PlayableHandleU26_t3483893774_Vector3_t2243707580PK10MethodInfoPvPS2_
ydi:_AnimationClipPlayable_set_applyFootIK_m1054409049
rKh:__Z114RuntimeInvoker_Void_t1841601450_Il2CppObject_Il2CppObject_Int32_t2071877448_Il2CppObject_Il2CppObject_Il2CppObjectPK10MethodInfoPvPS2_
PTd:_Image_AddQuad_m1603575622
tef:_PrivateKeyInfo_RemoveLeadingZero_m3396807048
Bfj:__ZN6il2cpp6icalls8mscorlib6System9ThreadingL21lookup_cached_cultureEP12Il2CppThreadi
V$a:__ZN18DeferredRenderLoopD2Ev
z4:__ZNK16TypeTreeIterator4NameEv
AX:__ZN15FileSystemEntry3SetEPKc
m$c:_MACTripleDES__ctor_m884945242
fbc:__Z52Register_UnityEngine_Application_set_targetFrameRatev
SI:__ZN20SoundChannelInstance15ParameterBuffer5ApplyEPN4FMOD7ChannelE
UE:__Z117Register_UnityEngine_Experimental_Director_AnimatorControllerPlayable_INTERNAL_CALL_GetAnimatorTransitionInfoInternalv
uzc:__ZN20TextRenderingPrivate19NativeTextGenerator9InsertTabEv
GRg:_Rect_set_y_m4294916608
PUc:__ZN11UnityEngine15PlatformWrapper24GetRuntimePlatformStringEv
Di:_glIsEnabled
xEb:__Z25scripting_class_get_image17ScriptingClassPtr
Hi:_emscripten_glDrawElementsInstanced
uz:__ZN26AnimatorControllerPlayable27SetupStateMachineBehavioursEv
Vcf:_ARC4Managed_Dispose_m4102232694
ndf:_HMAC_Initialize_m3052649104
Jqa:__ZN18JobBatchDispatcherD2Ev
FXb:__ZN9Transform17MainThreadCleanupEv
Ivj:_GC_clear_hdr_marks
WKj:_glScissor__wrapper
SQj:_emscripten_glCreateShader__wrapper
ZHc:_cff_fd_select_get
eIf:__ZL73CompilationRelaxationsAttribute_t238494011_CustomAttributesCacheGeneratorP21CustomAttributesCache
dYc:__ZN11UnityEngine15PlatformWrapper23GetApplicationBuildGUIDEv
$2c:_SHA512Managed_processBlock_m3220567420
mpf:_NameObjectCollectionBase_get_Keys_m446053925
Ri:_emscripten_glGetShaderiv
ENa:__ZZ23InitPlayerLoopCallbacksvEN41EarlyUpdateUpdateAllUnityWebStreamsstruct7ForwardEv
UJ:__ZN4FMOD6System10getVersionEPj
uTe:_FileLoadException_GetObjectData_m2047020314
d2d:_Array_InternalArray__IndexOf_TisSByte_t454417549_m1427585061_gshared
oNc:__ZN2UI6Canvas23VirtualRedirectTransferER24GenerateTypeTreeTransfer
Mqd:_Decimal_u64_m3991988111
BFi:_Predicate_1_BeginInvoke_m2959352225_gshared
Aih:_Dictionary_2_CopyToCheck_m2147716750_gshared
yvi:_X509Certificate_Parse_m1764345628
Jmi:_SynchronizationAttribute_GetClientContextSink_m1264319894
ayc:__ZN13TextRendering4Font13AwakeFromLoadE17AwakeFromLoadMode
Zua:__ZN9GfxDevice21ReleaseSharedMeshDataEP14SharedMeshData
Ryb:__ZNSt3__27__sort5IRNS_6__lessINS_4pairIPKN5Unity4TypeE7Hash128EES8_EEPS8_EEjT0_SC_SC_SC_SC_T_
rwe:_Collection_1_ConvertItem_m3168406667_gshared
tUi:__ZNK15dense_hashtableINSt3__24pairIK10KeyWrapperIPKcEP11Il2CppClassEES5_N6il2cpp5utils11StringUtils12StringHasherIS4_EEN14dense_hash_mapIS5_S8_SE_NS5_14EqualsComparerINSC_21CaseSensitiveComparerEEENS0_9allocatorIS9_EEE9SelectKeyESI_SK_E10test_emptyEj
Puj:_GC_unreachable_finalize_mark_proc
lwj:_maybe_finalize
Gni:_ConstructionCall_GetObjectData_m3974358557
Fgc:__Z43RectTransform_CUSTOM_INTERNAL_get_anchorMaxP12Il2CppObjectP13Vector2fIcall
xxd:_DateTimeOffset_get_DateTime_m229084964_AdjustorThunk
uga:__ZN8Material28UpdateHashesOnPropertyChangeEN9ShaderLab16FastPropertyNameE
phc:__Z53Register_UnityEngine_SortingLayer_GetLayerValueFromIDv
jmd:_CaseInsensitiveComparer_Compare_m1192858479
jGb:__Z18Transfer_BlittableI14SafeBinaryReadLb1E8Vector4fEvRK29SerializationCommandArgumentsR31RuntimeSerializationCommandInfo
hYd:_LayoutRebuilder_Clear_m2390054824
MEg:_Default_SelectMethod_m622251293
_L:__ZN11AudioSource12AddToManagerEv
Hr:__ZN8Animator23VirtualRedirectTransferER19StreamedBinaryWriteILb0EE
Kv:__ZN11UnityEngine9Animation32CreateAnimatorGenericBindingsOptERKNS0_20AnimationSetBindingsER9TransformPKN7mecanim9animation14AvatarConstantEPKNS0_21AvatarBindingConstantEbRNS6_6memory9AllocatorER8Animator
Ulj:__ZN6il2cpp2vm5Image13ClassFromNameEPK11Il2CppImagePKcS6_
dHj:dynCall_vdddddd
QUb:__ZN24GenerateTypeTreeTransfer21TransferSTLStyleArrayINSt3__26vectorIN9ShaderLab14SerializedPassENS1_9allocatorIS4_EEEEEEvRT_17TransferMetaFlags
r1:__ZL32MarkLevelGameManagerDependenciesR27GarbageCollectorThreadState
hxa:__ZNK13GfxDeviceGLES26HasActiveRandomWriteTargetEv
NLj:_glGetActiveUniformsiv__wrapper
mhc:__Z43Register_UnityEngine_Material_EnableKeywordv
R2:__ZN13MonoBehaviour19SetupScriptingCacheE17ScriptingClassPtrP10MonoScript
JOh:__Z59RuntimeInvoker_Il2CppObject_Double_t4078015681_Il2CppObjectPK10MethodInfoPvPS2_
Zq:__Z20AnimationEventToMonoRK14AnimationEventR18MonoAnimationEvent
C7f:__ZL74UnityEventBase_t828812576_CustomAttributesCacheGenerator_m_PersistentCallsP21CustomAttributesCache
Dhj:__ZN6il2cpp2vm13LivenessState18ShouldProcessValueEP12Il2CppObjectP11Il2CppClass
bKh:__Z45RuntimeInvoker_Il2CppObject_IntPtr_t_IntPtr_tPK10MethodInfoPvPS2_
mUb:__ZNSt3__26vectorIN9ShaderLab14SerializedPassENS_9allocatorIS2_EEE8__appendEj
FTb:__ZNSt3__26vectorIN9ShaderLab20SerializedSubProgram13BufferBindingENS_9allocatorIS3_EEEC2INS_11__wrap_iterIPS3_EEEET_SB_RKS5_PNS_9enable_ifIXaasr21__is_forward_iteratorISB_EE5valuesr16is_constructibleIS3_NS_15iterator_traitsISB_E9referenceEEE5valueEvE4typeE
F2b:__ZZL23RegisterLightPropertiesR22GenericPropertyBindingEN20Wrapper_LightColorb213GetFloatValueEPv
RHh:__Z170RuntimeInvoker_Int32_t2071877448_Il2CppObject_Int32_t2071877448_Int32_t2071877448_Il2CppObject_Int16_t4041245914_Int32_t2071877448_SByte_t454417549_ContextU26_t3131521781PK10MethodInfoPvPS2_
mqb:__ZN9Texture2D23VirtualRedirectTransferER18StreamedBinaryReadILb0EE
_Ad:_Double_System_IConvertible_ToUInt16_m286326038_AdjustorThunk
Okg:_TypeInfo__ctor_m1475908211
nib:__ZNSt3__26__treeINS_12__value_typeIN4core12basic_stringIcNS2_20StringStorageDefaultIcEEEEjEENS_19__map_value_compareIS6_S7_NS_4lessIS6_EELb1EEE13stl_allocatorIS7_L18MemLabelIdentifier6ELi16EEE7destroyEPNS_11__tree_nodeIS7_PvEE
x3:__ZN16ScriptingManager27NativeTypeForScriptingClassE17ScriptingClassPtr
yuf:_X509Chain_WrapUp_m1072032285
Uwi:_X509CertificateEnumerator_System_Collections_IEnumerator_MoveNext_m1448966539
$Ec:_get_sfnt_table
vbe:_Object_FindObjectOfType_TisIl2CppObject_m2967490724_gshared
Uhf:_TlsServerHelloDone__ctor_m2125611008
GPa:_unity_z_tr_stored_block
OZb:__Z13RegisterClassI5LightEvv
z0d:_Array_compare_TisIl2CppObject_m1481822507_gshared
_Hd:_PointerEventData_set_pressPosition_m2094137883
h1a:__ZL22ScheduleSceneNodesJobsP25ScheduleSceneNodesJobDataj
Fk:_emscripten_set_canvas_size
Hbf:_BigInteger_op_Subtraction_m972393015
gBh:_Comparer_1__cctor_m2253684996_gshared
XTb:__ZNSt3__26vectorIN9ShaderLab20SerializedSubProgramENS_9allocatorIS2_EEE8__appendEj
PU:__ZN20DynamicHeapAllocatorI17LowLevelAllocatorE8AllocateEji
SSc:__ZN11UnityEngine9Analytics15UserCustomEvent12ToJsonStringER9JSONWrite
MVa:__ZN20DynamicPropertySheet15SetVectorQueuedERKN9ShaderLab16FastPropertyNameERK8Vector4fN19ShaderPropertySheet8SetFlagsE
PEe:_ReadOnlyCollection_1_System_Collections_IEnumerable_GetEnumerator_m4248982967_gshared
os:__ZN7mecanim9animation22EvaluateAvatarRetargetEPKNS0_14AvatarConstantEPKNS0_11AvatarInputEPNS0_12AvatarOutputEPNS0_12AvatarMemoryEPNS0_15AvatarWorkspaceEb
xnb:__ZN14RenderSettings23VirtualRedirectTransferER19StreamedBinaryWriteILb0EE
Jrc:__ZL26Transfer_SimpleNativeClassI9JSONWrite10RectOffsetLb0EEvRK29SerializationCommandArgumentsR31RuntimeSerializationCommandInfo
hvj:_GC_push_conditional
dTc:__ZN21UnityAnalyticsManager23VirtualRedirectTransferER24GenerateTypeTreeTransfer
JAa:__ZN17GenericDynamicVBO10AllocateVBEjR21DynamicVBOChunkHandle
Bhe:_List_1_get_Item_m1547593893_gshared
GSe:_Path_GetPathRoot_m1269357080
Qjj:__ZN30dense_hashtable_const_iteratorI10KeyWrapperIP18Il2CppGenericClassES3_N6il2cpp8metadata22Il2CppGenericClassHashEN14dense_hash_setIS3_S6_NS3_14EqualsComparerINS5_25Il2CppGenericClassCompareEEENSt3__29allocatorIS3_EEE8IdentityESA_SD_EppEv
pGd:_EventSystem_SetSelectedGameObject_m2211816110
bl:_glMapBufferRange
fqb:__ZN9Texture2D8TransferI18StreamedBinaryReadILb0EEEEvRT_
yec:__Z31Input_CUSTOM_GetMouseButtonDowni
Rrj:__ZN15dense_hashtableINSt3__24pairIK10KeyWrapperIPK19Il2CppGenericMethodEP10MethodInfoEES6_N6il2cpp8metadata23Il2CppGenericMethodHashEN14dense_hash_mapIS6_S9_SD_NS6_14EqualsComparerINSC_26Il2CppGenericMethodCompareEEENS0_9allocatorISA_EEE9SelectKeyESH_SJ_E3endEv
W4b:__ZN13PlayableGraph4PlayEv
wTa:__ZNK9Transform16GetLocalPositionEv
Tra:__ZN13LoadOperation19IntegrateTimeSlicedEi
Psb:__ZNK15QualitySettings26GetTypeInfoVirtualInternalEv
a9e:_X501__cctor_m3795360380
uxa:__ZN13GfxDeviceGLES22DispatchComputeProgramE12ObjectHandleI18ComputeProgram_TagPvE15ComputeBufferIDj
VVg:_GUIStyle_set_contentOffset_m2138084868
oue:_Collection_1_System_Collections_ICollection_CopyTo_m4193844941_gshared
ytd:_Convert_ToInt32_m2297793940
nqa:__Z17TransformAABBSlowRK4AABBRK10Matrix4x4fRS_
_qb:__ZN15SerializeTraitsI13dynamic_arrayI7Hash128Lj8EEE19ResizeSTLStyleArrayERS2_i18MemLabelIdentifier
qcj:__ZN13Il2CppHashMapINSt3__24pairIPK9FieldInfoP11Il2CppClassEEj17ReflectionMapHashIS7_ENS0_8equal_toIS7_EENS0_9allocatorINS1_IK10KeyWrapperIS7_EjEEEEEC2EjRKS9_RKSB_
MSb:__ZN9ShaderLab21SerializedShaderState8TransferI14SafeBinaryReadEEvRT_
JMi:_Terminal_NotifyCommandHandlers_m2901839470
Z1c:_RSAPKCS1SignatureFormatter_SetKey_m2365816458
WIc:_cf2_stack_pushInt
Mtg:_CompressedStack__ctor_m276924800
EHd:_ExecuteEvents_get_cancelHandler_m1964324668
Fha:__ZN15SerializeTraitsINSt3__24pairIN4core12basic_stringIcNS2_20StringStorageDefaultIcEEEES6_EEE8TransferI24GenerateTypeTreeTransferEEvRS7_RT_
mOj:b89
lOj:b88
NNj:b81
GNj:b80
VNj:b83
a4:__ZN18ResourceImageGroup7CleanupEv
eOj:b85
Jei:_AnimatorControllerPlayable_SetTrigger_m3144166126
gOj:b87
fOj:b86
gbh:_ToggleGroup_RegisterToggle_m3118973598
k2b:__ZN13ProduceHelperI4MeshLb0EE7ProduceE18MemLabelIdentifier18ObjectCreationMode
ref:_PrivateKeyInfo_Decode_m1053025782
d8e:_PKCS12_Decrypt_m2457743414
kob:__ZN8Playable19SetOutputConnectionEPS_i
MTi:__ZN15dense_hashtableINSt3__24pairIK10KeyWrapperIPK11Il2CppClassEPKcEES6_N6il2cpp5utils11PointerHashIS3_EEN14dense_hash_mapIS6_S9_SE_NS6_14EqualsComparerINS0_8equal_toIS5_EEEENS0_9allocatorISA_EEE9SelectKeyESJ_SL_EC2ERKSO_j
Rl:_glDeleteShader
RCd:_Exception_GetType_m3898489832
Vka:__ZN6prcoreL17RemapGenericFloatI15TexFormatRGHalf16TexFormatRGFloatEEvPKNS_9InnerInfoE
pre:_Stack_1_Peek_m1548778538_gshared
zNa:__ZZ23InitPlayerLoopCallbacksvEN38EarlyUpdateExecuteMainThreadJobsstruct7ForwardEv
S8g:_Shadow_set_effectColor_m3110056844
cac:__Z27scripting_add_internal_callPKcPKv
x5d:_Array_InternalArray__Insert_TisUriScheme_t1876590943_m2728325409_gshared
acj:__ZN13Il2CppHashMapINSt3__24pairIPK9EventInfoP11Il2CppClassEEj17ReflectionMapHashIS7_ENS0_8equal_toIS7_EENS0_9allocatorINS1_IK10KeyWrapperIS7_EjEEEEEC2EjRKS9_RKSB_
ukj:__GLOBAL__sub_I_GarbageCollector_cpp
fxi:_X509Store_CheckStore_m1027496478
f_h:__Z87RuntimeInvoker_Int32_t2071877448_UIVertex_t1204258818_UIVertex_t1204258818_Il2CppObjectPK10MethodInfoPvPS2_
WTh:__Z93RuntimeInvoker_TextGenerationError_t780770201_Il2CppObject_TextGenerationSettings_t2543476768PK10MethodInfoPvPS2_
Mu:__ZN26AnimatorControllerPlayable18SetLayerAutoWeightEv
Hb:invoke_vffff
PEj:__ZNSt3__212basic_stringIcNS_11char_traitsIcEENS_9allocatorIcEEEC2ERKS5_jjRKS4_
s9c:_String_Contains_m4017059963
uzh:_DefaultComparer_Compare_m1606207039_gshared
yPc:__ZN2UI14CanvasRenderer12SyncMaterialENS0_8SyncFlagE
jzj:__ZN6il2cpp2vm9Parameter30GetDefaultParameterValueObjectEPK10MethodInfoPK13ParameterInfoPb
i6d:_Array_InternalArray__set_Item_TisLabelData_t3712112744_m2253365137_gshared
tZg:_MonoBehaviour_Invoke_m666563676
ilf:_RecordProtocol_InternalReceiveRecordCallback_m2228921492
WWe:_StringReader__ctor_m643998729
Uqf:_IPv6Address_TryParse_m2220524278
WNh:__Z75RuntimeInvoker_DateTime_t693205669_DateTime_t693205669_TimeSpan_t3430258949PK10MethodInfoPvPS2_
SEc:_UNITY_tt_face_done_kern
xli:_Context_get_DefaultContext_m2211922324
soc:__Z59GUIStyle_CUSTOM_Internal_GetNumCharactersThatFitWithinWidth13Il2Cpp_IntPtrP12Il2CppStringf
Ief:_RSAManaged_GetPaddedValue_m2972141669
B7g:_ScrollRect_OnDrag_m1424848249
xaa:__Z19scripting_gc_enablev
mkc:__ZN20UnityWebRequestProtoI19TransportJavaScript16AtomicRefCounter14RedirectHelper14ResponseHelper15DownloadHandler13UploadHandler12HeaderHelper14AsyncOperationE9DoRequestEv
xri:_AnchorInfo__ctor_m617409099
sRc:__Z55Register_UnityEngine_CanvasRenderer_DisableRectClippingv
Tyf:_Interval_CompareTo_m2909556284_AdjustorThunk
nvb:__ZN14SafeBinaryRead21TransferSTLStyleArrayI13dynamic_arrayI11ColorRGBA32Lj4EEEEvRT_17TransferMetaFlags
Kxf:_Interpreter_GetLastDefined_m2450713313
Oqi:_Parser_ParseAssertionType_m3316669790
t8g:_Selectable_get_isPointerDown_m774209881
zXb:__ZNSt3__27__sort4IRNS_6__lessIN4core12basic_stringIcNS2_20StringStorageDefaultIcEEEES6_EEPS6_EEjT0_SA_SA_SA_T_
IHj:dynCall_viiiifii
Eaj:__ZN6il2cpp2gc19AppendOnlyGCHashMapINSt3__24pairIPK11Il2CppImageP11Il2CppClassEEP22Il2CppReflectionModule17ReflectionMapHashIS9_ENS2_8equal_toIS9_EEEC2Ev
J1:__Z20GetPersistentManagerv
hMc:_UNITY_TT_Set_Var_Design
_9:__ZN21SystemInfoStringCache16StaticInitializeEPv
dgf:_TlsStream__ctor_m4117943603
r7i:__ZN15dense_hashtableINSt3__24pairIK10KeyWrapperIPK10Il2CppTypeEjEES6_N6il2cpp8metadata14Il2CppTypeHashEN14dense_hash_mapIS6_jSB_NS6_14EqualsComparerINSA_26Il2CppTypeEqualityComparerEEENS0_9allocatorIS8_EEE9SelectKeyESF_SH_E12maybe_shrinkEv
iah:_Text_FontTextureChanged_m4236993972
Hqj:__ZN6il2cpp2gc16GarbageCollector23MakeDescriptorForObjectEPji
fPg:_ParameterModifier_t1820634920_marshal_pinvoke
ADb:__ZNK13MonoBehaviour7GetNameEv
Dma:__ZN19ScriptingInvocation28AdjustArgumentsToMatchMethodEv
akj:__ZN15dense_hashtableI10KeyWrapperIP18Il2CppGenericClassES3_N6il2cpp8metadata22Il2CppGenericClassHashEN14dense_hash_setIS3_S6_NS3_14EqualsComparerINS5_25Il2CppGenericClassCompareEEENSt3__29allocatorIS3_EEE8IdentityESA_SD_E6insertERKS3_
klb:__Z20RenderMultipleMeshesRK15RenderNodeQueueRK18RenderMultipleData17ShaderChannelMask
z5i:__ZN6il2cpp2vm4Type19GetGenericParameterEPK10Il2CppType
UQc:__Z51Register_UnityEngine_CanvasGroup_get_blocksRaycastsv
Zxh:_InternalEnumerator_1_get_Current_m2826780083_gshared
pRj:b119
evc:__ZN8JSONRead21TransferSTLStyleArrayI13dynamic_arrayI11ColorRGBA32Lj4EEEEvRT_18MemLabelIdentifier17TransferMetaFlags
Rih:_Dictionary_2_GetEnumerator_m1752238884_gshared
N8i:__ZNK15dense_hashtableINSt3__24pairIK10KeyWrapperINS1_IPK11Il2CppImageP11Il2CppClassEEEjEES9_17ReflectionMapHashIS8_EN14dense_hash_mapIS9_jSD_NS9_14EqualsComparerINS0_8equal_toIS8_EEEENS0_9allocatorISB_EEE9SelectKeyESI_SK_E3endEv
vd:_glBeginQuery
ADg:_Assembly_GetCustomAttributes_m95309865
RQg:_GUILayoutUtility_INTERNAL_CALL_Internal_GetWindowRect_m3236664463
_Qa:__ZN6Camera12RenderStereoENS_10RenderFlagE8CullFlagPNS_24PerformEyeRenderFunctionE
JW:__ZN20LocalFileSystemPosix10ToAbsoluteEPKc
fSd:_GridLayoutGroup__ctor_m1099847132
OHh:__Z136RuntimeInvoker_Boolean_t3825574718_Il2CppObject_Il2CppObject_Int32_t2071877448_Int32_t2071877448_SByte_t454417549_ContextU26_t3131521781PK10MethodInfoPvPS2_
DQa:_UNITY_png_default_flush
pkd:_ArrayListWrapper_set_Capacity_m2792463350
eDj:_getcwd
Irg:_StringBuilder_Append_m1128243247
Nbb:__ZN25ThreadsafeLinearAllocatorD2Ev
mvd:_DateTime_get_Year_m1985210972
Waa:__Z21SendMessageToEveryoneRK17MessageIdentifier11MessageData
n7:__ZN21BillboardBatchManager16StaticInitializeEPv
WTg:_Object_get_name_m2079638459
nRj:b117
oZ:__ZN12_GLOBAL__N_138ArchiveRedirectFileSystemStaticDestroyEPv
ICd:_EventHandler_Invoke_m1137722757
GWi:__ZNK15dense_hashtableINSt3__24pairIK10KeyWrapperI13dynamic_arrayIPK10Il2CppTypeLj4EEEPFvvEEES8_N6il2cpp8metadata19Il2CppSignatureHashEN14dense_hash_mapIS8_SB_SF_NS8_14EqualsComparerINSE_22Il2CppSignatureCompareEEENS0_9allocatorISC_EEE9SelectKeyESJ_SL_E5beginEv
r_e:_MonoType_IsSubclassOf_m2211166238
Mve:_Collection_1_System_Collections_ICollection_CopyTo_m2859266050_gshared
Hu:__ZN7mecanim14ValueArrayCopyEPKNS_10ValueArrayEPS0_PKNS_14ValueArrayMaskE
Svj:_GC_continue_reclaim
CRe:_InvalidCastException__ctor_m2730571470
dwf:_X509ChainElementCollection_System_Collections_IEnumerable_GetEnumerator_m2559704689
ttf:_PublicKey_get_Key_m126090744
oAc:__ZNSt3__23mapIN20TextRenderingPrivate7FontRefEP11FT_FaceRec_NS_4lessIS2_EENS_9allocatorINS_4pairIKS2_S4_EEEEEixERS9_
tJa:__ZN17ArchiveFileSystem10AddStorageEP20ArchiveStorageReader
G9h:_Color_Equals_m661618137
VEa:__ZN12_GLOBAL__N_112UploadFormatE13TextureFormat
flh:_EqualityComparer_1_System_Collections_IEqualityComparer_GetHashCode_m1203798961_gshared
CNi:__ZN6il2cpp2vm5Class15GetEnumBaseTypeEP11Il2CppClass
zpb:__ZNK9Texture2D16GetNpotTexelSizeEv
Q2g:_Mask_get_rectTransform_m3304369086
wAi:_TooltipAttribute__ctor_m2640804852
sgi:_AnimatorControllerPlayable_INTERNAL_CALL_PlayInFixedTimeInternal_m847261734
OAa:__ZN9GfxDevice22GetDefaultVertexBufferE26GfxDefaultVertexBufferTypej
mue:_Collection_1__ctor_m3903788797_gshared
kEe:_ReadOnlyCollection_1_System_Collections_ICollection_CopyTo_m1129689124_gshared
wDj:___fseeko_unlocked
RXh:__Z162RuntimeInvoker_Void_t1841601450_Il2CppObject_Int32_t2071877448_SByte_t454417549_SByte_t454417549_SingleU26_t4173844468_SingleU26_t4173844468_SingleU26_t4173844468PK10MethodInfoPvPS2_
INj:_glGetActiveUniform__wrapper
oDj:_sscanf
Gvb:__ZN14SafeBinaryRead21TransferSTLStyleArrayINSt3__26vectorI17BlendShapeChannelNS1_9allocatorIS3_EEEEEEvRT_17TransferMetaFlags
Via:__Z17BeginSplashScreenv
rCi:_Vector3__ctor_m2638739322_AdjustorThunk
AVb:__ZN9ShaderLab16SerializedShader8TransferI19StreamedBinaryWriteILb0EEEEvRT_
zzg:_UInt32_Parse_m2400360707
rA:__ZN7mecanim9animation18CreateAvatarMemoryEPKNS0_14AvatarConstantERNS_6memory9AllocatorE
Zpd:_Stack_Pop_m3788808882
QBh:_Enumerator_VerifyCurrent_m4246196125_AdjustorThunk
Ywd:_DateTime_op_Equality_m1867073872
Gt:__ZN7mecanim8skeleton16SkeletonPoseCopyIN4math4trsXENS2_7affineXEEEvPKNS0_13SkeletonPoseTIT_EEPNS5_IT0_EE
uAa:__ZN18GfxFramebufferGLES18GetFramebufferNameERK20GfxRenderTargetSetup
jGj:_saveSetjmp
Xhj:__ZN6il2cpp6icalls8mscorlib6System2IO6MonoIO11GetFileTypeE12Il2CppIntPtrPi
Umc:__Z30Event_Get_Custom_PropCharacterP12Il2CppObject
OZ:__ZN13PlayableGraph27SchedulePlayableDestructionERK9HPlayable
QKj:_glGetFramebufferAttachmentParameteriv__wrapper
bHb:__Z22scripting_array_length17ScriptingArrayPtr
U4c:_SecurityElement_GetAttribute_m4288291176
oJi:_IndexedSet_1_get_Count_m2839545138_gshared
Lpa:__ZN14SafeBinaryRead20TransferTypelessDataEjPvi
chi:_RenderPipelineManager_get_currentPipeline_m679160301
hIf:__ZL66StringFreezingAttribute_t2691375565_CustomAttributesCacheGeneratorP21CustomAttributesCache
Hqc:__ZN9rapidjson13GenericReaderINS_4UTF8IcEES2_13JSONAllocatorE10ParseFalseILj1ENS_25GenericInsituStringStreamIS2_EENS_15GenericDocumentIS2_S3_S3_EEEEvRT0_RT1_
d0:__Z19GetActiveColorSpacev
tlh:_EqualityComparer_1__cctor_m1672307556_gshared
Tig:_SoapTypeAttribute_get_IsInteropXmlElement_m2941294827
jEc:_UNITY_tt_face_load_kern
lee:_Enumerator_System_Collections_IEnumerator_get_Current_m3542273247_gshared
Fid:_Char_System_IConvertible_ToUInt32_m1557991717_AdjustorThunk
dad:_Encoding_get_UTF8Unmarked_m628720656
oKe:_NumberFormatter_RoundBits_m1545255255
L0:__Z6StrCmpPKcS0_
VWb:__Z21CheckGpuProgramUsable20ShaderGpuProgramType
vEg:_Binder__cctor_m3736115807
jqj:__ZN6il2cpp2os9Directory20GetFileSystemEntriesERKNSt3__212basic_stringIcNS2_11char_traitsIcEENS2_9allocatorIcEEEESA_iiPi
Kih:_Dictionary_2_OnDeserialization_m2160537783_gshared
lzc:__ZN20TextRenderingPrivate19NativeTextGenerator5SetupEv
Gzb:__ZN12AspectRatios8TransferI18StreamedBinaryReadILb0EEEEvRT_
u4b:__ZN10GameObject14CopyPropertiesERS_
Xoc:__Z44Register_UnityEngine_GUIStyle_get_fixedWidthv
s1c:_RSACryptoServiceProvider_Common_m2581564813
Gvi:_X509CertificateEnumerator_MoveNext_m4060814498
XUe:_MemoryStream_CheckIfClosedThrowDisposed_m2253054610
Zoh:_ArrayReadOnlyList_1_GetEnumerator_m634288642_gshared
r7a:__ZNK13ScreenManager12IsFullScreenEv
RDj:_rand
rLj:_emscripten_glFramebufferRenderbuffer__wrapper
Wqj:__ZN6il2cpp5utils9PathUtils7CombineIcEENSt3__212basic_stringIT_NS3_11char_traitsIS5_EENS3_9allocatorIS5_EEEERKNS0_10StringViewIS5_EERKSA_
sfi:_AnimatorControllerPlayable_INTERNAL_CALL_GetNextAnimatorStateInfoInternal_m1550960895
SHb:__ZN14SafeBinaryRead21TransferSTLStyleArrayINSt3__26vectorI17AnimationCurveTplIfE13stl_allocatorIS4_L18MemLabelIdentifier1ELi16EEEEEEvRT_17TransferMetaFlags
Bbc:__Z60Register_UnityEngine_AsyncOperation_set_allowSceneActivationv
_lg:_ObjectManager_RegisterObject_m872610295
R0a:__Z22PrepareOptimizedPlanesPK5PlaneiPKN4math7_float4E
N0g:_RectOffset_t3387826427_marshal_pinvoke
SQd:_Graphic_SetVerticesDirty_m1607014370
l7:__ZN17UniqueIDGenerator15CreatePureIndexEv
rB:__ZN11UnityEngine9Animation28GenericAnimationBindingCache15DidReloadDomainEv
oaf:_AppDomain_InternalGetProcessGuid_m1278588156
iWd:_InputField_MoveRight_m386206014
h_d:_Array_InternalArray__ICollection_Remove_TisIl2CppObject_m2425110446_gshared
YRe:_BinaryReader_ReadBoolean_m2892291883
SMi:__ZN15dense_hashtableINSt3__24pairIK10KeyWrapperIPK22Il2CppGenericParameterEP11Il2CppClassEES6_N6il2cpp5utils11PointerHashIS4_EEN14dense_hash_mapIS6_S9_SE_NS6_14EqualsComparerINS0_8equal_toIS5_EEEENS0_9allocatorISA_EEE9SelectKeyESJ_SL_E14squash_deletedEv
rAb:__ZNSt3__26__treeINS_12__value_typeIN4core12basic_stringIcNS2_20StringStorageDefaultIcEEEE4PPtrI6ObjectEEENS_19__map_value_compareIS6_SA_NS_4lessIS6_EELb1EEE13stl_allocatorISA_L18MemLabelIdentifier51ELi16EEE7destroyEPNS_11__tree_nodeISA_PvEE
Q2b:__ZZL23RegisterLightPropertiesR22GenericPropertyBindingEN18Wrapper_LightRange13SetFloatValueEPvf
$ad:_ASCIIEncoding_GetString_m3931709239
s0:__ZNK9Transform18TransformDirectionERK8Vector3f
CRg:_GUILayoutEntry_SetHorizontal_m1828181654
tQj:_emscripten_glClearStencil__wrapper
aMi:_DisplayBuffer_Clear_m2710351534
AXi:__ZN15dense_hashtableINSt3__24pairIK10KeyWrapperIPK11Il2CppClassEPKcEES6_N6il2cpp5utils11PointerHashIS3_EEN14dense_hash_mapIS6_S9_SE_NS6_14EqualsComparerINS0_8equal_toIS5_EEEENS0_9allocatorISA_EEE9SelectKeyESJ_SL_E12resize_deltaEjj
AFj:__ZNK10__cxxabiv120__si_class_type_info27has_unambiguous_public_baseEPNS_19__dynamic_cast_infoEPvi
eJj:_glTexSubImage3D__wrapper
fxf:_FactoryCache_Add_m2602974721
UOa:__Z21WriteImageAsyncThreadPv
p6:__ZL16GetInterfaceImpl18UnityInterfaceGUID
jMe:_RegionInfo_construct_internal_region_from_name_m3316088619
VNi:__ZN6il2cpp2vmL17SetupFieldOffsetsENS0_15FieldLayoutKindEP11Il2CppClassjRKNSt3__26vectorIjNS4_9allocatorIjEEEE
_fe:_List_1_System_Collections_IList_get_Item_m936612973_gshared
tsj:__ZN6il2cpp6icalls8mscorlib6System15MonoCustomAttrs27GetCustomAttributesInternalEP12Il2CppObjectP20Il2CppReflectionTypeb
pMc:_UNITY_TT_Set_MM_Blend
wya:__Z24PluginsSetGraphicsDevicePvi18GfxDeviceEventType
img:_ObjectReader_ReadAssembly_m869834280
Akb:__ZN22RenderingCommandBufferD0Ev
Yze:_Collection_1_IsSynchronized_m971497175_gshared
oHd:_ExecuteEvents_Execute_m1617536317
fah:_Text_get_cachedTextGeneratorForLayout_m1357670532
nI:__ZL31InitializeAudioScriptingClassesv
rTa:__Z14SortGUIByDepthP10GUIElementS0_
XOe:_NumberFormatter_NumberToString_m126384393
WMj:_emscripten_glVertexAttrib4fv__wrapper
v6:__ZN13RuntimeStaticI13dynamic_arrayIPK31TransferFunctionScriptingTraitsLj4EELb0EE16StaticInitializeEPv
Xni:_LogicalCallContext__ctor_m3173272863
Xei:_AnimatorControllerPlayable_IsParameterControlledByCurveString_m4036987523
dZe:_MonoCustomAttrs__cctor_m2608447972
KOe:_Int32_FindSign_m3803672540
$Bh:_Enumerator_System_Collections_IEnumerator_Reset_m70453843_AdjustorThunk
sX:__ZNK20LocalFileSystemPosix21GetAvailableDiskSpaceEPKcRy
baa:__ZNSt3__26__treeIiNS_4lessIiEENS_9allocatorIiEEE7destroyEPNS_11__tree_nodeIiPvEE
Vff:_CipherSuite_InitializeCipher_m229247572
Otf:_X509Certificate2__ctor_m1095336775
mua:__ZNK9GfxDevice14GetWorldMatrixEv
wOg:_MonoProperty_GetGetMethod_m1100580870
bWa:__Z19scripting_array_new17ScriptingClassPtrjj
cN:__ZN11SoundHandle13CreateChannelEb
Mqb:__ZN14SafeBinaryRead21TransferSTLStyleArrayI13dynamic_arrayI12LightmapDataLj4EEEEvRT_17TransferMetaFlags
Iaf:_ArgumentException__ctor_m3312963299
cUb:__ZNSt3__26vectorIN9ShaderLab20SerializedSubProgram16TextureParameterENS_9allocatorIS3_EEE6assignIPS3_EENS_9enable_ifIXaasr21__is_forward_iteratorIT_EE5valuesr16is_constructibleIS3_NS_15iterator_traitsISA_E9referenceEEE5valueEvE4typeESA_SA_
PEi:_U3CCreateWhereIteratorU3Ec__Iterator1D_1_MoveNext_m3533253043_gshared
kbj:__ZN15dense_hashtableINSt3__24pairIK10KeyWrapperIPK22Il2CppGenericParameterEPK24MonoGenericParameterInfoEES6_N6il2cpp5utils11PointerHashIS4_EEN14dense_hash_mapIS6_SA_SF_NS6_14EqualsComparerINS0_8equal_toIS5_EEEENS0_9allocatorISB_EEE9SelectKeyESK_SM_E15set_deleted_keyERKSB_
Kwf:_X509SubjectKeyIdentifierExtension__ctor_m3887138480
tce:_Enumerator_System_Collections_IEnumerator_get_Current_m2853089017_AdjustorThunk
Ig:_emscripten_exit_fullscreen
gUd:_InputField_get_mesh_m3276583786
Zii:_GCHandle_Free_m1639542352_AdjustorThunk
Poj:__ZN6il2cpp6icalls8mscorlib6System6String19InternalAllocateStrEi
Cvc:__Z29Transfer_Blittable_ArrayFieldI8JSONRead11QuaternionfEvRT_R9ArrayInfoRK23StaticTransferFieldInfo
jKf:__ZL65SoapParameterAttribute_t2780084514_CustomAttributesCacheGeneratorP21CustomAttributesCache
pcc:__Z45Register_UnityEngine_Camera_get_targetDisplayv
S1b:__ZNK24RendererAnimationBinding15GenerateBindingERKN4core12basic_stringIcNS0_20StringStorageDefaultIcEEEEbRN11UnityEngine9Animation14GenericBindingE
mkb:__Z15GetFlareManagerv
Uoi:_Enumerator_System_Collections_IEnumerator_get_Current_m1429268283
TBe:_ReadOnlyCollection_1_System_Collections_Generic_ICollectionU3CTU3E_Clear_m388357963_gshared
QBj:___toread
nT:__ZN19CloudServiceHandler10QueueEventEPN11UnityEngine15CloudWebService14CloudEventInfoE
bGj:___cxa_is_pointer_type
L9c:_String_Concat_m56707527
mu:__ZN7mecanim9animation16EvaluateAvatarDXEPKNS0_14AvatarConstantEPKNS0_11AvatarInputEPNS0_12AvatarMemoryEPNS0_15AvatarWorkspaceEPNS0_12AvatarOutputE
_Da:__ZN4gles20DestroyRenderSurfaceEP7ApiGLESP17RenderSurfaceGLES
sce:_Enumerator_System_Collections_IEnumerator_get_Current_m2853089017_gshared
Aic:__Z34Transform_CUSTOM_SetAsFirstSiblingP12Il2CppObject
sia:__ZN17PersistentManager40GlobalToLocalSerializedFileIndexInternalERK26SerializedObjectIdentifier
$Q:__ZN11UnityEngine15CloudWebService17SessionEventQueue14ParseEventDataERKN4core12basic_stringIcNS2_20StringStorageDefaultIcEEEE
_Ed:_BaseEventData_get_selectedObject_m3551206992
u1e:_SimpleCollator_CompareOrdinal_m2176988387
vDd:_CCGregorianCalendar_GetYear_m1289900195
ZTh:__Z441RuntimeInvoker_Boolean_t3825574718_Il2CppObject_Il2CppObject_Il2CppObject_ColorU26_t3402129837_Int32_t2071877448_Single_t2076509932_Single_t2076509932_Int32_t2071877448_SByte_t454417549_SByte_t454417549_Int32_t2071877448_Int32_t2071877448_Int32_t2071877448_Int32_t2071877448_SByte_t454417549_Int32_t2071877448_Single_t2076509932_Single_t2076509932_Single_t2076509932_Single_t2076509932_SByte_t454417549_SByte_t454417549_UInt32U26_t2197289955PK10MethodInfoPvPS2_
VOe:_Int16_ToString_m2592645088
Sya:__ZN13TranslateGLES4InitERK12GraphicsCaps16GfxDeviceLevelGL
Jng:_SerializationInfoEnumerator_Reset_m2206466680
Yjc:__ZN18CrashReportManager12CloseServiceEv
_Na:__ZZ23InitPlayerLoopCallbacksvEN33PostLateUpdateInputEndFramestruct7ForwardEv
NTc:__Z32CustomEventData_CUSTOM_AddUInt32P12Il2CppObjectP12Il2CppStringj
aLi:_GenericEqualityComparer_1_Equals_m1934771410_gshared
ECb:__ZN24RingBufferMemoryFileDataD0Ev
XAb:__ZNSt3__26vectorIN30RuntimeInitializeOnLoadManager15ClassMethodInfoE13stl_allocatorIS2_L18MemLabelIdentifier12ELi16EEE8__appendEj
_$b:__ZN13ProduceHelperI10TagManagerLb0EE7ProduceE18MemLabelIdentifier18ObjectCreationMode
tPh:__Z84RuntimeInvoker_Il2CppObject_Il2CppObject_Il2CppObject_Il2CppObject_Int32_t2071877448PK10MethodInfoPvPS2_
Tzj:__ZN6il2cpp2os6Memory12AlignedAllocEjj
Atj:__ZN6il2cpp8metadataL7CompareEPK10Il2CppTypeS3_
_Pg:_GameObject_set_layer_m2712461877
Aef:_RSAManaged__ctor_m1370411656
l9b:__ZL27GetComponentsImplementationILb0ELi0EEbR10GameObjectbRK17CompareParametersRK39GetComponentsImplementation_ReturnValue
g3:__Z21CreateMonoScriptCacheRKN4core12basic_stringIcNS_20StringStorageDefaultIcEEEE17ScriptingClassPtr22InitScriptingCacheTypeP6Objecti
hEb:__ZN9Scripting36IsSystemCollectionsGenericDictionaryE17ScriptingClassPtr
a5g:_Raycast3DCallback_EndInvoke_m3234280377
Uri:_BalancingGroup__ctor_m2474435406
KNd:_ColorTweenCallback__ctor_m3619686788
E4:__ZL16ReadTypeTreeImplILb0EEbR8TypeTreeRK16TypeTreeIteratorRPKhS6_i
lhd:_Byte_System_IConvertible_ToInt32_m1032609763_AdjustorThunk
nMi:_Hacker_StartGame_m1755528023
YWb:__ZN9ShaderLab7ProgramD0Ev
Rnb:__ZNK22BuiltinResourceManager21GetResourceInstanceIDEPKN5Unity4TypeERKN4core12basic_stringIcNS4_20StringStorageDefaultIcEEEE
Cwa:__ZN9GfxDevice15BeginFrameStatsEv
zdc:__Z42Register_UnityEngine_RectOffset_set_bottomv
zkd:_ArrayListWrapper_IndexOf_m3574835167
mWa:__ZN28LightProbeProxyVolumeContext8CopyFromERKS_
z2a:__ZN23TransformChangeDispatch32QueueTransformChangeIfHasChangedER18TransformHierarchy
e$a:__ZN18DeferredRenderLoop15RenderFinalPassEP13RenderTextureS1_
$Da:__ZN7ApiGLES18DeleteRenderbufferERj
VCa:__ZL23ProgramUniformMatrix4fvPK7ApiGLESjiihPKv
t2b:__ZN13ProduceHelperI11LightProbesLb0EE7ProduceE18MemLabelIdentifier18ObjectCreationMode
MTb:__ZN9ShaderLab20SerializedSubProgram15MatrixParameter8TransferI14SafeBinaryReadEEvRT_
HOe:_Int32_Parse_m124693431
n9b:__ZL27GetComponentsImplementationILb0ELi1EEbR10GameObjectbRK17CompareParametersRK39GetComponentsImplementation_ReturnValue
rLc:_Round_Down_To_Grid
Etg:_UTF8Decoder__ctor_m1460357288
lea:__ZN13RenderTexture7ReleaseEv
Qwb:__ZN10MeshFilter23VirtualRedirectTransferER14SafeBinaryRead
a$a:__ZN19ShaderPropertySheet26SetTextureWithExplicitSizeEN9ShaderLab16FastPropertyNameE9TextureIDiiff
Sqd:_Convert_ToByte_m1201588964
_wb:__ZN12MeshRenderer17MainThreadCleanupEv
pbc:__Z36AsyncOperation_Get_Custom_PropIsDoneP12Il2CppObject
KGa:__ZN22CreateGpuProgramOutput12CreateParamsEv
Iya:__ZNK14GfxContextGLES13GetDefaultFBOEv
r_d:_Array_InternalArray__ICollection_Remove_TisSByte_t454417549_m2474211570_gshared
dba:__ZN14GraphicsHelper5ClearE13GfxClearFlagsRK10ColorRGBAffjR17ShaderPassContext
c3i:_il2cpp_class_is_enum
Mej:__ZN6il2cpp2vm6Thread49CheckCurrentThreadForInterruptAndThrowIfNecessaryEv
rbe:_GameObject_AddComponent_TisIl2CppObject_m3813873105_gshared
qga:__ZNSt3__23mapIN9ShaderLab16FastPropertyNameEN18UnityPropertySheet11UnityTexEnvENS_4lessIS2_EENS_9allocatorINS_4pairIKS2_S4_EEEEEixERS9_
xta:__ZNK13TranslateGLES25GetTextureTargetDimensionEj
hVd:_InputField_SetToCustom_m250029371
P5d:_Array_InternalArray__set_Item_TisByte_t3683104436_m1694926640_gshared
Hpi:_PatternCompiler_EmitInfo_m597931026
Rbf:_ModulusRing_Multiply_m3113924743
Shc:__Z47Texture2D_CUSTOM_INTERNAL_CALL_GetPixelBilinearP12Il2CppObjectffR10ColorRGBAf
Ii:_emscripten_glVertexAttrib4f
xBe:_ReadOnlyCollection_1_System_Collections_IEnumerable_GetEnumerator_m531171980_gshared
wWb:__ZNSt3__26vectorIN20GpuProgramParameters14ConstantBufferENS_9allocatorIS2_EEE8__appendEj
s8d:_Array_Sort_TisUILineInfo_t3621277874_m3105833015_gshared
N_e:_MonoType_GetGenericArguments_m2708198481
ege:_List_1_AddEnumerable_m2489692396_gshared
zDi:_WaitForSecondsRealtime__ctor_m1734539010
zza:__ZN4gles10SetTextureER15DeviceStateGLESjjj19BuiltinSamplerState
Hwa:__ZN9GfxDevice18SetGlobalDepthBiasEff
r0i:__ZN6il2cpp6icalls8mscorlib6System8MonoType12get_AssemblyEP20Il2CppReflectionType
Vi:_emscripten_glGetPointerv
_t:__ZN8Animator22ApplyBuiltinRootMotionEv
Hsb:__ZN8Renderer23VirtualRedirectTransferER14SafeBinaryRead
$Gg:_DerivedType_get_UnderlyingSystemType_m3904230233
yJh:__Z135RuntimeInvoker_IntPtr_t_Il2CppObject_Int32_t2071877448_Int32_t2071877448_Int32_t2071877448_Int32_t2071877448_MonoIOErrorU26_t1029615899PK10MethodInfoPvPS2_
XSa:__Z27ConvertSubMeshesToTrianglesR13dynamic_arrayI7SubMeshLj4EERS_ItLj2EE
QNi:__ZN6il2cpp2vmL15GetBitmapNoInitEP11Il2CppClassPjRjj
mvf:_X509Certificate2Collection__ctor_m819526826
QH:__ZN12AudioManager5ResetEv
cdf:_KeyBuilder_Key_m3814433741
Jaf:_ArgumentException__ctor_m158205422
Z0d:_Array_compare_TisVector3_t2243707580_m3709184876_gshared
LSd:_HorizontalLayoutGroup_SetLayoutHorizontal_m3237355818
Rt:__ZN7mecanim5human14RetargetToTDoFEPKNS0_5HumanEPNS0_9HumanPoseEPNS_8skeleton13SkeletonPoseTIN4math4trsXEEESB_
Tqj:__ZN6il2cpp6icalls8mscorlib6System11Environment20GetWindowsFolderPathEi
Reg:__ZL60AspectRatioFitter_t3114550109_CustomAttributesCacheGeneratorP21CustomAttributesCache
qy:__ZN7mecanim5human18HumanPoseBlendNodeERNS0_9HumanPoseEPS1_f
hHc:_UNITY_FT_RoundFix
FWb:__ZN9ShaderLab20SerializedSubProgram15AddTextureParamEPKcii16TextureDimension
Gr:__ZNK8Animator26GetTypeInfoVirtualInternalEv
Iti:_Uri_get_Parser_m2250631932
Ybi:_Event_GetHashCode_m2214628668
LQd:_Graphic_set_color_m646149893
Kga:__ZN14SafeBinaryRead19TransferSTLStyleMapINSt3__23mapIN4core12basic_stringIcNS3_20StringStorageDefaultIcEEEES7_NS1_4lessIS7_EE13stl_allocatorINS1_4pairIKS7_S7_EEL18MemLabelIdentifier1ELi16EEEEEEvRT_17TransferMetaFlags
fPc:__ZN2UI6Canvas27UpdateEventIndexesRecursiveERi
nx:__ZN7mecanim9animation18EvaluateRootMotionERKNS0_18ClipMuscleConstantERKNS0_15ClipMuscleInputEPKfS8_RNS0_12MotionOutputEb
fR:__ZN11UnityEngine15CloudWebService16SessionContainer21PrepareDataErrorEventERN4core12basic_stringIcNS2_20StringStorageDefaultIcEEEE
iDc:_UNITY_FT_Outline_New
OYc:__ZN16UploadHandlerRaw13TransmitBytesEPvjj
$Mb:__Z19TransferField_ArrayI19StreamedBinaryWriteILb0EE27Converter_SimpleNativeClassI8GUIStyleEEvRK23StaticTransferFieldInfoR31RuntimeSerializationCommandInfoRT0_
Ceg:__ZL70SpriteState_t1353336012_CustomAttributesCacheGenerator_m_PressedSpriteP21CustomAttributesCache
ykg:_RemotingServices_RegisterInternalChannels_m1827304423
sUg:_GUIStyle_get_onNormal_m1675201777
br:__ZL32CleanupAnimationScriptingClassesv
T_i:__ZNSt3__213__vector_baseIN6il2cpp2os19SocketHandleWrapperENS_9allocatorIS3_EEED2Ev
pWg:_GUIStyleState_Cleanup_m705006206
ec:invoke_viiffi
A7a:__ZN13sorted_vectorINSt3__24pairIN4core12basic_stringIcNS2_20StringStorageDefaultIcEEEEPK17MessageIdentifierEEN10vector_mapIS6_S9_NS0_4lessIS6_EENS0_9allocatorISA_EEE13value_compareESF_E10insert_oneERKSA_
Nug:_Thread_GetCachedCurrentUICulture_m5590127
Oob:__ZNK12CubemapArray20GetRuntimeMemorySizeEv
ICi:_Vector3_Dot_m3161182818
BUb:__Z14resize_trimmedINSt3__26vectorIN9ShaderLab18SerializedPropertyENS0_9allocatorIS3_EEEEEvRT_j
Jpe:_List_1_CheckMatch_m4018158235_gshared
X1e:_Context_t2636657155_marshal_pinvoke_back
iXi:__ZN6il2cpp2vm13MetadataCache38GetMethodInfoFromMethodDefinitionIndexEi
_gd:_Byte_System_IConvertible_ToDateTime_m1583041031
Vtb:__ZN10VertexData8TransferI24GenerateTypeTreeTransferEEvRT_
qrj:__ZN13Il2CppHashMapIPK19Il2CppGenericMethodP10MethodInfoN6il2cpp8metadata23Il2CppGenericMethodHashENS6_26Il2CppGenericMethodCompareENSt3__29allocatorINS9_4pairIK10KeyWrapperIS2_ES4_EEEEEC2EjRKS7_RKS8_
cmh:_EqualityComparer_1_System_Collections_IEqualityComparer_Equals_m1089835085_gshared
r0a:__ZL10CullLightsRK22SceneCullingParametersR11CullResults
RPd:_Dropdown__cctor_m264401557
$dd:_Array_IndexOf_m2819632474
_Ah:_Comparer_1__cctor_m3996541505_gshared
Vy:__ZN7mecanim12statemachine20GetBlendTreeConstantERKNS0_13StateConstantEi
u5b:__Z40GetTemporaryCachePathApplicationSpecificv
Uua:__ZN9GfxDevice16EndAsyncJobFrameEv
cEc:_UNITY_tt_face_load_hhea
ACb:__ZN24RingBufferMemoryFileData11SetGrowableEb
Fci:_PersistentCall__ctor_m2079279187
qqd:_Convert_ToBase64String_m1936815455
Ok:___syscall3
Rk:___syscall6
Tk:___syscall4
hzd:_Decimal_ToString_m759431975
ALd:_ColorBlock_get_fadeDuration_m987725262
flj:__ZN6il2cpp2vm3RCW14QueryInterfaceILb1EEEP14Il2CppIUnknownP15Il2CppComObjectRK10Il2CppGuid
xpg:_CryptographicException__ctor_m2415891459
Fwc:__ZN27PerformanceReportingManager23VirtualRedirectTransferER14SafeBinaryRead
y9b:__ZN9Scripting25BroadcastScriptingMessageER10GameObjectPKc18ScriptingObjectPtr
gl:_emscripten_glShaderBinary
bdd:_Array_InternalArray__RemoveAt_m1126483634
c8h:_Camera_INTERNAL_CALL_RaycastTry_m1030092423
tmf:_SslStreamBase_Dispose_m747909841
r$g:_RangeInt_get_end_m913869897
dpf:_DictionaryNodeEnumerator_get_DictionaryNode_m3521889822
Eu:__ZN7mecanim5human19MaskHasLeftFootGoalERKNS_6bitsetILj70EEE
iZg:_Mesh_get_colors32_m4153271224
zSc:__Z58Register_UnityEngine_Canvas_GetETC1SupportedCanvasMaterialv
cPb:__ZN17AnimationCurveTplIfE8TransferI18StreamedBinaryReadILb1EEEEvRT_
rxd:_DateTimeOffset_GetHashCode_m3312197462_AdjustorThunk
bWc:__ZN18UnityConnectClientD2Ev
v2i:_il2cpp_set_data_dir
Dti:_Uri_get_IsUnc_m2111738174
Qyi:_DataUtility_INTERNAL_CALL_GetPadding_m1621366113
mVc:__ZN11UnityEngine15PlatformWrapper30GetGraphicsDriverLibraryStringEv
YBi:_Vector2_ToString_m775491729
kef:_EncryptedPrivateKeyInfo_Decode_m1706190306
eQb:__Z18Transfer_BlittableI18StreamedBinaryReadILb0EELb0E4AABBEvRK29SerializationCommandArgumentsR31RuntimeSerializationCommandInfo
yud:_Convert_ToUInt16_m1665900934
gMe:_RegionInfo__ctor_m2058831971
V2a:__Z14DrawGUITextureRK5RectTIfEP7Texture11ColorRGBA32P8Materiali
mah:_Text_get_supportRichText_m3291105891
x1g:_RectTransform_GetParentSize_m1571597933
Ps:__ZN9BlobWrite8TransferI22OffsetPtrArrayTransferIKN4math7_float4EEEEvRT_PKc17TransferMetaFlags
Ida:__ZN15TextureSettings8TransferI24GenerateTypeTreeTransferEEvRT_
Roi:_MatchCollection_GetEnumerator_m3516985966
_sc:__ZN9JSONWrite8TransferI4AABBEEvRT_PKc17TransferMetaFlags
Nsg:_UTF7Encoding__ctor_m2365939916
BKa:__ZN25MultiBlocksMemoryFileData9SetLengthEy
RM:__Z30GetAudioSpatializerDefinitionsR13dynamic_arrayIP29AudioEffectInternalDefinitionLj4EE
zzi:_TextGenerationSettings_Equals_m3944651893_AdjustorThunk
f3g:_MatEntry__ctor_m3650167335
KWh:__Z143RuntimeInvoker_Void_t1841601450_Il2CppObject_Vector2_t2243707579_Vector2_t2243707579_Color32_t874517518_Vector2_t2243707579_Vector2_t2243707579PK10MethodInfoPvPS2_
bBb:__ZNSt3__26vectorIN30RuntimeInitializeOnLoadManager9ClassInfoE13stl_allocatorIS2_L18MemLabelIdentifier12ELi16EEE8__appendEj
ppb:__ZNK9Texture2D20GetRuntimeMemorySizeEv
Jyg:_TypeInitializationException__ctor_m2993591639
pm:_emscripten_glUniform2iv
gOe:_Int16_System_IConvertible_ToInt64_m733340257
$zc:_UNITY_FT_Outline_Transform
Mhc:__Z60Register_UnityEngine_Sprites_DataUtility_Internal_GetMinSizev
hOi:__ZN6il2cpp2vm5Class10GetMethodsEP11Il2CppClassPPv
eYa:__Z30AddDefaultStreamsToMeshBuffersR9GfxDeviceR11MeshBuffersRK16DrawBuffersRange17ShaderChannelMaskS6_
C5c:_Hash_GetObjectData_m315532943
bza:__ZN7ApiGLES17DeleteFramebufferERN2gl6HandleILNS0_10ObjectTypeE9EEES3_
PFa:__ZN15UniformTFMethod13MapBoneBufferEj
xhf:_RecordProtocol_SendAlert_m2816808523
hOc:__ZN2UI14CanvasRendererD2Ev
joi:_MethodCall_get_LogicalCallContext_m3769562079
kfj:__ZN6il2cpp6icalls8mscorlib6System5Array8SetValueEP11Il2CppArrayP12Il2CppObjectS5_
hXe:_SynchronizedReader_Read_m1399666181
YMg:_MonoEvent_get_Name_m2796714646
haa:__Z9SetupArgviPPKc
wId:_PointerEventData_set_worldNormal_m2025727441
Eif:_Context_get_SentConnectionEnd_m3114190867
Sob:__ZN12CubemapArray23VirtualRedirectTransferER24GenerateTypeTreeTransfer
g5:__ZN12FileAccessor4OpenER15FileSystemEntry14FilePermission16FileAutoBehavior
XCe:_ReadOnlyCollection_1__ctor_m2364452928_gshared
iqj:__ZN6il2cpp2os9Directory6CreateERKNSt3__212basic_stringIcNS2_11char_traitsIcEENS2_9allocatorIcEEEEPi
y2a:__ZN23TransformChangeDispatch32QueueTransformChangeIfHasChangedERK15TransformAccess
$Hd:_PointerEventData_set_clickTime_m3931922487
gKe:_NumberFormatter_AppendNonNegativeNumber_m629862866
wia:__ZNSt3__26vectorINS_4pairIN9ShaderLab16FastPropertyNameEN18UnityPropertySheet11UnityTexEnvEEENS_9allocatorIS6_EEE21__push_back_slow_pathIKS6_EEvRT_
Whi:_ResourceInfo__ctor_m2401359321_AdjustorThunk
brj:__ZN6il2cpp2os26LibraryNamePrefixAndSuffixC2EPKcS3_
wnd:_Hashtable__ctor_m392789568
wug:_Mutex_CreateMutex_internal_m2352956576
Osg:_UTF7Encoding__cctor_m4192443836
$nc:__Z31GUIStyle_CUSTOM_SetFontInternalP12Il2CppObjectS0_
B:tempValue
vAj:__ZN6il2cpp8metadata24Il2CppGenericContextHash4HashEPK20Il2CppGenericContext
kOe:_Int16_System_IConvertible_ToSingle_m3277935657
D_:__Z29scripting_class_from_fullnamePKcS0_S0_
_4g:_Raycast3DCallback_Invoke_m2271859924
sz:__ZN26AnimatorControllerPlayable18DeallocateBindingsEv
mN:__ZN11AudioSource19CreateOpenALRolloffEfff
REc:_UNITY_FT_Stream_ReadAt
_oa:__ZN9Texture3D34UpdateFileTextureUploadInstructionEP28FileTextureUploadInstructionj
UUg:_GUIStyle_get_lineHeight_m2132859383
s_h:__Z102RuntimeInvoker_Int32_t2071877448_Il2CppObject_UIVertex_t1204258818_Int32_t2071877448_Int32_t2071877448PK10MethodInfoPvPS2_
$ci:_UnityEvent_FindMethod_Impl_m3303953986
Oyg:_UInt16_System_IConvertible_ToBoolean_m887616848
QO:__ZN11AudioModule22CreateAudioClipFromWWWEP10IWWWStreamPKcbbi
yrg:_StringBuilder_set_Length_m3039225444
Wxe:_Collection_1_System_Collections_IList_Contains_m3870109702_gshared
CZd:_Array_InternalArray__ICollection_Contains_TisRaycastResult_t21186376_m3188614988_gshared
hvd:_CultureAwareComparer_GetHashCode_m3681260951
eQc:__Z13RegisterClassIN2UI11CanvasGroupEEvv
qf:_emscripten_glClear
h5g:_Selectable__ctor_m1440593935
wRi:__ZL25UnresolvedVirtualCall_132P12Il2CppObject17Color_t2020392075faaaPK10MethodInfo
U4b:__ZNK8Playable6HandleEv
t3:__ZN14MessageHandler28MessageIDToMessageIdentifierEi
wqf:_HttpRequestCreator_Create_m3607509610
dyj:__ZN6il2cpp2vm10WaitHandle19NewManualResetEventEb
oEe:_ReadOnlyCollection_1_System_Collections_IList_Contains_m3707723158_gshared
LCg:_Version_GetHashCode_m880841176
o4h:_CustomEventData_Add_m4160204358
VD:__Z51Register_UnityEngine_Animator_get_hasBoundPlayablesv
eFi:_Nullable_1_ToString_m1238126148_AdjustorThunk
Hd:emscriptenWebGLGetUniform
so:FUNCTION_TABLE_iiiiiiiiiii
U1a:__ZL10CleanUpJobP20CullingGroupsJobData
Kid:_Char_CompareTo_m3044885427_AdjustorThunk
jTe:_FileStream_GetSecureFileName_m508045384
Ovh:_InternalEnumerator_1_System_Collections_IEnumerator_get_Current_m2035754659_AdjustorThunk
Pwb:__ZN10MeshFilter23VirtualRedirectTransferER24GenerateTypeTreeTransfer
O2a:__ZN13RenderManager15BatchModeUpdateEv
Rub:__ZN14SafeBinaryRead21TransferSTLStyleArrayI13dynamic_arrayI8Vector2fLj4EEEEvRT_17TransferMetaFlags
ria:__ZN17PersistentManager51InstanceIDToLocalSerializedObjectIdentifierInternalEiR31LocalSerializedObjectIdentifier
VJc:_UNITY_FT_Create_Class_cff_services
kd:_glVertexAttribIPointer
z_c:_HMAC_set_HashName_m457235014
m7b:__ZNK6Sprite10GetPaddingE20SpriteRenderDataMode
OYd:_Array_InternalArray__ICollection_Contains_TisTableRange_t2011406615_m605506746_gshared
jgh:_Dictionary_2_Add_m1296007576_gshared
gud:_Decimal_op_Explicit_m729046406
Hpg:_CryptoConfig_CreateFromName_m2169102076
jRd:_Graphic_OnEnable_m2900261811
Kpg:_CryptographicUnexpectedOperationException__ctor_m3552441227
Efi:_AnimatorControllerPlayable_GetAnimatorClipInfoCountInternal_m826336390
vkd:_ArrayListWrapper_Clear_m321161741
mWd:_InputField_LineDownCharacterPosition_m2690468785
QEc:_UNITY_ft_glyphslot_alloc_bitmap
w8d:_Array_Sort_TisVector2_t2243707579_TisVector2_t2243707579_m2582252549_gshared
OAg:_UInt64_System_IConvertible_ToDouble_m2828923873
$Ih:__Z45RuntimeInvoker_Il2CppObject_Int16_t4041245914PK10MethodInfoPvPS2_
e$b:__ZZN2UI13RectTransform15InitializeClassEvEN31FunctorImpl_62kTransformChanged4CallEPviR11MessageData
Ile:_List_1_System_Collections_IList_set_Item_m1129584681_gshared
kGc:_ft_raster1_render
Rgc:__Z57Register_UnityEngine_RectTransform_INTERNAL_set_anchorMaxv
Cge:_List_1_set_Capacity_m491101164_gshared
KEj:__ZNKSt3__221__basic_string_commonILb1EE20__throw_length_errorEv
Wrg:_StringBuilder_Insert_m1733097906
vPh:__Z88RuntimeInvoker_Void_t1841601450_Il2CppObject_Int32_t2071877448_Il2CppObject_Il2CppObjectPK10MethodInfoPvPS2_
lnf:_SslStreamBase_get_HashStrength_m480059173
Heh:_ValueCollection_System_Collections_Generic_ICollectionU3CTValueU3E_Clear_m3271993638_gshared
bqd:_Enumerator_MoveNext_m1419609883
dJ:__ZN4FMOD7Channel19setReverbPropertiesEPK29FMOD_REVERB_CHANNELPROPERTIES
U2:__ZN13MonoBehaviour22GetScriptFullClassNameEv
Gqf:_ServicePointManager_FindServicePoint_m3137356168
xoa:__ZN20SphericalHarmonicsL211AddWeightedERKS_f
OId:_PointerInputModule_GetPointerData_m1695674453
WJb:__Z19TransferField_ArrayI17RemapPPtrTransfer27Converter_SimpleNativeClassI8GUIStyleEEvRK23StaticTransferFieldInfoR31RuntimeSerializationCommandInfoRT0_
cvd:_Convert_ToUInt64_m345450801
hFi:_Predicate_1_BeginInvoke_m2559992383_gshared
ijj:__ZN6il2cpp2vm3RCW7CleanupEP15Il2CppComObject
jqc:__ZN9JSONWrite8TransferI10ColorRGBAfEEvRT_PKc17TransferMetaFlags
n3:__Z25scripting_method_get_name18ScriptingMethodPtr
_gc:__Z35Register_UnityEngine_Resources_Loadv
FIb:__Z19TransferField_ArrayI14SafeBinaryRead16Converter_StringEvRK23StaticTransferFieldInfoR31RuntimeSerializationCommandInfoRT0_
eEj:_rename
cwj:_GC_exit_check
d$e:_NotSupportedException__ctor_m3232764727
Wpf:_TypeConverterAttribute_Equals_m2330345916
LSe:_MonoIO_CreateDirectory_m379525469
Gs:__ZN9BlobWrite8TransferI22OffsetPtrArrayTransferI9OffsetPtrIN7mecanim12statemachine18StateMachineMemoryEEEEEvRT_PKc17TransferMetaFlags
lCc:_UNITY_ft_smooth_renderer_class_pic_free
soe:_List_1_System_Collections_IList_Remove_m3763718607_gshared
hmf:_SslClientStream_remove_PrivateKeySelection_m427666577
F8c:_String_Concat_m2000667605
Q_i:__ZN6il2cpp2os19SocketHandleWrapperC2ERKS1_
ypj:__ZN6il2cpp2os10ThreadImpl12QueueUserAPCEPFvPvES2_
UVc:__ZN22BaseUnityConnectClient10QueueEventERN11UnityEngine15CloudWebService17CloudServiceEventEPKcjb
$Yg:_Mesh_DefaultDimensionForChannel_m153181993
LLc:_UNITY_FT_Hypot
ofd:_BitConverter_ToInt64_m1329623425
M$b:__ZN8RendererC2E12RendererType18MemLabelIdentifier18ObjectCreationMode
Y2i:_il2cpp_class_is_abstract
Af:_emscripten_glGetError
SJ:__Z14FMOD_FILE_SeekPvjS_
Jni:_MethodCall_get_Properties_m1893707917
sch:_ShimEnumerator_get_Entry_m2387156530_gshared
TTc:__Z56Register_UnityEngine_Analytics_CustomEventData_AddStringv
w3a:__ZNK13RenderTexture32CalculateNeedsInvertedProjectionEv
hbb:__ZN10systeminfo18GetOperatingSystemEv
If:emscriptenWebGLGet
I0g:_Rect_GetHashCode_m559954498_AdjustorThunk
m5:__Z19CanReplaceComponentRN5Unity9ComponentEPKNS_4TypeEPN4core12basic_stringIcNS5_20StringStorageDefaultIcEEEE
X0b:__ZN12CubemapArray11InitTextureEiii13TextureFormatb
nZg:_Mesh_SetUVs_m841280343
Ytf:_X509Certificate2_get_SignatureAlgorithm_m3069898012
NE:__Z105Register_UnityEngine_Experimental_Director_AnimatorControllerPlayable_INTERNAL_CALL_GetLayerCountInternalv
qQe:_Int64_System_IConvertible_ToSingle_m1678482180
NLh:__Z54RuntimeInvoker_Il2CppObject_IntPtr_t_Int32_t2071877448PK10MethodInfoPvPS2_
DVg:_GUIStyle_INTERNAL_CALL_Internal_CalcSizeWithConstraints_m1203344891
ot:__ZN7mecanim5human13HumanFixTwistEPKNS0_5HumanEPNS_8skeleton13SkeletonPoseTIN4math4trsXEEES9_iiRKf
OYa:__ZL24AssignProjectorQueuesJobP30AssignProjectorQueuesJobHeader
dwg:_TimeSpan_get_Hours_m3804628138
sQd:_FontData_set_alignByGeometry_m2819509290
xkj:__ZN14dense_hash_mapI10KeyWrapperIP12Il2CppObjectEN6il2cpp2gc9CachedCCWENS4_5utils11PointerHashIS1_EENS3_14EqualsComparerINSt3__28equal_toIS2_EEEENSB_9allocatorINSB_4pairIKS3_S6_EEEEEC2EjRKS9_RKSE_
CWb:__ZN9ShaderLab20SerializedSubProgram14SetConstBufferEPKci
Naf:_ArgumentNullException__ctor_m911049464
lEi:_Check_Source_m3385315029
uIe:_Comparison_1_Invoke_m345024424_gshared
kIc:_cf2_getStdVW
wFe:_ReadOnlyCollection_1_System_Collections_IList_Insert_m3936197025_gshared
AV:__Z40DebugStringToFilePostprocessedStacktraceRK21DebugStringToFileData
Kuc:__Z29Transfer_Blittable_ArrayFieldI8JSONReadjEvRT_R9ArrayInfoRK23StaticTransferFieldInfo
D_g:_Object_GetInstanceID_m1920497914
ovh:_InternalEnumerator_1_get_Current_m314017974_AdjustorThunk
Dgi:_AnimatorControllerPlayable_Play_m1337154648
ng:__setLetterbox
rUe:_MemoryStream__ctor_m1043059966
Wzi:_TextGenerator_Populate_Internal_m1817393161
Xhg:__ZN21InterfaceFuncInvoker3IP12Il2CppObjectP6Type_t28StreamingContext_t1417235061PS1_E6InvokeEjP11Il2CppClassS1_S3_S4_S5_
Kvb:__ZNSt3__26vectorI17BlendShapeChannelNS_9allocatorIS1_EEE6assignINS_11__wrap_iterIPS1_EEEENS_9enable_ifIXaasr21__is_forward_iteratorIT_EE5valuesr16is_constructibleIS1_NS_15iterator_traitsISA_E9referenceEEE5valueEvE4typeESA_SA_
vXd:_LayoutElement_set_preferredWidth_m3072758716
Hsf:_AsnEncodedData_ToString_m724151831
d3a:__ZN11TimeManager11GetRealtimeEv
lkc:__ZN20UnityWebRequestProtoI19TransportJavaScript16AtomicRefCounter14RedirectHelper14ResponseHelper15DownloadHandler13UploadHandler12HeaderHelper14AsyncOperationE26Job_ExecuteUnityWebRequestEPS8_
dK:__ZN29AudioEffectInternalDefinitionC2EP26UnityAudioEffectDefinitionb
KMg:_MonoMethodInfo_GetDeclaringType_m4186531677
Vig:_SoapTypeAttribute_SetReflectionObject_m1566293812
gLi:_Enumerator_System_Collections_IEnumerator_Reset_m2573763156_AdjustorThunk
Hkg:_RemotingServices_CreateClientProxy_m1631035355
sBg:_UInt64_ToString_m2892887310
p8c:_String_System_IConvertible_ToType_m512800076
xrj:__ZN15dense_hashtableINSt3__24pairIK10KeyWrapperIPK19Il2CppGenericMethodEP10MethodInfoEES6_N6il2cpp8metadata23Il2CppGenericMethodHashEN14dense_hash_mapIS6_S9_SD_NS6_14EqualsComparerINSC_26Il2CppGenericMethodCompareEEENS0_9allocatorISA_EEE9SelectKeyESH_SJ_EC2ERKSM_j
$Ja:__Z37ReadDirectoryInfo_UnityWebAndUnityRawR12FileAccessorRKN20ArchiveStorageHeader6HeaderERNS1_13DirectoryInfoE
G0:__ZNSt3__26__treeINS_12__value_typeIPKciEENS_19__map_value_compareIS3_S4_15compare_tstringIS3_ELb1EEENS_9allocatorIS4_EEE7destroyEPNS_11__tree_nodeIS4_PvEE
Pih:_Dictionary_2_ToTValue_m1381983709_gshared
X_e:_MulticastDelegate_KPM_m1592985119
HAe:_Collection_1_ConvertItem_m3941916604_gshared
NVa:__ZN20DynamicPropertySheet14SetValueQueuedEN9ShaderLab16FastPropertyNameEN19ShaderPropertySheet12PropertyTypeEjNS2_8SetFlagsE
SOc:__ZN2UI6Canvas26MarkAllNestedCanvasesDirtyEv
Wij:__ZN6il2cpp2vm12ReboxIfBoxedEP14Il2CppIUnknownP11Il2CppClass
pme:_List_1__ctor_m2766376432_gshared
U7a:__ZN25PathNamePersistentManagerD2Ev
L1:__ZN17PersistentManager48IntegrateObjectAndUnlockIntegrationMutexInternalEi
ip:__ZN6Object12SetHideFlagsENS_9HideFlagsE
sLj:_emscripten_glGetFramebufferAttachmentParameteriv__wrapper
YQa:__ZN13RendererScene15InitializeUmbraEv
H5h:_AnimatorTransitionInfo_IsName_m2561957738_AdjustorThunk
hoa:__Z28CalculateGlobalMatrixInverse23TransformAccessReadOnly
dsc:__ZN4PPtrI6ObjectE8TransferI9JSONWriteEEvRT_
JId:_PointerEventData_ToString_m1218584363
Wsg:_UTF7Encoding_GetCharCount_m2589913583
UNh:__Z91RuntimeInvoker_DateTime_t693205669_Il2CppObject_Il2CppObject_Il2CppObject_Int32_t2071877448PK10MethodInfoPvPS2_
pQa:_UNITY_png_write_sCAL_s
iVe:_MemoryStream_CalculateNewCapacity_m3533542025
tAj:__ZN6il2cpp6icalls8mscorlib6System6Object7GetTypeEP12Il2CppObject
qUi:__ZNK15dense_hashtableINSt3__24pairIK10KeyWrapperIPKcEP11Il2CppClassEES5_N6il2cpp5utils11StringUtils12StringHasherIS4_EEN14dense_hash_mapIS5_S8_SE_NS5_14EqualsComparerINSC_21CaseSensitiveComparerEEENS0_9allocatorIS9_EEE9SelectKeyESI_SK_E5beginEv
Ewg:_TimeSpan_Equals_m4102942751_AdjustorThunk
Geh:_ValueCollection_System_Collections_Generic_ICollectionU3CTValueU3E_Add_m1903672223_gshared
oZc:__ZN12HeaderHelper14SetUnvalidatedERKN4core12basic_stringIcNS0_20StringStorageDefaultIcEEEES6_b
qG:__ZN4FMOD6SoundI7releaseEv
PKa:__ZN10MemoryFile9SetLengthEy
Ezg:_UInt16_ToString_m2038947049_AdjustorThunk
Dkh:_DefaultComparer_Equals_m3143385420_gshared
Sqb:__ZN14SafeBinaryRead21TransferSTLStyleArrayI13dynamic_arrayI7Hash128Lj8EEEEvRT_17TransferMetaFlags
wEb:__Z28scripting_class_is_interface17ScriptingClassPtr
Dh:_glTexStorage2D
pWb:__ZNK9ShaderLab10SubProgram14EnsureCompiledEv
bng:_ObjectManager_RecordFixup_m3572285566
ZAa:__ZN18AsyncUploadManager22WaitForActiveAsyncReadEv
_od:_SortedList_InitTable_m460350503
f3:__Z18BuildScriptClassId17ScriptingClassPtr
gsh:_InternalEnumerator_1_get_Current_m4279678504_AdjustorThunk
xq:__ZNK16LevelGameManager7GetNameEv
z1b:__ZN8Renderer28HandleParentHierarchyChangesEPK23TransformAccessReadOnlyj
KX:__ZL31DeleteLastPathNameComponentImplRKN4core12basic_stringIcNS_20StringStorageDefaultIcEEEEPKc
CZb:__Z13RegisterClassI18DelayedCallManagerEvv
eWc:__ZN18UnityConnectClient15GetCloudServiceEv
iKb:__Z18Transfer_BlittableI24GenerateTypeTreeTransferLb0EiEvRK29SerializationCommandArgumentsR31RuntimeSerializationCommandInfo
N_i:__ZN6il2cpp2os19SocketHandleWrapperD2Ev
sEb:__ZL28SerializationCommandGroupForRK31TransferFunctionScriptingTraits17ScriptingClassPtr17ScriptingFieldPtrRK20CoreScriptingClasses
aib:__ZN10TagManager32RegisterDefaultTagsAndLayerMasksEv
afb:__ZN14CachingManager12ReadInfoFileERKN4core12basic_stringIcNS0_20StringStorageDefaultIcEEEEPlPNSt3__26vectorIS4_NS8_9allocatorIS4_EEEE
$Tc:__Z56Register_UnityEngine_Analytics_CustomEventData_AddUInt32v
Tjd:_ArrayList_InsertRange_m1478230997
Rya:__ZN4gles8InitCapsEP7ApiGLESP12GraphicsCapsR16GfxDeviceLevelGL
fja:__ZN6prcore14BlitImageFloatERK14ImageReferenceRS0_NS0_8BlitModeE
zYg:_Matrix4x4_Equals_m1321236479_AdjustorThunk
li:_glEnable
Ugb:__ZNK13Lz4Compressor29CalculateCompressedBufferSizeEj
G$i:__ZN6il2cpp2vm19SocketPollingThreadC2Ev
CTa:__ZNK25CameraStackRenderingState21GetImageEffectTextureEb
cog:_RuntimeMethodHandle__ctor_m2437574937_AdjustorThunk
dzg:_UInt16_System_IConvertible_ToInt64_m2835280558_AdjustorThunk
GUf:__ZL53g_UnityEngine_Assembly_CustomAttributesCacheGeneratorP21CustomAttributesCache
RFi:_Predicate_1_BeginInvoke_m3926587117_gshared
kAb:__ZNSt3__26vectorI4PPtrI6ObjectE13stl_allocatorIS3_L18MemLabelIdentifier51ELi16EEE6assignINS_11__wrap_iterIPS3_EEEENS_9enable_ifIXaasr21__is_forward_iteratorIT_EE5valuesr16is_constructibleIS3_NS_15iterator_traitsISD_E9referenceEEE5valueEvE4typeESD_SD_
vje:_List_1_get_Item_m1231764300_gshared
yOd:_DefaultControls_CreateToggle_m1568873127
zih:_Dictionary_2_InitArrays_m2270022740_gshared
OUc:__ZN11UnityEngine7Connect15DeviceInfoEvent16CollectExtraInfoEv
SNh:__Z115RuntimeInvoker_Boolean_t3825574718_Il2CppObject_Int32_t2071877448_Il2CppObject_SByte_t454417549_Int32U26_t455636984PK10MethodInfoPvPS2_
hsg:_UnicodeEncoding_GetChars_m3765282346
eRe:_IntPtr__ctor_m4104029105
Awh:_InternalEnumerator_1_System_Collections_IEnumerator_get_Current_m771161214_AdjustorThunk
VZe:_MonoType_get_attributes_m1493788675
gyj:__ZN6il2cpp6icalls8mscorlib6System10Reflection9FieldInfo25internal_from_handle_typeE12Il2CppIntPtrS5_
cxj:__ZThn8_N6il2cpp2vm13CachedCCWBaseINS0_13ManagedObjectEE6AddRefEv
$sd:_Convert_ToDouble_m4236754739
KPd:_Dropdown_CreateItem_m2702141380
MEf:__ZL48Stack_t1043988394_CustomAttributesCacheGeneratorP21CustomAttributesCache
wo:FUNCTION_TABLE_viifi
xo:FUNCTION_TABLE_viiff
VMg:_MonoEvent_GetAddMethod_m4289563120
UCf:__ZL37Type_t_CustomAttributesCacheGeneratorP21CustomAttributesCache
_Lc:_UNITY_tt_face_free_hdmx
x4i:__ZN6il2cpp2vm14TypeNameParser5ParseEb
O4g:_ReflectionMethodsCache__ctor_m1835220
rYc:__ZN23UnityPurchasingSettingsC2Ev
nBd:_Double_ToString_m1864290157
gFh:__Z63RuntimeInvoker_Il2CppObject_Int16_t4041245914_Int32_t2071877448PK10MethodInfoPvPS2_
Wuh:_InternalEnumerator_1_get_Current_m4154059426_AdjustorThunk
dmj:__ZNK24NamespaceAndNamePairHashclERKNSt3__24pairIPKcS3_EE
qpa:__ZL37stbir__resample_horizontal_downsampleP11stbir__infoiPf
Ima:__ZNK5Unity9Component38MarkGameObjectAndComponentDependenciesER27GarbageCollectorThreadState
UX:__ZL16OutOfMemoryErrorjj18MemLabelIdentifieriPKc
yhf:_RecordProtocol_SendRecord_m132002114
LQb:__Z18Transfer_BlittableI18StreamedBinaryReadILb0EELb1EdEvRK29SerializationCommandArgumentsR31RuntimeSerializationCommandInfo
aNe:_Guid__ctor_m2599802704
JTe:_FileStream_get_CanRead_m4148920720
CBa:__ZN4crnd12symbol_codec32decode_receive_static_data_modelERNS_25static_huffman_data_modelE
$_b:__ZN18ScriptingArguments8AddFloatEf
vLe:_GregorianCalendar_set_CalendarType_m2438362222
LZd:_Array_InternalArray__ICollection_Contains_TisVector2_t2243707579_m3625698589_gshared
Lrc:__Z18Transfer_BlittableI9JSONWriteLb0EaEvRK29SerializationCommandArgumentsR31RuntimeSerializationCommandInfo
BQ:__ZN11UnityEngine15CloudWebService14DataDispatcher34OnSessionContainerArchivedAndReadyERNS0_16SessionContainerE
eMe:_NumberFormatInfo_GetFormat_m3247563525
ogf:_CipherSuiteCollection__ctor_m2154226461
bMb:__Z18Transfer_BlittableI19StreamedBinaryWriteILb0EELb0E8Vector3fEvRK29SerializationCommandArgumentsR31RuntimeSerializationCommandInfo
WQg:_RectOffset__ctor_m2227510254
KSb:__ZN14SafeBinaryRead19TransferSTLStyleMapINSt3__23mapIN4core12basic_stringIcNS3_20StringStorageDefaultIcEEEEiNS1_4lessIS7_EENS1_9allocatorINS1_4pairIKS7_iEEEEEEEEvRT_17TransferMetaFlags
HDc:_gray_move_to
Lqg:_DSAParameters_t1872138834_marshal_pinvoke
xni:_ConstructionCall_InitDictionary_m4046452035
EBb:__ZN5Cache9URLToPathERKN4core12basic_stringIcNS0_20StringStorageDefaultIcEEEE7Hash128
B9i:__ZN6il2cpp2vm10Reflection14GetEventObjectEP11Il2CppClassPK9EventInfo
Hhf:_TlsStream_Write_m2271546135
R8b:__Z30RegisterValidateMethodCallbackiPF18ScriptingMethodPtrS_17ScriptingClassPtrP6ObjectEPKc
lEd:_CultureInfo_ConstructInternalLocaleFromCurrentLocale_m1342751405
krg:_Latin1Encoding_GetString_m3553289597
dFc:_tt_cmap_init
TCa:__ZL25ProgramUniformMatrix4x2fvPK7ApiGLESjiihPKv
fkj:__ZN15dense_hashtableI10KeyWrapperIP18Il2CppGenericClassES3_N6il2cpp8metadata22Il2CppGenericClassHashEN14dense_hash_setIS3_S6_NS3_14EqualsComparerINS5_25Il2CppGenericClassCompareEEENSt3__29allocatorIS3_EEE8IdentityESA_SD_E12maybe_shrinkEv
H_b:__ZN9TextAssetC2E18MemLabelIdentifier18ObjectCreationMode
vbi:_Display_RecreateDisplayList_m3412638488
WQj:_emscripten_glCheckFramebufferStatus__wrapper
jej:__ZNK15dense_hashtableINSt3__24pairIK10KeyWrapperIP11Il2CppClassES4_EES5_N6il2cpp8metadata16SZArrayClassHashEN14dense_hash_mapIS5_S4_SA_NS5_14EqualsComparerINS9_19SZArrayClassCompareEEENS0_9allocatorIS7_EEE9SelectKeyESE_SG_E12test_deletedEj
euc:__Z18Transfer_BlittableI8JSONReadLb0EdEvRK29SerializationCommandArgumentsR31RuntimeSerializationCommandInfo
Uug:_Thread_ClrState_m822263449
I1e:_SimpleCollator_LastIndexOfOrdinalIgnoreCase_m550798345
c$i:__ZN6il2cpp2vm21ThreadPoolCompartment13QueueWorkItemEP17Il2CppAsyncResult
Qm:FUNCTION_TABLE_viiiiiifiii
nua:__ZNK9GfxDevice13GetViewMatrixEv
Uma:__ZN17RemapPPtrTransferC2E24TransferInstructionFlagsb
C4:__ZN8TypeTree8BlobReadERPKhS1_ib
dna:__ZN18LoadSceneOperation23GetAllowSceneActivationEv
gla:__ZN11prophecysdk4half7convertEi
Sib:__ZN6CameraD0Ev
h3e:_ModulusRing_Multiply_m386339435
$8:__ZN31CanvasBatchIntermediateRenderer16StaticInitializeEPv
dSd:_GraphicRaycaster_U3CRaycastU3Em__0_m3971200721
QDe:_ReadOnlyCollection_1_System_Collections_IList_RemoveAt_m3004588099_gshared
Hsd:_Decimal_op_Implicit_m4246329390
Paf:_ArgumentNullException__ctor_m2252076819
$4a:__ZN10GameObjectC2E18MemLabelIdentifier18ObjectCreationMode
KCc:_raccess_guess_apple_double
YZe:_MonoType_GetAttributeFlagsImpl_m250699879
zmg:_SerializationInfo__ctor_m4016423422
BCa:__ZL18ProgramUniform1uivPK7ApiGLESjiihPKv
f1b:__ZN14Texture2DArray13RebuildMipMapEv
ATi:__ZN13Il2CppHashSetIPK17Il2CppGenericInstN6il2cpp8metadata21Il2CppGenericInstHashENS4_24Il2CppGenericInstCompareENSt3__29allocatorI10KeyWrapperIS2_EEEEC2EjRKS5_RKS6_
Eqj:__ZN6il2cpp2gc16GarbageCollector14RemoveWeakLinkEPPv
DWb:__ZN9ShaderLab20SerializedSubProgram14AddVectorParamEPKcii15ShaderParamTypei
xGe:_ReadOnlyCollection_1_System_Collections_IEnumerable_GetEnumerator_m1734360860_gshared
gii:_ResourceSet_ReadResources_m1669023823
Y8e:_PKCS12_RemoveCertificate_m1590055870
Xej:__ZN6il2cpp2vm6Thread7SetNameEP12Il2CppThreadP12Il2CppString
Taa:__ZN13ScreenManager18SetAllowCursorLockEb
UAb:__ZN30RuntimeInitializeOnLoadManager15ClassMethodInfo8TransferI14SafeBinaryReadEEvRT_
sDb:__ZN9TextAsset8TransferI14SafeBinaryReadEEvRT_
Zeg:__ZL73CanvasScaler_t2574720772_CustomAttributesCacheGenerator_m_ScreenMatchModeP21CustomAttributesCache
nP:__ZL22InitializeModule_Audiov
tab:__ZN16MemoryFileSystem8IsLockedERK13FileEntryData
UBi:_Vector2_get_Item_m2792130561_AdjustorThunk
CMg:_MonoCMethod_Invoke_m931478014
nii:_SatelliteContractVersionAttribute__ctor_m2605651717
Uk:_emscripten_glBindRenderbuffer
XHg:_EnumBuilder_HasElementTypeImpl_m1414733955
Nnc:__Z32GUIStyle_Set_Custom_PropClippingP12Il2CppObjecti
Zvj:_GC_dirty_init
Xdd:_Array_Copy_m1969461849
Tlg:_MessageFormatter_ReadMethodResponse_m4134629501
Elj:__ZN6il2cpp2vm5Field14GetValueObjectEP9FieldInfoP12Il2CppObject
VPc:__ZNK2UI6Canvas16GetTargetDisplayEv
vCd:_Environment_get_OSVersion_m1247315981
T7:__ZN6Object17FindObjectsOfTypeEPKN5Unity4TypeER13dynamic_arrayIPS_Lj4EEb
Sdi:_AnimationOffsetPlayable_INTERNAL_CALL_GetRotation_m2705874827
QDb:__ZN13MonoBehaviour17RemoveFromManagerEv
tjb:__ZN12ImageFilters14AddImageFilterERK11ImageFilter
ptb:__ZL11DecodeValuePPKcS0_
Mch:_ShimEnumerator_MoveNext_m2013866013_gshared
DU:__ZN13MemoryManagerC2Ev
xFa:__ZN12SkinMeshInfo10DeallocateEPS_
ooj:__ZNK6il2cpp5utils11StringUtils21CaseSensitiveComparerclEPKcS4_
tBi:_Transform_SetParent_m1963830867
aNa:__ZN20ArchiveStorageReader28AcquireAndPrefillUnusedBlockEjPNS_11CacheResultE
qOh:__Z78RuntimeInvoker_Il2CppObject_SByte_t454417549_SByte_t454417549_SByte_t454417549PK10MethodInfoPvPS2_
$0b:__Z12NHxRoughnessIA4_tEvP9Texture2DPT_iiii
r8:__ZN18AsyncUploadManagerD2Ev
rYb:__ZN9Transform5ResetEv
RLb:__Z22TransferField_NonArrayI24GenerateTypeTreeTransfer16Converter_StringEvRK23StaticTransferFieldInfoR31RuntimeSerializationCommandInfoRT0_
WEc:_UNITY_FT_CMap_New
Kaa:__Z17MainLoopKeepalivePv
Joi:_MatchCollection__ctor_m1944681790
akc:__ZN18CrashReportHandler25UnregisterGlobalCallbacksEv
c$c:_HMACSHA512__ctor_m1667460019
M1a:__Z24ScheduleCullingAllGroupsR8JobFenceRK22SceneCullingParameters4PPtrI6CameraERK13CullingOutputRK13dynamic_arrayIP12CullingGroupLj4EERKS_
e1a:__Z14CalcHullBoundsPK8Vector3fPKhhRK5PlaneRK10Matrix4x4fR10MinMaxAABB
Ojg:_RealProxy__ctor_m2147093603
IVa:__Z19SetupLODFadeKeywordR17ShaderPassContexti
Duj:_GC_set_fl_marks
QEa:__ZL25CheckCopyTextureArgumentsRK7ApiGLESP11GLESTextureS3_
l8:__ZN13dynamic_arrayI26EnlightenSystemInformationLj8EE6insertEPS0_PKS0_S4_
AEc:_tt_name_entry_ascii_from_utf16
Z_e:_MulticastNotSupportedException__ctor_m2164514827
Cvd:_DateTime_System_IConvertible_ToChar_m2489529194_AdjustorThunk
wLb:__Z29Transfer_Blittable_ArrayFieldI24GenerateTypeTreeTransferyEvRT_R9ArrayInfoRK23StaticTransferFieldInfo
vJ:__ZN4FMOD7SystemI9playSoundE17FMOD_CHANNELINDEXPNS_5SoundEbPPNS_7ChannelE
D6h:_AttributeHelperEngine_GetRequiredComponents_m120894667
MY:__GLOBAL__sub_I_runtime_graphics_mesh2_lump_cpp
u4i:__ZN6il2cpp2os4File4ReadEPNS0_10FileHandleEPciPi
TH:__ZN12AudioManager23VirtualRedirectTransferER18StreamedBinaryReadILb0EE
uEj:_realloc
Hic:__Z57Register_UnityEngine_Transform_INTERNAL_get_localRotationv
$7g:_ScrollRect_SetLayoutVertical_m1225848090
uxg:_Type_get_IsInterface_m3583817465
oIj:dynCall_viif
mNg:_MonoField_get_DeclaringType_m1591666235
lzf:_Enumerator_MoveNext_m4234629003
nS:__ZN11UnityEngine15CloudWebService13WWWRestClient21ParseHTTPHeaderStringEN4core12basic_stringIcNS2_20StringStorageDefaultIcEEEERNS0_16WWWRestHeaderMapERjPKc
lJc:_cf2_hint_lock
yJb:__ZL26Transfer_SimpleNativeClassI17RemapPPtrTransfer8GradientLb0EEvRK29SerializationCommandArgumentsR31RuntimeSerializationCommandInfo
vWi:__ZNK15dense_hashtableINSt3__24pairIK10KeyWrapperI13dynamic_arrayIPK10Il2CppTypeLj4EEEPFvvEEES8_N6il2cpp8metadata19Il2CppSignatureHashEN14dense_hash_mapIS8_SB_SF_NS8_14EqualsComparerINSE_22Il2CppSignatureCompareEEENS0_9allocatorISC_EEE9SelectKeyESJ_SL_E10test_emptyEj
chb:__ZNSt3__26vectorIN20ArchiveStorageHeader12StorageBlockE13stl_allocatorIS2_L18MemLabelIdentifier54ELi16EEE21__push_back_slow_pathIKS2_EEvRT_
s0i:__ZN6il2cpp6icalls8mscorlib6System8MonoType14get_attributesEP20Il2CppReflectionType
Beb:__Z43DestroyWithoutLoadingButDontDestroyFromFilei
WZe:_MonoType_GetDefaultConstructor_m925465120
jyg:_Type_IsArrayImpl_m3073208555
UYc:__ZN13UploadHandlerD2Ev
MGj:dynCall_viiiiiffi
Bc:_emscripten_glBlendFuncSeparate
n_:__Z20scripting_string_newPKc
ehc:__Z43Material_CUSTOM_Internal_CreateWithMaterialP12Il2CppObjectS0_
ESe:_Directory_GetCurrentDirectory_m44486537
wre:_Collection_1_System_Collections_ICollection_CopyTo_m1047946700_gshared
ZE:__Z103Register_UnityEngine_Experimental_Director_AnimatorControllerPlayable_INTERNAL_CALL_ResolveHashInternalv
Ut:__ZNSt3__26__sortIRPFbPKN8Animator11AnimatorJobES4_EPS4_EEvT0_S9_T_
hH:__ZN17AudioCustomFilterD2Ev
qmc:__ZNK8GUIStyle13GetLineHeightEv
XDa:__ZN18GfxFramebufferGLES18ReleaseFramebufferEP17RenderSurfaceBaseP14GfxContextGLES
Eli:_Context_GetDynamicPropertyCollection_m1987747444
$tf:_X509Certificate2_get_Version_m1927399907
G3b:__ZN13ProduceHelperI6CameraLb0EE7ProduceE18MemLabelIdentifier18ObjectCreationMode
LTd:_Image_RadialCut_m3229543088
ET:__ZN19CloudServiceHandler34HandleSaveFileWebRequestPlayerLoopEv
Mz:__ZN7mecanim21ValueArrayReverseCopyEPKNS_18ValueArrayConstantEPKNS_10ValueArrayES2_PS3_PKi
UG:__Z31GetParentSampleClipFromInstancePN11SoundHandle8InstanceE
f$b:__ZNK28RectTransformPropertyBinding13GetFloatValueERKN11UnityEngine9Animation10BoundCurveE
U3a:__ZN6Camera22StandaloneCustomRenderENS_10RenderFlagEP6ShaderRKN4core12basic_stringIcNS3_20StringStorageDefaultIcEEEEPNS_21PerformRenderFunctionE
OAj:__ZN6il2cpp2os16ThreadLocalValue8GetValueEPPv
NXi:__ZN6il2cpp2vm13MetadataCache14GetGenericInstEPKPK10Il2CppTypej
J2c:_SHA384Managed_Initialize_m712692291
Lb:invoke_iiidii
Zic:__Z52Object_CUSTOM_GetOffsetOfInstanceIDInCPlusPlusObjectv
cp:setThrew
T0b:__ZL21BuildEmptyCubeTexturePKci11ColorRGBA3217TextureColorSpace
NSb:__ZN14SafeBinaryRead21TransferSTLStyleArrayINSt3__26vectorIN9ShaderLab20SerializedSubProgramENS1_9allocatorIS4_EEEEEEvRT_17TransferMetaFlags
rtc:__Z15Transfer_StringI8JSONReadLb1EEvRK29SerializationCommandArgumentsR31RuntimeSerializationCommandInfo
xka:__ZN6prcoreL17RemapGenericFloatI17TexFormatRGBFloat15TexFormatRGHalfEEvPKNS_9InnerInfoE
lXa:__Z25DoForwardShaderRenderLoopR17RenderLoopContextR13dynamic_arrayI16RenderObjectDataLj4EERK11CullResultsbbbN6Camera10RenderFlagE
_Dc:_sfnt_load_face
f8e:_PKCS12_GetSymmetricAlgorithm_m1812022677
mtg:_UTF8Encoding_GetByteCount_m2372933408
Bli:_Context_get_NeedsContextSink_m1907794755
RDc:_UNITY_ft_service_list_lookup
bdf:_ARC4Managed_GenerateKey_m716135508
Slc:__ZN5IMGUI21SelectReceivingWindowER8GUIStateb
_C:__ZNK26AnimatorControllerPlayable17ValidateGoToStateERiS0_
fwh:_InternalEnumerator_1_get_Current_m3179981210_gshared
Lbb:__ZN13BaseAllocator13TryDeallocateEPv
Hdd:_Array_CreateInstance_m1054139389
XSg:_GUIStyleState_GetGUIStyleState_m2816150617
Ejb:__ZNSt3__26vectorIN12FlareManager10FlareEntryENS_9allocatorIS2_EEE21__push_back_slow_pathIKS2_EEvRT_
OEg:_Default_check_arguments_with_score_m1714931543
a2c:_SHA1_Create_m4086509717
XNg:_MonoMethodInfo_GetMethodInfo_m3298558752
EH:__ZN13AudioListener17RemoveFromManagerEv
wd:_glAttachShader
OPd:_Dropdown_SetAlpha_m2769981009
NOa:__ZNK6Camera19GetProjectionMatrixEv
tFi:_Predicate_1_BeginInvoke_m1856151290_gshared
RR:__ZN11UnityEngine15CloudWebService10RestClientINS0_16WWWRestHeaderMapEE6SetUrlERKN4core12basic_stringIcNS4_20StringStorageDefaultIcEEEE
DRh:__Z139RuntimeInvoker_Il2CppObject_Il2CppObject_Int32_t2071877448_SByte_t454417549_SByte_t454417549_SByte_t454417549_SByte_t454417549_Il2CppObjectPK10MethodInfoPvPS2_
nAd:_StackTrace__ctor_m2404985356
N2:__Z38PreallocateObjectFromPersistentManagerib
Qvd:_DateTime_System_IConvertible_ToSingle_m3927769066
OY:__GLOBAL__sub_I_runtime_interfaces_lump_cpp
wpb:__ZNK9Texture2D20GetUnscaledTextureIDEv
$td:_Convert_ToSByte_m883113940
_Nj:_glFenceSync__wrapper
SCd:_Exception_get_Message_m173095527
wcg:__ZL53InputField_t1631627530_CustomAttributesCacheGeneratorP21CustomAttributesCache
rLd:_ButtonClickedEvent__ctor_m938038541
ARb:__ZN18StreamedBinaryReadILb0EE21TransferSTLStyleArrayI13dynamic_arrayI4AABBLj4EEEEvRT_17TransferMetaFlags
Zyg:_UInt16_System_IConvertible_ToDouble_m4100549304_AdjustorThunk
tJh:__Z116RuntimeInvoker_Il2CppObject_Il2CppObject_Il2CppObject_Int32_t2071877448_Int32_t2071877448_MonoIOErrorU26_t1029615899PK10MethodInfoPvPS2_
Gna:__Z29ClearRepeatingLogMessageStatev
alc:__ZN13TextRendering17TextMeshGenerator13GetTextOffsetERK5RectTIfE
NLi:_HashSet_1_OnDeserialization_m1222146673_gshared
n7c:_Single_System_IConvertible_ToInt16_m962677079
F7:__ZN21EnlightenSceneMappingaSERKS_
gBj:__ZNK6il2cpp8metadata21Il2CppGenericInstHashclEPK17Il2CppGenericInst
B7c:_Single_System_IConvertible_ToUInt32_m2447833283
sFe:_ReadOnlyCollection_1_System_Collections_IList_Add_m3806843030_gshared
QIa:__ZN7ApiGLESD2Ev
K5a:__ZN9Transform47ClearTransformHierarchyAndApplyToSerializedDataEv
Cuh:_InternalEnumerator_1_get_Current_m4083613828_AdjustorThunk
A7h:_Bounds_op_Equality_m2161830280
_7a:__ZN17PersistentManager9AddStreamEv
GIj:dynCall_fidi
G6i:__ZN15dense_hashtableINSt3__24pairIK10KeyWrapperINS1_IPK9FieldInfoP11Il2CppClassEEEjEES9_17ReflectionMapHashIS8_EN14dense_hash_mapIS9_jSD_NS9_14EqualsComparerINS0_8equal_toIS8_EEEENS0_9allocatorISB_EEE9SelectKeyESI_SK_E12resize_deltaEjj
Moc:__Z47Register_UnityEngine_GUIStyle_set_imagePositionv
noc:__Z49GUIStyle_CUSTOM_INTERNAL_CALL_Internal_DrawCursor13Il2Cpp_IntPtrRK5RectTIfEP12Il2CppObjectiRK10ColorRGBAf
X0g:_RectTransform_set_anchorMin_m4247668187
xkb:__ZN22RenderingCommandBufferC2ERKS_
N9b:__ZNK13MonoBehaviour13GetScriptTypeEv
Ica:__ZN13RenderTexture12SetDimensionE16TextureDimension
r2g:_ScriptableObject_CreateInstance_m3921674852
qkc:__ZNSt3__26vectorI14ResponseHelperNS_9allocatorIS1_EEE8__appendEj
le:_SDL_FreeRW
w6e:_PKCS1_OS2IP_m1273945439
j2c:_SHA1Internal_FillBuff_m891541953
lRc:__Z34CanvasRenderer_Get_Custom_PropCullP12Il2CppObject
iN:__ZN20SoundChannelInstance8getDelayE14FMOD_DELAYTYPEPjS1_
Afb:__ZN21AssetBundleFileSystemC2EPKc
IGh:__Z61RuntimeInvoker_Void_t1841601450_Il2CppObject_Int64_t909078037PK10MethodInfoPvPS2_
QUd:_InputField_set_customCaretColor_m3534590098
L6g:_ScrollRect_set_viewport_m323693490
x1:__ZN10UnitySceneD0Ev
CKe:_NumberFormatter_FormatExponential_m3975285307
Jyc:__ZNSt3__26vectorIN20TextRenderingPrivate8FontImpl13CharacterInfoE13stl_allocatorIS3_L18MemLabelIdentifier1ELi16EEE8__appendEj
v:tempBigInt
te:_emscripten_glVertexAttrib1fv
mTb:__ZNSt3__26vectorIN9ShaderLab20SerializedSubProgram12UAVParameterENS_9allocatorIS3_EEE7reserveEj
D4h:_AnimationCurve_Init_m1486386337
hai:_Component_GetComponents_m3712441745
vOf:__ZL99Thread_t241561612_CustomAttributesCacheGenerator_Thread_t241561612____ExecutionContext_PropertyInfoP21CustomAttributesCache
bIi:_UnityAction_4_Invoke_m3312096275_gshared
C1g:_RectTransformUtility_ScreenPointToRay_m1842507230
f3a:__ZN16ReflectionProbes16UpdateSampleDataEv
vFb:__ZN14SafeBinaryRead21TransferSTLStyleArrayI10vector_setI4PPtrI10MonoScriptENSt3__24lessIS4_EE13stl_allocatorIS4_L18MemLabelIdentifier76ELi16EEEEEvRT_17TransferMetaFlags
LKh:__Z103RuntimeInvoker_Il2CppObject_Il2CppObject_StreamingContext_t1417235061_ISurrogateSelectorU26_t2635255864PK10MethodInfoPvPS2_
yji:_SafeHandle_Finalize_m1839546519
Ruc:__ZN8JSONRead21TransferSTLStyleArrayINSt3__26vectorI10RectOffset13stl_allocatorIS3_L18MemLabelIdentifier1ELi16EEEEEEvRT_S5_17TransferMetaFlags
kmi:_Context_AllocateNamedDataSlot_m3200404053
Aqa:__ZN14BatchAllocator6CommitE18MemLabelIdentifier
Zsf:_X509EnhancedKeyUsageExtension_Decode_m3866320499
yKe:_NumberFormatter_AppendIntegerStringWithGroupSeparator_m1401773574
Qe:_JS_Sound_Play
_Td:_Image_IsRaycastLocationValid_m864962354
oSb:__ZN9ShaderLab16SerializedShader8TransferI14SafeBinaryReadEEvRT_
qt:__ZN7mecanim8skeleton13SkeletonAlignEPKNS0_8SkeletonERKN4math7_float4ES7_i
K1b:__ZN19ShaderPropertySheet16SetVectorIndexedEN9ShaderLab16FastPropertyNameEifRK8Vector4fNS_8SetFlagsE
qq:__ZN14SafeBinaryRead21TransferSTLStyleArrayIN4core12basic_stringIcNS1_20StringStorageDefaultIcEEEEEEvRT_17TransferMetaFlags
ikg:_RemotingConfiguration_RegisterWellKnownServiceType_m2491506630
iJf:__ZL55_TypeBuilder_t2783404358_CustomAttributesCacheGeneratorP21CustomAttributesCache
Cke:_List_1_System_Collections_IList_IndexOf_m4061554721_gshared
kT:__ZN11UnityEngine15CloudWebService14DataDispatcher4StopEv
oTb:__ZNSt3__26vectorIN9ShaderLab20SerializedSubProgram12UAVParameterENS_9allocatorIS3_EEE8__appendEj
r4c:_X509Certificate_ToString_m1582581274
geh:_Enumerator_get_Current_m2986380627_gshared
gfa:__ZN17ScriptingGCHandle7AcquireE18ScriptingObjectPtr25ScriptingGCHandleWeakness
lli:_LifetimeServices_set_LeaseTime_m1487876644
_Fg:_ConstructorBuilder_not_supported_m3687319507
s7c:_Single_System_IConvertible_ToInt64_m3555853323_AdjustorThunk
zHj:dynCall_iifiii
fpa:__Z21HasAlphaTextureFormat13TextureFormat
zO:__ZN12AudioManager6UpdateEv
dpa:__ZN14ImageReference9BlitImageERKS_NS_8BlitModeE
Or:__ZN8Animator12AddToManagerEv
OEb:__ZN23CachedSerializationDataD2Ev
G2a:__ZNK25CameraStackRenderingState31CalculateStereoCameraTargetTypeEv
Bnb:__ZN14RenderSettings23VirtualRedirectTransferER14SafeBinaryRead
Gpj:__ZN6il2cpp2os10ThreadImpl15CurrentThreadIdEv
BZd:_Array_InternalArray__ICollection_Contains_TisColor32_t874517518_m2818328910_gshared
O$g:_RaycastHit2D_get_point_m442317739
HOh:__Z72RuntimeInvoker_Il2CppObject_Il2CppObject_Decimal_t724701077_Il2CppObjectPK10MethodInfoPvPS2_
dMc:_UNITY_tt_face_load_fpgm
Ixb:__ZN12InputManagerD0Ev
gzj:__ZN6il2cpp6icalls8mscorlib6System11Diagnostics10StackTrace9get_traceEP15Il2CppExceptionib
NLe:_NumberFormatInfo_set_NumberNegativePattern_m1050626150
IUg:_GUIStyle_get_overflow_m1125058093
Hgi:_AnimatorControllerPlayable_Play_m4092315465
Coa:__ZNK16LightmapSettings14GetLightProbesEv
bsg:_UnicodeEncoding_GetBytes_m1337660232
lQb:__Z18Transfer_BlittableI18StreamedBinaryReadILb0EELb1EtEvRK29SerializationCommandArgumentsR31RuntimeSerializationCommandInfo
zEj:_posix_memalign
_1b:__ZN13ProduceHelperI12MeshRendererLb0EE7ProduceE18MemLabelIdentifier18ObjectCreationMode
izh:_InternalEnumerator_1_get_Current_m747506907_AdjustorThunk
M7h:_Camera_get_eventMask_m4241372419
xSg:_GUILayoutUtility_LayoutFromEditorWindow_m1847418289
Q2:__ZNK15MonoScriptCache7ReleaseEv
TNi:__ZN6il2cpp2vm5Class13HasReferencesEP11Il2CppClass
dg:_glBindTexture
PCj:_snprintf
xVd:_InputField_set_caretPosition_m888572237
pJg:_ILGenerator__cctor_m3943061018
Jkd:_ArrayListWrapper_Clone_m1506311066
bci:_Event_get_character_m3740896233
uma:__Z36scripting_liveness_calculation_begin17ScriptingClassPtriPFvPP12Il2CppObjectiPvES3_PFvvES7_
LGa:__ZN16UniformCacheGLES6CreateERK20GpuProgramParameters
vtg:_UTF8Encoding_Fallback_m811555654
fBg:_UInt64_CompareTo_m3513742483
zcd:_Encoding_GetString_m1894033578
nEe:_ReadOnlyCollection_1_System_Collections_IList_Clear_m1918003010_gshared
YEi:_Nullable_1_Equals_m3860982732_gshared
qLj:_emscripten_glGetProgramInfoLog__wrapper
Olj:__ZN6il2cpp2vm5Field14IsThreadStaticEP9FieldInfo
ztg:_UTF8Encoding_InternalGetChars_m373801468
A5:__ZN17PersistentManager23DestroyFromFileInternalEi
nCd:_Enum_ToString_m2112979707
Jzi:_TextGenerator_ValidatedSettings_m1640214759
Hhg:_MonoMethodMessage_get_MethodName_m3580519713
kv:__ZN26AnimatorControllerPlayable18PrepareForPlaybackERN7mecanim6memory9AllocatorE
qtg:_UTF8Encoding_GetBytes_m4170182058
q6h:_AssetBundleRequest_get_allAssets_m3314852268
_fa:__ZN22CreateGpuProgramOutputC2Ev
Jvf:_X509Chain__ctor_m2242540866
WUe:_MemoryStream_InternalConstructor_m2423667240
dDh:__Z70RuntimeInvoker_Il2CppObject_Il2CppObject_Il2CppObject_SByte_t454417549PK10MethodInfoPvPS2_
Dig:_SoapMethodAttribute_SetReflectionObject_m3431595769
l9g:_Slider_set_maxValue_m2951480075
m3b:__ZN8GUILayer12CleanupClassEv
LWd:_InputField_OnSubmit_m2856515494
SNi:__ZN6il2cpp2vm5Class4InitEP11Il2CppClass
ga:invoke_vidi
sPc:__ZN2UI14CanvasRenderer17SyncDirtyElementsER8JobFence
bNd:_ColorBlock_op_Inequality_m1517672458
loj:__ZN6il2cpp5utils11StringUtils15StringDuplicateEPKc
R4a:__Z15CanAddComponentR10GameObjectPKN5Unity4TypeE
tfa:__ZNK9ShaderLab21ShaderRasterStateDesc16ToGfxRasterStateEPK19ShaderPropertySheetS3_R14GfxRasterState
qV:_tlsf_memalign
Spg:_CspParameters__ctor_m2480441577
XAj:__ZN6il2cpp2os9EventImplC2Ebb
Nli:_DynamicPropertyCollection_NotifyMessage_m840388347
qti:_Uri_ParseUri_m5711497
Rcb:__ZNK5Unity9Component26GetTypeInfoVirtualInternalEv
E$:__Z20IsMatrixBuiltinParamPKcPi
Wue:_Collection_1_CheckWritable_m2467777750_gshared
s1b:__ZN8Renderer19PostInitializeClassEv
xBc:__ZN20TextRenderingPrivate15DynamicFontDataD2Ev
Wph:_InternalEnumerator_1_get_Current_m1943362081_AdjustorThunk
MCi:_Vector3_get_sqrMagnitude_m1814096310_AdjustorThunk
vxj:__ZN6il2cpp6icalls8mscorlib6System8Delegate23CreateDelegate_internalEP20Il2CppReflectionTypeP12Il2CppObjectP22Il2CppReflectionMethodb
IEg:_Default_check_type_m2363631305
$Db:__ZN18DelayedCallManager18CancelCallDelayed2E4PPtrI6ObjectEPF15CallObjectStatePS1_PvES7_
gfi:_AnimatorControllerPlayable_INTERNAL_CALL_GetLayerIndexInternal_m1847150746
Qbb:__ZN25ThreadsafeLinearAllocator10ReallocateEPvji
ZFb:__Z18Transfer_BlittableI14SafeBinaryReadLb1E11QuaternionfEvRK29SerializationCommandArgumentsR31RuntimeSerializationCommandInfo
r2d:_Array_InternalArray__IndexOf_TisRaycastHit2D_t4063908774_m3739817942_gshared
vOg:_MonoProperty_GetAccessors_m3704698731
XJh:__Z146RuntimeInvoker_Il2CppObject_Int32_t2071877448_Il2CppObject_ObjectU5BU5DU26_t3223402458_Il2CppObject_Il2CppObject_Il2CppObject_ObjectU26_t597476745PK10MethodInfoPvPS2_
Kwj:_GC_disable
Dvb:__ZN10Matrix4x4f8TransferI14SafeBinaryReadEEvRT_
kYe:_UnmanagedMemoryStream_ReadByte_m2501145010
bmg:_ObjectRecord_UnchainFixup_m3025030310
hv:__ZN14AvatarPlayback8StopTimeEv
V5:__Z6AppendRKN4core12basic_stringIcNS_20StringStorageDefaultIcEEEEPKc
JNb:__Z18Transfer_BlittableI18StreamedBinaryReadILb1EELb0E8Vector3fEvRK29SerializationCommandArgumentsR31RuntimeSerializationCommandInfo
Reb:__ZN14CachingManager15ClearTempFolderEv
Mza:__ZN7ApiGLES18ClearBufferSubDataEjN2gl12BufferTargetEll
dcc:__Z37Camera_Get_Custom_PropAllCamerasCountv
Nub:__ZN14Texture2DArray8TransferI18StreamedBinaryReadILb0EEEEvRT_
ffj:__ZN6il2cpp6icalls8mscorlib6System5Array9GetLengthEP11Il2CppArrayi
N$a:__Z18ApplyOcclusionMaskR19ProbeOcclusionCacheRK17LightProbeContextRK10RenderNodeb
oUe:_FileStreamAsyncResult__ctor_m1096228032
GGc:_Split_Cubic
cb:invoke_fiiii
Mxd:_DBNull_System_IConvertible_ToSByte_m1228193074
Bte:_Collection_1__ctor_m2818834331_gshared
fbe:_Array_InternalArray__get_Item_TisUICharInfo_t3056636800_m3872982785_gshared
mne:_List_1__ctor_m2168280176_gshared
Ipj:__ZN6il2cpp2os10ThreadImpl22CreateForCurrentThreadEv
QTe:_FileStream_FlushBuffer_m2594140542
fpc:__Z64Register_UnityEngine_GUIStyle_GetFontInternalDuringLoadingThreadv
Wsj:__ZN6il2cpp2vm8Profiler12GCHeapResizeEx
NIj:dynCall_viiifi
CDa:__ZN18GfxFramebufferGLES20ActiveContextChangedEPP17RenderSurfaceBaseS2_
fZa:__ZN19ShaderPropertySheet17UpdateTextureInfoEiN9ShaderLab16FastPropertyNameEPK10TextureRef
yDa:__Z19PluginsRenderMarkeri
bC:__ZN10HumanTrait18InitializeBoneNameEv
Evi:_X509CertificateEnumerator_get_Current_m3129374511
Ymj:__ZNSt3__214__split_bufferIN6il2cpp2vm5Image20EmbeddedResourceDataERNS_9allocatorIS4_EEEC2EjjS7_
QQa:__ZN5Image13ReformatImageERK14ImageReferenceii13TextureFormatNS0_8BlitModeE
uIf:__ZL57DispIdAttribute_t607560947_CustomAttributesCacheGeneratorP21CustomAttributesCache
qH:__ZN12AudioManager17RemoveAudioSourceEP11AudioSource
Jai:_CullingGroup_Finalize_m3172731580
BEi:_AesManaged_get_KeySize_m2773901127
Xae:_Array_InternalArray__get_Item_TisUInt64_t2909196914_m2580870875_gshared
G9e:_SecurityParser_OnEndElement_m2909940377
CP:__ZN5physx14PxLightCpuTask12addReferenceEv
xrb:__ZN21EnlightenSceneMapping8TransferI19StreamedBinaryWriteILb0EEEEvRT_
Vkj:__ZN6il2cpp2gc16GarbageCollector19InitializeFinalizerEv
vlc:__ZN10GUIManager10DoGUIEventER10InputEventb
Mtj:_GC_bl_init_no_interiors
t0:__Z20CalculateSqrDistanceRK8Vector3fRK4AABB
vnj:__ZN6il2cpp2vm12GenericClass8GetClassEP18Il2CppGenericClass
mL:__Z32AudioMixerDuckingProcessCallbackP21UnityAudioEffectStatePfS1_jii
vFg:_CustomAttributeTypedArgument_GetHashCode_m999147081_AdjustorThunk
y0b:__ZN26CustomRenderTextureManagerD2Ev
Dec:__Z32Input_Get_Custom_PropInputStringv
ZTe:_FileStream_Read_m3880951166
YH:__ZN12AudioManager8TransferI24GenerateTypeTreeTransferEEvRT_
aja:__Z25GetBytesFromTextureFormat13TextureFormat
pTh:__Z105RuntimeInvoker_Void_t1841601450_Int32_t2071877448_Single_t2076509932_Int32_t2071877448_Single_t2076509932PK10MethodInfoPvPS2_
OGj:dynCall_iiffi
Ni:_emscripten_webgl_init_context_attributes
AB:__ZN16MecanimAnimation25RegisterIAnimationBindingEPKN5Unity4TypeEiP17IAnimationBinding
M3:__Z32scripting_class_get_assemblyname17ScriptingClassPtr
CVc:__ZN11UnityEngine15PlatformWrapper15GetVRDeviceNameEv
igh:_Dictionary_2_Resize_m2532139610_gshared
Zyi:_StackTraceUtility__cctor_m1132099289
Awg:_TimeSpan_Equals_m2029123271_AdjustorThunk
rYi:__ZN6il2cpp2vm13MetadataCache23GetInvokerMethodPointerEPK10MethodInfoPK20Il2CppGenericContext
SHa:__ZN9GfxDevice21RegisterNativeTextureE9TextureIDi16TextureDimension
hEd:_CultureInfo__ctor_m456863818
yyj:__ZN6il2cpp6icalls8mscorlib6System10Reflection4Emit11TypeBuilder20create_generic_classEP27Il2CppReflectionTypeBuilder
Vde:_Enumerator_MoveNext_m2504790928_gshared
NV:__ZN3WWW20GetCachedErrorStringEv
dXb:__ZN12ScriptMapperD2Ev
J_c:_KeyedHashAlgorithm_Dispose_m1864300576
xvi:_X509Certificate_PEM_m49854707
atf:_X509BasicConstraintsExtension__ctor_m3320418592
Hui:_ExtendedKeyUsageExtension_Decode_m901297139
$hc:__Z52Register_UnityEngine_RenderTexture_Internal_GetWidthv
uvj:_GC_check_leaked
NVb:__ZN9ShaderLab20SerializedSubProgram16TextureParameter8TransferI19StreamedBinaryWriteILb0EEEEvRT_
L5d:_Array_InternalArray__Insert_TisVector4_t2243707581_m1643342708_gshared
sT:__ZN11UnityEngine15CloudWebService16SessionContainer8AddEventEPNS0_14CloudEventInfoE
NGa:__Z4TrimRKN4core12basic_stringIcNS_20StringStorageDefaultIcEEEES5_
tah:_Text_set_resizeTextMaxSize_m4034967714
sDf:__ZL55GuidAttribute_t222072359_CustomAttributesCacheGeneratorP21CustomAttributesCache
uQg:_GUIStyle_SetDefaultFont_m2095841351
gFg:_CustomAttributeNamedArgument_Equals_m2691468532
Itb:__ZN10VertexData8TransferI14SafeBinaryReadEEvRT_
pJ:__ZN4FMOD8ChannelI8setDelayE14FMOD_DELAYTYPEjj
Npd:_Stack__ctor_m2410583781
owj:_GC_malloc_atomic
GEg:_Default_GetBetterMethod_m4255740863
FD:__Z93Register_UnityEngine_Experimental_Director_AnimationClipPlayable_INTERNAL_CALL_SetApplyFootIKv
R2h:__Z48RuntimeInvoker_UIVertex_t1204258818_Il2CppObjectPK10MethodInfoPvPS2_
_mj:__ZNSt3__214__split_bufferIN6il2cpp2vm5Image20EmbeddedResourceDataERNS_9allocatorIS4_EEED2Ev
veb:__ZN15dense_hashtableINSt3__24pairIKN4core12basic_stringIcNS2_20StringStorageDefaultIcEEEEP11AssetBundleEES6_20StringHash32FunctionIS6_EN14dense_hash_mapIS6_S9_SC_NS0_8equal_toIS6_EENS0_9allocatorISA_EEE9SelectKeyESF_SH_E4findERS7_
T1:__ZL20SortItemByInstanceIDRKN18AwakeFromLoadQueue4ItemES2_
PKg:_TypeBuilder_create_runtime_class_m2719530260
f1c:_RNGCryptoServiceProvider_RngClose_m2921734810
Vu:__ZNK34AnimationStateMachineMixerPlayable26GetInterruptedPosePlayableEv
hXc:__ZN20UnityConnectSettings8TransferI24GenerateTypeTreeTransferEEvRT_
Ss:__ZN34BlobWriteTransferSTLStyleArrayImplI22OffsetPtrArrayTransferIbEEclERS1_17TransferMetaFlagsR9BlobWrite
W0e:_SimpleCollator_IsHalfKana_m4255579023
zre:_Collection_1_System_Collections_IList_Contains_m3365884450_gshared
HMa:__Z16FlaggedAsSkippedIN4core12basic_stringIcNS0_20StringStorageDefaultIcEEEEEbRK13FileEntryInfoRKT_19FileEnumerationFlag
w7:__ZL31InitializeRendererUpdateManagerPv
IMi:_Terminal_Awake_m2961603900
$hf:_ClientSessionInfo_Dispose_m2571428025
UXd:_LayoutGroup_DelayedSetDirty_m4276695617
llf:_RecordProtocol_decryptRecordFragment_m2510859489
Aeb:__Z28GetAbsoluteAssetBundlePrefixRKN4core12basic_stringIcNS_20StringStorageDefaultIcEEEE
xyb:__ZN11TimeManager8TransferI19StreamedBinaryWriteILb0EEEEvRT_
FUe:_DelegatePInvokeWrapper_ReadDelegate_t3184826381
FHc:_compare_uni_maps
rVc:__ZN11UnityEngine15PlatformWrapper27GetGraphicsCapsSupportFlagsEv
bzd:_Decimal_Equals_m1115043331
vNb:__ZN12NativeBufferI16Converter_StringE15SetupForWritingER9ArrayInfo
tKj:___cxa_end_catch__wrapper
hfh:_ValueCollection_System_Collections_Generic_ICollectionU3CTValueU3E_Clear_m231380274_gshared
YGd:_Entry__ctor_m1176697586
v4a:__ZN13MonoBehaviour22DoScriptRebuildWarningEv
fcc:__Z38Camera_CUSTOM_INTERNAL_CALL_RaycastTryP12Il2CppObjectRK3Rayfi
Zjc:__ZN18CrashReportHandler12CloseServiceEv
Cah:_Text_get_verticalOverflow_m3134063496
afj:__ZN6il2cpp6icalls8mscorlib6System5Array13ClearInternalEP11Il2CppArrayii
Z2b:__ZZL23RegisterLightPropertiesR22GenericPropertyBindingEN22Wrapper_LightSpotAngle13GetFloatValueEPv
Tii:_GCHandle_get_Target_m2327042781
oGj:_llvm_cttz_i32
vtf:_PublicKey_DecodeDSA_m1169363495
Hmc:__ZN11IMGUIModule25GetGUIStyleScriptingClassEv
DKc:_tt_get_interface
dgj:__ZN6il2cpp5utils9PathUtils7CombineIcEENSt3__212basic_stringIT_NS3_11char_traitsIS5_EENS3_9allocatorIS5_EEEERKSA_SC_
wpf:_NameObjectCollectionBase_BaseGet_m667273025
jtc:__ZN9JSONWrite8TransferI13dynamic_arrayIiLj4EEEEvRT_PKc17TransferMetaFlags
q_:__Z18ConvertUTF16toUTF8PPKtS0_PPhS2_15ConversionFlags
$qj:__ZN6il2cpp2os20PathErrnoToErrorCodeERKNSt3__212basic_stringIcNS1_11char_traitsIcEENS1_9allocatorIcEEEEi
Rxg:_TypeLoadException__ctor_m1903359728
MJi:__ZL16my_g_bit_nth_msfj
g$c:_KeySizes__ctor_m3526899007
SWb:__ZNK12ShaderErrors11ShaderErrorltERKS0_
n7f:__ZL69ArgumentCache_t4810721_CustomAttributesCacheGenerator_m_FloatArgumentP21CustomAttributesCache
Wbd:_EncoderReplacementFallback__ctor_m2208438262
tUa:__Z23SetupStereoFlareElementP11FlareVertexRK8Vector2fS3_S3_RK11ColorRGBA32RK10Matrix4x4fRK8Vector3fb
ta:invoke_iiiifiiii
jwc:__ZN9rapidjson8internal6u64toaEyPc
PSe:_Directory_GetFiles_m4036267478
LBd:_Enum_System_IConvertible_ToType_m2669300536
dEa:__ZL19BlitFramebufferImplRN4gles23BlitFramebufferDrawQuadER9GfxDevice9TextureIDRK8Vector4f
g7i:__ZN15dense_hashtableINSt3__24pairIK10KeyWrapperIPK10Il2CppTypeEjEES6_N6il2cpp8metadata14Il2CppTypeHashEN14dense_hash_mapIS6_jSB_NS6_14EqualsComparerINSA_26Il2CppTypeEqualityComparerEEENS0_9allocatorIS8_EEE9SelectKeyESF_SH_E4findERS7_
aCe:_ReadOnlyCollection_1_System_Collections_IList_Add_m2333231354_gshared
BAc:_UNITY_FT_List_Add
FKg:_OpCodes__cctor_m939885911
V0b:__ZN14Texture2DArray11InitTextureEiii13TextureFormatb
Qlf:_RSASslSignatureDeformatter_SetHashAlgorithm_m4048969080
Aui:_UriParser_InitializeAndValidate_m251943319
A3c:_SymmetricAlgorithm_set_Padding_m3081984460
gyb:__ZN9InputAxis8TransferI18StreamedBinaryReadILb0EEEEvRT_
Wjd:_ArrayList_RemoveAt_m2578928333
AGb:__Z18Transfer_BlittableI14SafeBinaryReadLb0EaEvRK29SerializationCommandArgumentsR31RuntimeSerializationCommandInfo
mei:_AnimatorControllerPlayable_INTERNAL_CALL_GetBoolString_m538178071
gBe:_ReadOnlyCollection_1_System_Collections_IList_set_Item_m1233322304_gshared
Oui:_GeneralNames_get_DNSNames_m2721668874
BBd:_Enum_System_IConvertible_ToByte_m38374586
QAe:_ReadOnlyCollection_1_System_Collections_Generic_IListU3CTU3E_RemoveAt_m1592158292_gshared
HJj:_emscripten_glFrustum__wrapper
Dlf:_ReceiveRecordAsyncResult_get_CompletedWithError_m2670396551
Oyd:_Decimal_Equals_m1798565377
vHg:_TypeBuilder_check_created_m2929267877
eRa:__Z20SyncFenceCullResultsR11CullResults
EFa:__ZN15TextureTFMethod20IsBoneCountSupportedEi
aD:__ZN26AnimatorControllerPlayable9GotoStateEiifff
BTg:_GUISkin_set_horizontalScrollbarThumb_m2119687595
Anb:__ZN14RenderSettings23VirtualRedirectTransferER24GenerateTypeTreeTransfer
Jkc:__ZN18CrashReportManagerC2E18MemLabelIdentifier18ObjectCreationMode
Pvd:_DateTime_System_IConvertible_ToSByte_m2575078084_AdjustorThunk
ZJb:__Z22TransferField_NonArrayI17RemapPPtrTransfer27Converter_SimpleNativeClassI8GUIStyleEEvRK23StaticTransferFieldInfoR31RuntimeSerializationCommandInfoRT0_
B5h:_AnimatorStateInfo_IsTag_m1529621725_AdjustorThunk
x$b:__ZNK17AnimationCurveTplIfE20EvaluateWithoutCacheEfRf
hpj:__ZN6il2cpp2os6Thread12QueueUserAPCEPFvPvES2_
lWg:_GUIStyleState__ctor_m3611888666
hue:_Collection_1_IsValidItem_m1304951912_gshared
M6b:__ZN4Mesh10SetNormalsEPK8Vector3fj
asd:_Convert_ToDateTime_m4161927553
BHg:_TypeBuilder_GetConstructors_m774120094
fr:__ZN17AnimationCurveTplIfE8TransferI14SafeBinaryReadEEvRT_
gDd:_Calendar_get_EraNames_m452820602
Zsb:__ZNSt3__26vectorIN15QualitySettings14QualitySettingENS_9allocatorIS2_EEE6assignIPS2_EENS_9enable_ifIXaasr21__is_forward_iteratorIT_EE5valuesr16is_constructibleIS2_NS_15iterator_traitsIS9_E9referenceEEE5valueEvE4typeES9_S9_
uSa:__ZNK19ShaderPropertySheet11HasPropertyERKN9ShaderLab16FastPropertyNameE
Avd:_DateTime_System_IConvertible_ToByte_m2670443498_AdjustorThunk
Y4:__Z16AsyncReadRequestP16AsyncReadCommand
Vbf:_BigInteger_op_Addition_m1734797151
lWh:__Z110RuntimeInvoker_Boolean_t3825574718_Vector2_t2243707579_Vector2_t2243707579_Single_t2076509932_SByte_t454417549PK10MethodInfoPvPS2_
cje:_List_1_CheckMatch_m1814522134_gshared
WHg:_EnumBuilder_CreateNotSupportedException_m62763134
lZc:__ZNK12HeaderHelper3GetERKN4core12basic_stringIcNS0_20StringStorageDefaultIcEEEE
HYe:_Math_Log_m3371716878
IQg:_GUILayoutUtility_Layout_m3812180708
Zxb:__ZN9InputAxis8TransferI14SafeBinaryReadEEvRT_
g2:__ZNK21ExecutionOrderManager30GetCustomAwakeFromLoadQueueForEPKN5Unity4TypeE
uYc:__Z27RegisterModule_UnityConnectv
VOg:_ParameterInfo_get_IsRetval_m1881464570
r7h:_Bounds_get_size_m1728027642_AdjustorThunk
Jjg:_RealProxy__ctor_m3041043303
SJe:_NumberFormatter_Init_m2654758994
T_c:_HMACSHA1__ctor_m1168389339
LK:__ZN10ObjectPoolIN4FMOD12ChannelGroupENS0_13ChannelGroupIEE7SetSizeEi
P3e:_PrimalityTest_BeginInvoke_m966469054
HEe:_ReadOnlyCollection_1_System_Collections_Generic_ICollectionU3CTU3E_Clear_m1785953911_gshared
RAg:_UInt64_System_IConvertible_ToInt16_m2797150165_AdjustorThunk
VOa:__ZN5Image13ReformatImageEii13TextureFormatN14ImageReference8BlitModeE
Jae:_Array_InternalArray__get_Item_TisLabelData_t3712112744_m863115768_gshared
LPe:_Int32_Parse_m753946802
WXg:_Material_DisableKeyword_m1204728089
Woe:_List_1_RemoveAt_m2331128844_gshared
dcj:__ZN14dense_hash_mapI10KeyWrapperINSt3__24pairIPK9EventInfoP11Il2CppClassEEEj17ReflectionMapHashIS8_ENS9_14EqualsComparerINS1_8equal_toIS8_EEEENS1_9allocatorINS2_IKS9_jEEEEE15set_deleted_keyERSH_
lLg:_UnmanagedMarshal_ToMarshalAsAttribute_m3695569337
UHb:__Z14resize_trimmedINSt3__26vectorI17AnimationCurveTplIfE13stl_allocatorIS3_L18MemLabelIdentifier1ELi16EEEEEvRT_j
E2a:__ZN25CameraStackRenderingState19SetupLastEyeCamerasERK11CameraStack
ihb:__Z12GUIDToStringRK9UnityGUID
RG:__ZN11SoundHandleC2ERKS_
W2g:_Mask_OnEnable_m501850981
v8h:_Canvas_get_targetDisplay_m316548313
fJg:_GenericTypeParameterBuilder_GetGenericTypeDefinition_m2936287336
u3e:_BigInteger_op_Addition_m1196561843
rli:_FormatterData__ctor_m3974986124
r0c:_RijndaelManagedTransform_get_CanReuseTransform_m3735256596
Ymd:_Comparer__cctor_m1327316974
KSe:_MonoIO_ExistsFile_m1421941572
Zwd:_DateTime_op_GreaterThanOrEqual_m3818963848
jy:__ZN17AnimationPlayable18DeallocateBindingsEv
nOd:_DefaultControls_SetDefaultTextValues_m1707718380
mKd:_TouchInputModule_UseFakeInput_m2112019004
oGd:_EventSystem_get_baseEventDataCache_m4294741599
Gnb:__ZN14RenderSettings18TransferDeprecatedI14SafeBinaryReadEEvRT_
TX:__ZN12TLSAllocatorI14StackAllocatorE8AllocateEji
e3:__ZN16ScriptingManager18GetMonoScriptCacheEi
MRg:_GUIStyle_get_stretchHeight_m3396762700
fWi:__ZN13dynamic_arrayIPK10Il2CppTypeLj4EEC2ERKS3_
JTi:__ZN15dense_hashtableINSt3__24pairIK10KeyWrapperIPK11Il2CppClassEPKcEES6_N6il2cpp5utils11PointerHashIS3_EEN14dense_hash_mapIS6_S9_SE_NS6_14EqualsComparerINS0_8equal_toIS5_EEEENS0_9allocatorISA_EEE9SelectKeyESJ_SL_E15set_deleted_keyERKSA_
tSd:_GridLayoutGroup_CalculateLayoutInputHorizontal_m2355123124
FGb:__Z18Transfer_BlittableI14SafeBinaryReadLb1EyEvRK29SerializationCommandArgumentsR31RuntimeSerializationCommandInfo
Zpc:__ZN8JSONRead8TransferIfEEvRT_PKc17TransferMetaFlagsb
moh:_U3CGetEnumeratorU3Ec__Iterator0_Reset_m2980566576_gshared
ZEj:__ZNSt3__212basic_stringIcNS_11char_traitsIcEENS_9allocatorIcEEE6appendEPKcj
EGf:__ZL54TypeBuilder_t3308873219_CustomAttributesCacheGeneratorP21CustomAttributesCache
Mka:__ZN6prcoreL17RemapGenericFloatI18TexFormatARGBFloat17TexFormatRGBAHalfEEvPKNS_9InnerInfoE
Hve:_Collection_1_CheckWritable_m691269733_gshared
yIg:_GenericTypeParameterBuilder_GetAttributeFlagsImpl_m3338182267
_P:__ZN13Simd4iFactoryIN6detail9FourTupleEEC2Eiiii
cXe:_SynchronizedReader__ctor_m1408327515
zGe:_ReadOnlyCollection_1_System_Collections_IList_Clear_m1858417639_gshared
aOa:__ZZ23InitPlayerLoopCallbacksvEN38PostLateUpdateShaderHandleErrorsstruct7ForwardEv
Xqb:__ZN15SerializeTraitsI33EnlightenTerrainChunksInformationE8TransferI14SafeBinaryReadEEvRS0_RT_
H1b:__ZNK32RendererMaterialAnimationBinding9BindValueER6ObjectRKN11UnityEngine9Animation14GenericBindingERNS3_10BoundCurveE
sIh:__Z112RuntimeInvoker_Int32_t2071877448_Il2CppObject_Int32_t2071877448_Int32_t2071877448_Il2CppObject_Int32_t2071877448PK10MethodInfoPvPS2_
qxb:__Z13GetIAnimationv
wpa:__ZL18stbir__support_onef
Nhe:_List_1_System_Collections_IList_Remove_m2040310137_gshared
Xrc:__Z26Transfer_UnityEngineObjectI9JSONWriteLb0EEvRK29SerializationCommandArgumentsR31RuntimeSerializationCommandInfo
Hba:__ZN9ShaderLab4Pass9ApplyPassEjPK19ShaderPropertySheetR17ShaderPassContextP6ShaderiPKNS_10GrabPassesEPNS_11SubProgramsE
acd:_EncoderReplacementFallback_CreateFallbackBuffer_m3579126537
Yzg:_UInt32_System_IConvertible_ToInt16_m2251335934_AdjustorThunk
GOc:__ZNSt3__27__sort5IRNS_6__lessIN2UI14DepthSortEntryES3_EEPS3_EEjT0_S7_S7_S7_S7_T_
eUi:__ZN14dense_hash_mapI10KeyWrapperIPKcEP11Il2CppClassN6il2cpp5utils11StringUtils12StringHasherIS2_EENS3_14EqualsComparerINS8_21CaseSensitiveComparerEEENSt3__29allocatorINSE_4pairIKS3_S5_EEEEE13set_empty_keyERSH_
VCh:__Z31RuntimeInvoker_Void_t1841601450PK10MethodInfoPvPS2_
ufd:_Boolean_System_IConvertible_ToType_m3990189691
Ca:invoke_vdd
un:FUNCTION_TABLE_fiii
$Ad:_Double_System_IConvertible_ToUInt32_m624993430
xn:FUNCTION_TABLE_fiif
vvg:_Scheduler_Add_m376749205
Pjd:_ArrayList_IndexOf_m2092981366
gmj:__ZN15dense_hashtableINSt3__24pairIK10KeyWrapperINS1_IPKcS4_EEEiEES6_24NamespaceAndNamePairHashN14dense_hash_mapIS6_iS9_NS6_14EqualsComparerI26NamespaceAndNamePairEqualsEENS0_9allocatorIS8_EEE9SelectKeyESD_SF_E12resize_deltaEjj
J0b:__Z14RandomRotationP9Texture2DPhiiii
d1e:_SimpleCollator_IsIgnorable_m2485013022
xme:_List_1_System_Collections_IList_Insert_m2036969360_gshared
VVd:_InputField_GetUnclampedCharacterLineFromPosition_m1912794077
wxd:_DateTimeOffset_ToString_m2121173678_AdjustorThunk
gj:_JS_WebRequest_SetResponseHandler
IPj:_glDeleteProgram__wrapper
mcc:__Z50Register_UnityEngine_Camera_INTERNAL_get_pixelRectv
Ndi:_AnimationOffsetPlayable_set_position_m3583285645
cka:__ZN6prcoreL18BlitFloatToIntegerERK14ImageReferenceRS0_
o9e:_X509CertificateCollection_get_Item_m410866272
TRg:_Rect_get_yMax_m2915146103
KS:__ZN11UnityEngine15CloudWebService14RestDownloader17OnCompleteContentEv
NSd:_LayoutGroup_SetChildAlongAxis_m1615929339
Pa:invoke_viffi
xs:__ZN11UnityEngine9Animation40SetFlattenedSkeletonTransformsMainThreadER9TransformRKNS0_21AvatarBindingConstantEb
l$:__ZNSt3__26vectorI20ProcessCallbackGroupNS_9allocatorIS1_EEEC2ERKS4_
bA:__ZN17AnimationPlayable28UpdateInternalStateRecursiveILi1ELb0EEEvPK35AnimationPlayableEvaluationConstant
Sa:invoke_vifff
Rec:__Z53Register_UnityEngine_Input_INTERNAL_get_mousePositionv
Pe:_emscripten_request_fullscreen
ZW:__ZN20LocalFileSystemWebGL6DeleteER13FileEntryDatab
Ayd:_Decimal_System_IConvertible_ToUInt16_m1621568250
Re:_emscripten_glDisableVertexAttribArray
Tm:FUNCTION_TABLE_iiiifiiii
qwg:_TimeSpan_get_TotalMinutes_m1645177229_AdjustorThunk
lc:invoke_fifffi
oAa:__ZN4gles23ClearCurrentFramebufferEP7ApiGLESbbbRK10ColorRGBAffi
Wy:__ZN7mecanim12statemachine20CreateStateWorkspaceEjjjRNS_6memory9AllocatorE
ERc:__Z64Register_UnityEngine_CanvasRenderer_SplitIndiciesStreamsInternalv
af:_emscripten_glDeleteObjectARB
Xf:_IMG_Load
UXe:_UnexceptionalStreamReader_Read_m3839775235
aic:__Z53Register_UnityEngine_RenderTexture_Internal_GetHeightv
dla:__ZN6prcoreL17RemapGenericFloatI17TexFormatRGBAHalf18TexFormatARGBFloatEEvPKNS_9InnerInfoE
HBd:_Enum_System_IConvertible_ToInt32_m2459904362
jmc:__ZNK8GUIStyle21DrawWithTextSelectionER8GUIStateRK5RectTIfER10GUIContentbbbbbiiRK10ColorRGBAfSA_
xmc:__Z14GetBuiltinSkini
Uef:_ContentInfo__ctor_m3871771681
Ikc:__ZN18CrashReportHandler23RegisterGlobalCallbacksEv
kFd:_BaseInput_set_compositionCursorPos_m2632248731
fLi:_Enumerator_System_Collections_IEnumerator_Reset_m2573763156_gshared
ySe:_DirectoryInfo_Initialize_m2216118894
e6c:_WindowsIdentity_Dispose_m2649088337
PXb:__ZN2UI13RectTransform23VirtualRedirectTransferER14SafeBinaryRead
FGi:_InvokableCall_1__ctor_m54675381_gshared
j_e:_MonoType_GetMethodImpl_m593754598
EO:__ZZL31InitializeAudioManagerCallbacksvEN33FixedUpdateAudioFixedUpdatestruct7ForwardEv
uUb:__ZNSt3__26vectorIN9ShaderLab20SerializedSubProgramENS_9allocatorIS2_EEE6assignIPS2_EENS_9enable_ifIXaasr21__is_forward_iteratorIT_EE5valuesr16is_constructibleIS2_NS_15iterator_traitsIS9_E9referenceEEE5valueEvE4typeES9_S9_
Qtc:__Z18Transfer_BlittableI8JSONReadLb0E8BitFieldEvRK29SerializationCommandArgumentsR31RuntimeSerializationCommandInfo
Wkg:_SoapServices_RegisterInteropXmlType_m2949236705
T7a:__ZN17PersistentManagerC2Eii
xOb:__ZL17Transfer_GUIStyleI18StreamedBinaryReadILb1EELb0EEvRK29SerializationCommandArgumentsR31RuntimeSerializationCommandInfo
Bad:_String_CharCopy_m2550399897
xZb:__ZN11TypeManager20RegisterNonClassTypeEiP4RTTIPKcS3_
JSb:__ZN9ShaderLab14SerializedPass8TransferI14SafeBinaryReadEEvRT_
pnc:__Z71Register_UnityEngine_GUILayoutUtility_INTERNAL_CALL_Internal_MoveWindowv
xO:__ZN12AudioManager16SetListenerPauseEb
mgj:__ZN6il2cpp2vm9Exception25RaiseOutOfMemoryExceptionERKNS_5utils10StringViewIDsEE
wte:_Collection_1_IsValidItem_m2254106115_gshared
KHg:_TypeBuilder_GetEvent_m3876348075
J9g:_Slider_OnMove_m641164662
da:invoke_viiiiiiiiiii
ABj:___syscall_ret
yvg:_Scheduler__ctor_m3716265742
s6e:_MACAlgorithm_Final_m4076939925
I4i:__ZNSt3__212basic_stringIcNS_11char_traitsIcEENS_9allocatorIcEEE6assignINS_11__wrap_iterIPKcEEEENS_9enable_ifIXaasr21__is_forward_iteratorIT_EE5valuesr38__libcpp_string_gets_noexcept_iteratorISC_EE5valueERS5_E4typeESC_SC_
iub:__ZN11ChannelInfo8TransferI19StreamedBinaryWriteILb0EEEEvRT_
iqh:_InternalEnumerator_1_System_Collections_IEnumerator_get_Current_m3583252352_gshared
tCb:__ZN23ArchiveStorageConverter24ReadHeaderFromMemoryFileEv
lHg:_EnumBuilder_get_FullName_m2818393911
mVa:__ZN14qsort_internal13Partition3WayIP17RODataReplacementi19ROSorterReplacementEENSt3__24pairIT_S6_EES6_S6_T0_T1_
hec:__Z34Register_UnityEngine_Gradient_Initv
NFd:_BaseInputModule_GetAxisEventData_m3903709281
Yae:_Array_InternalArray__get_Item_TisUriScheme_t1876590943_m1821482697_gshared
X7d:_Array_Sort_TisIl2CppObject_m1954851512_gshared
Yaf:_BigInteger__ctor_m3239748086
rW:__ZN13ScreenManager23SetIsOrientationEnabledE18EnabledOrientationb
Du:__ZN7mecanim5human25HumanPoseAddOverrideLayerERNS0_9HumanPoseERKS1_fRKNS_6bitsetILj70EEE
r$b:__ZN13ProduceHelperI9TransformLb0EE7ProduceE18MemLabelIdentifier18ObjectCreationMode
gpc:__Z45Register_UnityEngine_GUIStyle_GetFontInternalv
oai:_Component_SendMessageUpwards_m19741277
E3d:_Array_InternalArray__ICollection_Add_TisHitInfo_t1761367055_m2956071622_gshared
k5a:__ZN10GameObject23VirtualRedirectTransferER18StreamedBinaryReadILb0EE
rg:_glFrontFace
Rmg:_ObjectRecord_get_IsUnsolvedObjectReference_m2202692850
gxf:_FactoryCache_Cleanup_m4130035987
LC:__ZN26AnimatorControllerPlayable14SetLayerWeightEif
t_b:__ZN13ProduceHelperI19LowerResBlitTextureLb0EE7ProduceE18MemLabelIdentifier18ObjectCreationMode
B_a:__ZNSt3__26vectorI16ShadowCasterData13stl_allocatorIS1_L18MemLabelIdentifier2ELi16EEE21__push_back_slow_pathIKS1_EEvRT_
I0i:__ZN6il2cpp6icalls8mscorlib6SystemL16GetFieldFromTypeINS_5utils10functional6FilterINSt3__212basic_stringIcNS7_11char_traitsIcEENS7_9allocatorIcEEEENS4_11StringUtils23CaseInsensitiveComparerEEEEEP21Il2CppReflectionFieldP11Il2CppClassSK_iRKT_
tHi:_UnityAction_1_Invoke_m1279802577_gshared
AAg:_UInt32_ToString_m1783596809
fBi:_Vector3_get_forward_m1201659139
eNc:__Z51Register_UnityEngine_TextGenerator_GetLinesInternalv
ALi:_HashSet_1_Init_m1258286688_gshared
q9e:_X509CertificateEnumerator_System_Collections_IEnumerator_get_Current_m1643583406
oxi:_X509ExtensionCollection_get_Item_m4212651995
gCe:_ReadOnlyCollection_1_System_Collections_IList_RemoveAt_m525136953_gshared
uka:__ZN6prcoreL17RemapGenericFloatI17TexFormatRGBFloat18TexFormatRGBAFloatEEvPKNS_9InnerInfoE
FAg:_UInt64_System_IConvertible_ToBoolean_m3012279573_AdjustorThunk
tyg:_Type_get_IsGenericTypeDefinition_m2147901038
pLa:__ZN12HandlerChain10ToAbsoluteEPKc
oJe:_GregorianCalendar__ctor_m3794576475
vAg:_UInt32_TryParse_m4283512434
IG:__ZN9AudioClip11CreateSoundEv
rch:_ShimEnumerator_MoveNext_m3313047792_gshared
iue:_Collection_1_ConvertItem_m2185647560_gshared
Xwg:_TimeSpan_op_Inequality_m257547441
iug:_ExecutionContext_GetObjectData_m1456913356
rcj:__ZN14dense_hash_mapI10KeyWrapperINSt3__24pairIPK9FieldInfoP11Il2CppClassEEEj17ReflectionMapHashIS8_ENS9_14EqualsComparerINS1_8equal_toIS8_EEEENS1_9allocatorINS2_IKS9_jEEEEEC2EjRKSB_RKSF_
VZg:_Object_set_hideFlags_m2204253440
T7i:__ZNK15dense_hashtableINSt3__24pairIK10KeyWrapperINS1_IPK10MethodInfoP11Il2CppClassEEEjEES9_17ReflectionMapHashIS8_EN14dense_hash_mapIS9_jSD_NS9_14EqualsComparerINS0_8equal_toIS8_EEEENS0_9allocatorISB_EEE9SelectKeyESI_SK_E13find_positionERSA_
dMb:__Z18Transfer_BlittableI19StreamedBinaryWriteILb0EELb0E8Vector2fEvRK29SerializationCommandArgumentsR31RuntimeSerializationCommandInfo
hLe:_DateTimeFormatInfo_get_RoundtripPattern_m562440017
JXc:__ZN11UnityEngine7Connect16PersistentValues13RestoreValuesER8JSONRead
XMa:__ZN20ArchiveStorageReader31TryToReadDirectoryFromBlockDataEyPKvj
GAd:_Double_System_IConvertible_ToByte_m3004284950_AdjustorThunk
$ij:__ZN6il2cpp2vmL11GetIdentityEP14Il2CppIUnknown
T5e:_SmallXmlParser_ReadCDATASection_m2558307107
dvj:_GC_push_gc_structures
dqf:_ServicePointManager_get_ServerCertificateValidationCallback_m1409951209
G1i:__ZN6il2cpp6icalls8mscorlib6SystemL8IsPublicEPK9EventInfo
Hpd:_Enumerator_get_Current_m1271212567
Jsj:__ZThn4_N6il2cpp2vm13ComObjectBase18ReleaseMarshalDataEP13Il2CppIStream
cXg:_Input_set_compositionCursorPos_m1615567306
Tqf:_IPAddress_ParseIPV6_m2209709575
n6g:_U3CClickRepeatU3Ec__Iterator0_MoveNext_m1747924386
yIe:_Comparison_1_Invoke_m1670081898_gshared
cbh:_Toggle_set_group_m3833595685
lYd:_LayoutRebuilder_ForceRebuildLayoutImmediate_m566681977
L3d:_Array_InternalArray__ICollection_Add_TisVector4_t2243707581_m698578249_gshared
K0:__ZN8keywords6CreateEPKc
fFh:__Z89RuntimeInvoker_Il2CppObject_Il2CppObject_Int32_t2071877448_Int32_t2071877448_Il2CppObjectPK10MethodInfoPvPS2_
BLb:__ZN24GenerateTypeTreeTransfer8TransferINSt3__26vectorI17AnimationCurveTplIfE13stl_allocatorIS4_L18MemLabelIdentifier1ELi16EEEEEEvRT_PKc17TransferMetaFlags
S:Math_imul
rUg:_GUIStyle_set_active_m2896743432
ltb:__ZN11PlayerPrefs6GetIntERKN4core12basic_stringIcNS0_20StringStorageDefaultIcEEEEi
OMc:__Z45TextGenerator_CUSTOM_INTERNAL_get_rectExtentsP12Il2CppObjectP5RectTIfE
Sgi:_PlayableHandle_Equals_m1435096530
V_d:_SetPropertyUtility_SetStruct_TisChar_t3454481338_m2333420724_gshared
zte:_Collection_1_IsSynchronized_m2601980439_gshared
aod:_Hashtable_ContainsKey_m2716576664
pP:__ZN11AudioSource12SetAudioClipEP9AudioClip
jpi:_PatternCompiler_EmitCategory_m1696942454
Lyd:_Decimal_decimalFloorAndTrunc_m3655683429
c4d:_Array_InternalArray__ICollection_CopyTo_TisInt32_t2071877448_m984622488_gshared
f_:__ZN18ScriptingArguments9AddObjectE18ScriptingObjectPtr
OQc:__Z39CanvasGroup_Get_Custom_PropInteractableP12Il2CppObject
vQ:__ZN11UnityEngine15CloudWebService16SessionContainerD2Ev
FLj:_emscripten_glStencilOpSeparate__wrapper
AJc:_cf2_getLanguageGroup
BAa:__ZN17GenericDynamicVBOC2ER9GfxDevice13GfxBufferModejj
Rli:_Context_get_HasDynamicSinks_m1998518649
yXi:__ZN15dense_hashtableINSt3__24pairIK10KeyWrapperIPKcEP11Il2CppClassEES5_N6il2cpp5utils11StringUtils12StringHasherIS4_EEN14dense_hash_mapIS5_S8_SE_NS5_14EqualsComparerINSC_21CaseSensitiveComparerEEENS0_9allocatorIS9_EEE9SelectKeyESI_SK_E6insertERKS9_
OR:__ZN11UnityEngine15CloudWebService17SessionEventQueue10PurgeItemsEj
T3a:__ZN6Camera16StandaloneRenderENS_10RenderFlagEP6ShaderRKN4core12basic_stringIcNS3_20StringStorageDefaultIcEEEE
Kcd:_Array_System_Collections_IList_get_Item_m2088124007
cdd:_Array_GetLength_m2083296647
Lld:_SynchronizedArrayListWrapper_ToArray_m1522185111
YNb:__Z18Transfer_BlittableI18StreamedBinaryReadILb1EELb1EtEvRK29SerializationCommandArgumentsR31RuntimeSerializationCommandInfo
yva:__ZN9GfxDevice20DeallocRenderSurfaceEP17RenderSurfaceBase
tCg:_ValueType_ToString_m3796301715
jDa:__ZN20GpuProgramParameters36UpdatePrepareValuesMaximumBufferSizeEv
hfc:__Z53Register_UnityEngine_Quaternion_INTERNAL_CALL_Inversev
VQg:_GUILayoutGroup__ctor_m992523271
Gib:__ZN12BaseRenderer23RendererBecameInvisibleEv
Syc:__ZN20TextRenderingPrivate8FontImpl13CharacterInfo8TransferI18StreamedBinaryReadILb0EEEEvRT_
SLb:__Z29Transfer_Blittable_ArrayFieldI24GenerateTypeTreeTransferfEvRT_R9ArrayInfoRK23StaticTransferFieldInfo
kNh:__Z51RuntimeInvoker_Single_t2076509932_Int16_t4041245914PK10MethodInfoPvPS2_
P6a:__ZN19CustomRenderTexture9AddParentE4PPtrIS_E
bsb:__ZN8Gradient8TransferI14SafeBinaryReadEEvRT_
TIi:_UnityEvent_1_Invoke_m1533100983_gshared
tha:__ZNSt3__26vectorIN4core12basic_stringIcNS1_20StringStorageDefaultIcEEEE13stl_allocatorIS5_L18MemLabelIdentifier1ELi16EEE7reserveEj
hqf:_FileWebRequest__ctor_m4003648606
Deg:__ZL71SpriteState_t1353336012_CustomAttributesCacheGenerator_m_DisabledSpriteP21CustomAttributesCache
JBd:_Enum_System_IConvertible_ToSByte_m3488526280
JZg:_MonoBehaviour_StopAllCoroutines_m1675795839
SW:__ZNK20LocalFileSystemPosix9IsSymLinkERK13FileEntryData
Ztj:_GC_new_free_list_inner
Vih:_DefaultComparer_Equals_m85211180_gshared
b_e:_MonoType_InternalGetEvent_m532443236
fwe:_Collection_1_IndexOf_m2700825189_gshared
Auc:__ZN8JSONRead8TransferI10RectOffsetEEvRT_PKc17TransferMetaFlagsb
wR:__ZN9JSONWrite8TransferIN11UnityEngine15CloudWebService14DataErrorEvent15FileErrorDetailEEEvRT_PKc17TransferMetaFlags
ebd:_Decoder__ctor_m2623573910
aDe:_ReadOnlyCollection_1_System_Collections_Generic_IListU3CTU3E_RemoveAt_m1731148677_gshared
EJ:__ZN12SoundManager20RegisterModifiedClipEP10SampleClip
QGh:__Z108RuntimeInvoker_Void_t1841601450_Il2CppObject_Int64_t909078037_Il2CppObject_Int64_t909078037_Int64_t909078037PK10MethodInfoPvPS2_
cM:__ZN11AudioSource4PlayEd
fy:__ZN22AnimationMixerPlayable11DerivesFromE17ScriptingClassPtr
bVi:__ZN15dense_hashtableI10KeyWrapperIPK17Il2CppGenericInstES4_N6il2cpp8metadata21Il2CppGenericInstHashEN14dense_hash_setIS4_S7_NS4_14EqualsComparerINS6_24Il2CppGenericInstCompareEEENSt3__29allocatorIS4_EEE8IdentityESB_SE_E13set_empty_keyERKS4_
Klh:_EqualityComparer_1_System_Collections_IEqualityComparer_Equals_m3589836321_gshared
d6e:_SmallXmlParser_IsNameChar_m1561000202
gwi:_X501__cctor_m2610532554
xCh:_Enumerator_VerifyState_m3173176371_gshared
Toe:_List_1_CheckCollection_m2220107869_gshared
rpb:__ZN7Cubemap23VirtualRedirectTransferER18StreamedBinaryReadILb0EE
Fhf:_RecordProtocol_EncodeRecord_m3884270352
w2c:_SHA256_Create_m896954069
hLc:_Read_CVT
Oud:_Convert_ToUInt32_m776714429
RJa:__ZN12FileAccessor4SeekEx10FileOrigin
SKb:__ZL26Transfer_SimpleNativeClassI24GenerateTypeTreeTransfer17AnimationCurveTplIfELb0EEvRK29SerializationCommandArgumentsR31RuntimeSerializationCommandInfo
zWi:__ZN15dense_hashtableINSt3__24pairIK10KeyWrapperI13dynamic_arrayIPK10Il2CppTypeLj4EEEPFvvEEES8_N6il2cpp8metadata19Il2CppSignatureHashEN14dense_hash_mapIS8_SB_SF_NS8_14EqualsComparerINSE_22Il2CppSignatureCompareEEENS0_9allocatorISC_EEE9SelectKeyESJ_SL_E4swapERSO_
D7:__ZN16LightmapSettings20DidChangeActiveSceneEP10UnitySceneS1_
EEg:_Default_ReorderParameters_m1877749093
Qgg:__ZL59g_AssemblyU2DCSharp_Assembly_CustomAttributesCacheGeneratorP21CustomAttributesCache
mlb:__ZNK17InstancedPropInfo15RenderInstancesERK15RenderNodeQueuePK17BatchInstanceDataj17ShaderChannelMask
S$i:__ZN6il2cpp5utils9PathUtils8BasenameIcEENSt3__212basic_stringIT_NS3_11char_traitsIS5_EENS3_9allocatorIS5_EEEERKSA_
XK:__ZN10AudioMixer11SetupGroupsEv
bnc:__Z35Register_UnityEngine_Event_get_typev
S6e:_PrivateKeyInfo_DecodeRSA_m1427048948
ygj:__ZN6il2cpp2vm9Exception23GetInvalidCastExceptionERKNS_5utils10StringViewIDsEE
IDg:_Assembly_FillName_m1934025015
vPa:_UNITY_png_free
JJj:_emscripten_glDepthRange__wrapper
c9c:_String_IndexOf_m2126171214
_Qe:_Int64_ToString_m1544341651_AdjustorThunk
aA:__ZN8Animator28BuildControllerPlayableCacheEv
ZMe:_Guid_CheckNull_m2903986431
g7h:_Bounds__ctor_m1202659404
X1:__Z63ThreadAndSerializationSafeCheckGetMonoBehaviourBeingTransferredv
Jwj:_GC_enable
Ajf:_TlsClientCertificateVerify_ProcessAsSsl3_m3377063356
gHh:__Z97RuntimeInvoker_Il2CppObject_Il2CppObject_Int32_t2071877448_Il2CppObject_Il2CppObject_Il2CppObjectPK10MethodInfoPvPS2_
GJd:_StandaloneInputModule_set_repeatDelay_m2820945738
Fzg:_UInt16_ToString_m4213290405
Mec:__Z37Register_UnityEngine_Input_GetAxisRawv
lki:_ChannelServices_RegisterChannel_m3832858065
QBd:_Enum_GetName_m1226611481
kJe:_Func_2_Invoke_m4121137703_gshared
RL:__ZN11AudioSource5ResetEv
wub:__ZN14Texture2DArray23VirtualRedirectTransferER18StreamedBinaryReadILb0EE
Ori:_Literal_CompileLiteral_m276843152
GXb:__ZN2UI13RectTransform13AwakeFromLoadE17AwakeFromLoadMode
YZa:__ZN14qsort_internal30FindAndMovePivotToLastPositionIP20ShadowCasterSortDatai26ShadowCasterSortDataSorterEEvT_S4_T0_T1_
NFb:__Z18Transfer_BlittableI14SafeBinaryReadLb1EiEvRK29SerializationCommandArgumentsR31RuntimeSerializationCommandInfo
qra:__ZN17PersistentManager13GetAllFileIDsERKN4core12basic_stringIcNS0_20StringStorageDefaultIcEEEER13dynamic_arrayIxLj8EE
vMh:__Z72RuntimeInvoker_Il2CppObject_IntPtr_t_Int32_t2071877448_Int32_t2071877448PK10MethodInfoPvPS2_
ced:_Array_LastIndexOf_m4096535198
Mjd:_ArrayList_Add_m1719188324
WAd:_Double_System_IConvertible_ToSByte_m1653690240_AdjustorThunk
Ak:_glGetStringi
Ymg:_ObjectManager_AddFixup_m4148241867
BEd:_CultureInfo_set_NumberFormat_m1618950525
Sub:__ZN18StreamedBinaryReadILb0EE21TransferSTLStyleArrayI13dynamic_arrayI8Vector4fLj4EEEEvRT_17TransferMetaFlags
Quf:_X509Store__ctor_m1573680316
dvf:_X509Chain_get_CertificateCollection_m324631835
amh:_EqualityComparer_1__cctor_m1011898363_gshared
EKd:_AnimationTriggers__ctor_m2623627182
B1d:_Array_InternalArray__IndexOf_TisClientCertificateType_t4001384466_m1168139450_gshared
UTa:__ZN9Coroutine16SetCurrentMethodE18ScriptingMethodPtr
ps:__ZN8Animator9WriteStepEv
ntb:__ZNSt3__23mapIN4core12basic_stringIcNS1_20StringStorageDefaultIcEEEE9PrefValueNS_4lessIS5_EENS_9allocatorINS_4pairIKS5_S6_EEEEEixERSB_
Fjc:__ZN15DirectorManager22ConstructPlayableGraphEv
t3c:_SymmetricAlgorithm_set_IV_m4262655606
cah:_StencilMaterial__cctor_m2963056855
pFg:_CustomAttributeNamedArgument_GetHashCode_m3715408876_AdjustorThunk
VMc:__Z38Register_UnityEngine_Font_HasCharacterv
iuf:_X509Certificate2_AppendBuffer_m3517242299
W1a:__Z35IntersectSpherePlaneBoundsOptimizedRKN4math7_float4EPS1_i
xEd:_CultureInfo_get_IsNeutralCulture_m3874876470
zzd:_Delegate_CreateDelegate_m3813023227
Zti:_Uri_get_AbsoluteUri_m2120317928
Rnj:__ZN6il2cpp2os5posix15PosixWaitObject13InterruptWaitEv
GNd:_ColorTween_TweenValue_m3279916815
g7:__Z22CleanupLODGroupManagerPv
F3d:_Array_InternalArray__ICollection_Add_TisContentType_t1028629049_m2984242302_gshared
Zmc:__Z21Event_CUSTOM_PopEventP12Il2CppObject
lkj:__ZN6il2cpp8metadata15GenericMetadata20RegisterGenericClassEP18Il2CppGenericClass
il:_glUniform3fv
eAb:__ZNSt3__218__insertion_sort_3IRN15ResourceManager10Dependency6SorterEPS2_EEvT0_S6_T_
vee:_Enumerator_System_Collections_IEnumerator_Reset_m3796537546_AdjustorThunk
sMc:_UNITY_FT_Init_Class_tt_service_gx_multi_masters
MZe:_IntComparer_Compare_m3057931085
FYa:__ZNK16LightmapSettings31GetRealtimeLightmapDecodeValuesEv
sL:__ZN5audio5mixer12SetSuspendedERNS0_16AudioMixerMemoryEb
Zma:__ZN17PersistentManager21UnloadNonDirtyStreamsEv
ohj:__ZN6il2cpp2vm13LivenessStateC2EP11Il2CppClassjPFvPP12Il2CppObjectiPvES7_PFvvESB_
hSa:__ZN12ImageFilters4BlitER17ShaderPassContextP7TextureP13RenderTextureiPK18SharedMaterialDataPKcP6ShaderiNS_9BlitFlagsE11CubemapFaceRK8Vector2fSH_
ysf:_Oid__ctor_m1936781897
m_g:_Object_INTERNAL_CALL_Internal_InstantiateSingleWithParent_m1401308849
_hi:_ResourceSet__ctor_m1222864106
Ire:_Collection_1_System_Collections_IList_get_Item_m3376056117_gshared
Fl:_emscripten_glDepthMask
uee:_Enumerator_VerifyState_m3639069574_gshared
GBa:__ZN4crnd25static_huffman_data_model22prepare_decoder_tablesEv
gre:_Enumerator_MoveNext_m689054299_gshared
Q7d:_Array_Sort_TisIl2CppObject_TisIl2CppObject_m1915706600_gshared
Cbf:_ModulusRing_Difference_m662924064
iMd:_CanvasUpdateRegistry_ObjectValidForUpdate_m855695984
YUd:_InputField_set_onValueChanged_m2406388125
eZ:__ZL22CleanupUnityWebStreamsPv
E$f:__ZL92AudioSource_t1135106623_CustomAttributesCacheGenerator_AudioSource_Play_m889724421____delay0P21CustomAttributesCache
cQb:__Z18Transfer_BlittableI18StreamedBinaryReadILb0EELb0E10ColorRGBAfEvRK29SerializationCommandArgumentsR31RuntimeSerializationCommandInfo
_of:_ListDictionary_Add_m4276262662
I7:__Znaj
T0c:_RIPEMD160Managed_GGG_m1639995340
gQj:_emscripten_glEnableClientState__wrapper
rZ:__ZN17MessageIdentifierC2EPKcNS_7OptionsEPKN5Unity4TypeES1_
pE:__Z76AnimatorControllerPlayable_CUSTOM_INTERNAL_CALL_CrossFadeInFixedTimeInternalR9HPlayableifif
Odh:_Enumerator_System_Collections_IEnumerator_get_Current_m1648049763_gshared
uzj:__ZN6il2cpp6icalls8mscorlib4Mono8Security12Cryptography18KeyPairPersistence15_ProtectMachineEP12Il2CppString
P_d:_Enumerable_Any_TisIl2CppObject_m2208185096_gshared
Xcd:_Array_System_Collections_IList_Remove_m2438892375
FWe:_TextWriter__ctor_m2225796097
xdb:__ZN14SafeBinaryRead8TransferI14ConstantStringEEvRT_PKc17TransferMetaFlags
NSg:_ScriptableObject_Internal_CreateScriptableObject_m1778903390
Aea:__ZNK6Camera16GetStereoEnabledEv
j1b:__ZN12LightManager15InitializeClassEv
Afa:__ZN9ShaderLab11shaderprops16GetComputeBufferEPK19ShaderPropertySheetS3_NS_16FastPropertyNameE
B3:__ZN23ManagedAttributeManager35CallManagedGetDefaultExecutionOrderE17ScriptingClassPtr
P9b:__ZN18ScriptingArgumentsC2Ev
dxg:_TimeZone_IsDaylightSavingTime_m875882154
DLj:_emscripten_glBlendFuncSeparate__wrapper
rgf:_CipherSuiteCollection_System_Collections_IList_set_Item_m750275607
BTa:__ZNK25CameraStackRenderingState27GetStereoImageEffectTextureEb
b2c:_SHA1CryptoServiceProvider__ctor_m3127563759
Kp:__ZN8Vector3f8TransferI14SafeBinaryReadEEvRT_
sgg:__ZL103BaseVertexEffect_t2504093552_CustomAttributesCacheGenerator_BaseVertexEffect_ModifyVertices_m3446986347P21CustomAttributesCache
uo:FUNCTION_TABLE_ii
Ceh:_Enumerator_MoveNext_m335649778_AdjustorThunk
Brc:__Z18Transfer_BlittableI9JSONWriteLb0E8BitFieldEvRK29SerializationCommandArgumentsR31RuntimeSerializationCommandInfo
zAg:_UInt32_ToString_m3894907091_AdjustorThunk
bKj:b44
rEd:_CultureInfo_get_TextInfo_m1582311326
TVg:_GUIStyle_get_contentOffset_m1904924583
J5e:_SmallXmlParser_Error_m1832158746
zk:_glDeleteVertexArrays
P9a:__Z24CreateDirectoryRecursiveRKN4core12basic_stringIcNS_20StringStorageDefaultIcEEEE
YJj:b41
pVb:__ZN9ShaderLab20SerializedSubProgram8TransferI18StreamedBinaryReadILb0EEEEvRT_
fWe:_StreamAsyncResult_get_AsyncWaitHandle_m4218169359
mlc:__Z22MonoGUIContentToNative18ScriptingObjectPtrR10GUIContent
xNc:__ZN2UI13CanvasManager9AddCanvasEPNS_6CanvasE
aqa:__ZN9Texture3D8TransferI19StreamedBinaryWriteILb0EEEEvRT_
PUa:__ZNK6Camera22CalculateRenderingPathEv
Rsc:__ZN9JSONWrite8TransferI5RectTIfEEEvRT_PKc17TransferMetaFlags
au:__ZN11UnityEngine9Animation37SetGenericRootTransformPropertyValuesERKNS0_30AnimatorGenericBindingConstantERKN7mecanim10ValueArrayER9Transformbb
yfi:_AnimatorControllerPlayable_INTERNAL_CALL_GetCurrentAnimatorClipInfoInternal_m3542665271
MJb:__ZL12InvokeMethodI17RemapPPtrTransferEvRK29SerializationCommandArgumentsR31RuntimeSerializationCommandInfo
f9e:_X509Certificate_get_PublicKey_m714501701
LEc:_tt_sbit_decoder_load_image
r9c:_String_LastIndexOf_m290475879
Elc:__ZNSt3__24listIN10GUIManager12SortedScriptE11memory_poolIS2_EE6__sortI13OldSortScriptEENS_15__list_iteratorIS2_PvEESA_SA_jRT_
JAg:_UInt64_System_IConvertible_ToChar_m1930853313_AdjustorThunk
vjf:_TlsClientCertificate_SendCertificates_m1096074091
Ood:_SyncHashtable_get_Item_m408601391
fDe:_ReadOnlyCollection_1_System_Collections_IEnumerable_GetEnumerator_m1401363518_gshared
bdb:__ZNK9Behaviour26GetTypeInfoVirtualInternalEv
mre:_Stack_1_System_Collections_ICollection_CopyTo_m2104527616_gshared
Trg:_StringBuilder_AppendFormat_m1666670800
Y_a:__ZN18DeferredRenderLoop13RenderGBufferEP13RenderTexturePS1_b8JobFencePK25DeferredRenderLoopScratchRi
xfj:__ZN6il2cpp6icalls8mscorlib6System9ThreadingL11ThreadStartEPv
y$:__ZN15DirectorManager12OnSampleTimeEv
xFe:_ReadOnlyCollection_1_System_Collections_IList_Remove_m3878418841_gshared
bVd:_InputField_EnforceContentType_m1902926812
$z:__ZN8Animator13ClearBindingsEv
Zda:__ZN12CachedReader10Align4ReadEv
Sgj:__ZN6il2cpp2vm9Exception28GetMarshalDirectiveExceptionEPKc
R_e:_MulticastDelegate_GetObjectData_m3187757658
cWa:__Z21GetScriptingArraySize17ScriptingArrayPtr
jyc:__ZN20TextRenderingPrivate8FontImpl8TransferI14SafeBinaryReadEEvRT_
aia:__Z35UnityPropertySheet_MakeSortedColorsRKNSt3__23mapIN9ShaderLab16FastPropertyNameE10ColorRGBAfNS_4lessIS2_EENS_9allocatorINS_4pairIKS2_S3_EEEEEER10vector_mapIS2_S3_S5_NS6_INS7_IS2_S3_EEEEE
YUg:_GUIStyle_Draw_m4006459684
qwa:__ZN9GfxDevice17ImmediateTexCoordEifff
gqi:_Parser_ParseRegularExpression_m2390577313
Bed:_Array_double_swapper_m1175307080
Fvf:_X509CertificateEnumerator_System_Collections_IEnumerator_Reset_m327358896
B5c:_Hash__ctor_m2554411450
nKe:_NumberFormatter_AppendDigits_m1308372770
i7c:_Single_System_IConvertible_ToDateTime_m2510003459_AdjustorThunk
Szd:_Delegate_RemoveImpl_m3666700529
zJj:_emscripten_glUniform4f__wrapper
spf:_NameObjectCollectionBase_OnDeserialization_m3478980442
PUd:_InputField_set_caretColor_m2252440840
TA:__ZN8Animator8TransferI19StreamedBinaryWriteILb0EEEEvRT_
yXa:__ZNK6Camera16GetProjectionFarEv
$3a:__Z24InverseTransformRotationRK23TransformAccessReadOnlyRKN4math7_float4E
aNf:__ZL68SecurityCriticalAttribute_t2312050089_CustomAttributesCacheGeneratorP21CustomAttributesCache
PYe:_MissingFieldException__ctor_m1161042282
N1d:_Array_InternalArray__IndexOf_TisSlot_t2267560602_m1912863273_gshared
zYc:__Z31GetPerformanceReportingSettingsv
gqa:__ZN7Texture34CreateFileTextureUploadInstructionE18TextureUploadFlagsj
YRa:__ZN13ComputeShader14SetBufferParamEjRKN9ShaderLab16FastPropertyNameE15ComputeBufferID
kFe:_ReadOnlyCollection_1_System_Collections_Generic_IListU3CTU3E_Insert_m3054305464_gshared
KA:__ZN8Animator8TransferI14SafeBinaryReadEEvRT_
c2d:_Array_InternalArray__IndexOf_TisTypeTag_t141209596_m2882894956_gshared
o9g:_Slider_get_value_m4182660424
i5:__Z23AsyncReadForceCloseFileRKN4core12basic_stringIcNS_20StringStorageDefaultIcEEEE
Zw:__ZN17AnimationPlayable34CollectAnimatorControllerPlayablesER13dynamic_arrayIP26AnimatorControllerPlayableLj4EE
dP:__ZN16BaseVideoTexture19UpdateVideoTexturesEv
plb:__Z28BuildSingleStreamChannelInfo17ShaderChannelMaskRK20VertexChannelsLayoutS_S2_P11ChannelInfo
Eoa:__ZNK16LightmapSettings23HasLightProbeTetrahedraEv
Iif:_Context_get_WriteSequenceNumber_m243492531
vtb:__ZN6Sprite23VirtualRedirectTransferER19StreamedBinaryWriteILb0EE
QGf:__ZL51Assembly_t4268412390_CustomAttributesCacheGeneratorP21CustomAttributesCache
j9c:_String_LastIndexOfAny_m1473637802
sah:_Text_get_resizeTextMaxSize_m2671487437
W6i:__ZNK15dense_hashtableINSt3__24pairIK10KeyWrapperINS1_IPK9FieldInfoP11Il2CppClassEEEjEES9_17ReflectionMapHashIS8_EN14dense_hash_mapIS9_jSD_NS9_14EqualsComparerINS0_8equal_toIS8_EEEENS0_9allocatorISB_EEE9SelectKeyESI_SK_E5beginEv
Sfa:__ZNK9ShaderLab7Program19HasMatchingVariantsERK13dynamic_arrayI16ShaderKeywordSetLj4EE
ht:__ZN15SerializeTraitsIN4math4trsXEE8TransferI8BlobSizeEEvRS1_RT_
Fza:__ZN14DataBufferGLES11CopySubDataEPKS_jjj
he:_emscripten_glVertexPointer
VIa:__ZNSt3__26__treeI20DeviceDepthStateGLES11memcmp_lessIS1_S1_ENS_9allocatorIS1_EEE7destroyEPNS_11__tree_nodeIS1_PvEE
lPc:__ZN2UI13PrepareOutputERNS_7BatchesEjjNS_30AdditionalCanvasShaderChannelsE
d0i:__ZN6il2cpp2vm7Runtime47RaiseExecutionEngineExceptionIfMethodIsNotFoundEPK10MethodInfo
F_a:__Z17GetFrustumPortionPK8Vector3fffPS_
xij:__ZN15dense_hashtableINSt3__24pairIK10KeyWrapperIP14Il2CppIUnknownEjEES5_N6il2cpp5utils11PointerHashIS3_EEN14dense_hash_mapIS5_jSB_NS5_14EqualsComparerINS0_8equal_toIS4_EEEENS0_9allocatorIS7_EEE9SelectKeyESG_SI_E14squash_deletedEv
Hlb:__ZN5Light13AwakeFromLoadE17AwakeFromLoadMode
fF:__Z96Register_UnityEngine_Experimental_Director_AnimatorControllerPlayable_INTERNAL_CALL_PlayInternalv
DOd:_DefaultControls_CreateDropdown_m1384069408
yId:_PointerEventData_get_clickCount_m4064532478
GCd:_EventArgs__cctor_m1350395667
kDd:_CCGregorianCalendar_is_leap_year_m567513478
afd:_Attribute_IsDefined_m2118467641
oSa:__ZN14GraphicsHelper8DrawQuadER9GfxDevice17ShaderChannelMaskbRK5RectTIfE
fHd:_ExecuteEvents_Execute_m898902863
sqh:_InternalEnumerator_1_System_Collections_IEnumerator_get_Current_m3125080595_gshared
Vxe:_Collection_1_System_Collections_IList_Add_m2091889616_gshared
w5b:__ZN16StreamedResource8TransferI24GenerateTypeTreeTransferEEvRT_
ZPd:_DropdownItem_OnPointerEnter_m761897861
Soj:__GLOBAL__sub_I_Thread_cpp_40775
_Fa:__ZN10Matrix3x3f15InvertTransposeEv
WZd:_Array_InternalArray__ICollection_Remove_TisKeyValuePair_2_t1174980068_m2768765894_gshared
Dve:_Collection_1_set_Item_m2199807215_gshared
EIb:__Z29Transfer_Blittable_ArrayFieldI14SafeBinaryRead8Vector3fEvRT_R9ArrayInfoRK23StaticTransferFieldInfo
Lzg:_UInt32_System_IConvertible_ToBoolean_m91295134
qug:_Monitor_Monitor_test_synchronised_m1542589500
H6f:__ZL68RuntimePlatform_t1869584967_CustomAttributesCacheGenerator_WP8PlayerP21CustomAttributesCache
dzc:__ZN20TextRenderingPrivate8FontImpl18ResetCachedTextureEv
E7e:_SymmetricTransform_TransformFinalBlock_m4192185386
MMe:_TextInfo__ctor_m1263401274
HAi:_TouchScreenKeyboard_Open_m913506328
Huj:_GC_print_finalization_stats
ffh:_ValueCollection__ctor_m927733289_gshared
Rbc:__Z53Register_UnityEngine_Behaviour_get_isActiveAndEnabledv
irf:_IPAddress_ToString_m267966740
oq:__ZNSt3__26vectorIN4core12basic_stringIcNS1_20StringStorageDefaultIcEEEENS_9allocatorIS5_EEE8__appendEj
q3i:_il2cpp_gc_collect
Dzb:__ZN26PlayerSettingsSplashScreen8TransferI17RemapPPtrTransferEEvRT_
Pyc:__ZN20TextRenderingPrivate8FontImpl8TransferI17RemapPPtrTransferEEvRT_
Vth:_InternalEnumerator_1_get_Current_m3922357178_gshared
Q0i:__ZN6il2cpp6icalls8mscorlib6SystemL17CollectTypeFieldsINS_5utils10functional10TrueFilterEEEvP11Il2CppClassPKS7_iRNSt3__26vectorIP9FieldInfoNSB_9allocatorISE_EEEERKT_
gbg:__ZL72ColorBlock_t2652774230_CustomAttributesCacheGenerator_m_HighlightedColorP21CustomAttributesCache
vxg:_Type_get_IsValueType_m1733572463
dZb:__Z13GetTagManagerv
lJh:__Z127RuntimeInvoker_Void_t1841601450_IntPtr_t_Int32_t2071877448_SByte_t454417549_Int32_t2071877448_SByte_t454417549_SByte_t454417549PK10MethodInfoPvPS2_
w_d:_Array_InternalArray__ICollection_Remove_TisUInt16_t986882611_m65494986_gshared
_De:_ReadOnlyCollection_1_IndexOf_m3054637117_gshared
$t:__ZN11UnityEngine9Animation37HasGenericRootTransformPropertyValuesERKNS0_30AnimatorGenericBindingConstantEb
fQ:__ZN11UnityEngine15CloudWebService17CloudJobSchedulerD0Ev
e8c:_String_System_IConvertible_ToBoolean_m2696751322
gna:__ZN18LoadSceneOperation7PerformEv
rRg:_GUILayer_INTERNAL_CALL_HitTest_m693512502
m9c:_String_LastIndexOfAny_m4281325295
N7h:_Camera_get_pixelRect_m2084185953
ME:__Z113Register_UnityEngine_Experimental_Director_AnimatorControllerPlayable_INTERNAL_CALL_GetAnimatorControllerInternalv
Ylc:__Z21CleanupGlobalGUIStatev
Zvg:_TimeSpan__ctor_m1888018443_AdjustorThunk
Jod:_SyncHashtable_get_Count_m3694444082
i5i:__ZNSt3__26vectorINS_12basic_stringIcNS_11char_traitsIcEENS_9allocatorIcEEEENS4_IS6_EEE8allocateEj
tHa:__ZN22VertexDeclarationCache5ClearEv
$Oj:_emscripten_glUniform2i__wrapper
N7a:__ZN17PersistentManager12SetPathRemapERKN4core12basic_stringIcNS0_20StringStorageDefaultIcEEEES6_
j0a:__ZN6Camera24PrepareCullingParametersERK23CameraCullingParameters13RenderingPathR11CullResults
sna:__ZN19RuntimeSceneManager22EndIntegrateMainThreadEP10UnitySceneNS_11LoadingModeE
OJb:__Z26Transfer_UnityEngineObjectI17RemapPPtrTransferLb0EEvRK29SerializationCommandArgumentsR31RuntimeSerializationCommandInfo
t9c:_String_IsNullOrEmpty_m2802126737
Nhd:_Byte_Parse_m1442736478
IQe:_Int64_Parse_m3258022240
d9c:_String_IndexOfOrdinal_m3591623977
nAi:_Texture2D_get_whiteTexture_m1979591766
Lpg:_CryptoConfig_EncodeLongNumber_m2352037787
ayg:_Type_GetMethod_m475234662
Jji:_ActivationServices_get_ConstructionActivator_m1726426854
LLb:__Z29Transfer_Blittable_ArrayFieldI24GenerateTypeTreeTransfer4AABBEvRT_R9ArrayInfoRK23StaticTransferFieldInfo
lMi:_Hacker_RunMainMenu_m908116088
GOf:__ZL52Activator_t1850728717_CustomAttributesCacheGeneratorP21CustomAttributesCache
Jvj:_GC_adj_bytes_allocd
B3d:_Array_InternalArray__ICollection_Add_TisKeyframe_t1449471340_m887263954_gshared
JBi:_UIVertex__cctor_m803910084
_4d:_Array_InternalArray__Insert_TisDateTime_t693205669_m1484996356_gshared
Hje:_List_1_System_Collections_IList_Remove_m3933652540_gshared
sVe:_MonoIO_get_ConsoleInput_m2976499023
BKg:_OpCode_get_Size_m481593949_AdjustorThunk
dmd:_BitArrayEnumerator_checkVersion_m3839504595
qdd:_Array_GetUpperBound_m1352329707
gOa:__ZZ23InitPlayerLoopCallbacksvEN36UpdateScriptRunBehaviourUpdatestruct7ForwardEv
Q8c:_String_TrimEnd_m3153143011
nxd:_DateTimeOffset_Equals_m3728302791_AdjustorThunk
q_a:__ZN20SphericalHarmonicsL219AddDirectionalLightERKN4math7_float3ERKNS0_7_float4E
Wwg:_TimeSpan_op_GreaterThanOrEqual_m3997050520
n$:__Z26ScheduleJobForEachInternalR8JobFencePFvPvjES1_iPFvS1_E11JobPriority
otf:_OidEnumerator_MoveNext_m1889267785
l8b:__ZN9Scripting18RaiseMonoExceptionEPKcz
gqb:__ZN9Texture2D8TransferI19StreamedBinaryWriteILb0EEEEvRT_
dTg:_GUISkin_set_box_m877476512
qZi:_TweenRunner_1_StartTween_m3792842064_gshared
I1b:__ZN9ShaderLab16FastPropertyName15InitBy28BitHashEj
q7c:_Single_System_IConvertible_ToInt32_m3269519527_AdjustorThunk
h2c:_SHA1Internal_ProcessBlock_m4070037334
Fpa:__ZN17PersistentManager17IsObjectAvailableEi
rxj:__ZN6il2cpp6icalls8mscorlib6System10Reflection14MonoMethodInfo15get_method_infoE12Il2CppIntPtrP16Il2CppMethodInfo
a6d:_Array_InternalArray__set_Item_TisDouble_t4078015681_m24756265_gshared
mjg:_ObjRef_GetObjectData_m3081609242
b$b:__ZN13ProduceHelperIN2UI13RectTransformELb0EE7ProduceE18MemLabelIdentifier18ObjectCreationMode
yvb:__ZN17PackedFloatVector12UnpackFloatsEPfiiii
nBe:_ReadOnlyCollection_1__ctor_m3671019970_gshared
zv:__ZN17AnimationPlayable28UpdateInternalStateRecursiveILi3ELb0EEEvPK35AnimationPlayableEvaluationConstant
jxa:__ZN13GfxDeviceGLES21DestroyComputeProgramER12ObjectHandleI18ComputeProgram_TagPvE
tsd:_Convert_ToDecimal_m2007036836
j7:__ZN17UniqueIDGenerator16DestroyPureIndexEj
N3:__ZL21AppendNestedClassName17ScriptingClassPtrRN4core17string_with_labelILi1EEE
jTb:__ZN14SafeBinaryRead21TransferSTLStyleArrayINSt3__26vectorIN9ShaderLab20SerializedSubProgram12UAVParameterENS1_9allocatorIS5_EEEEEEvRT_17TransferMetaFlags
Qli:_Context_NotifyDynamicSinks_m1367144344
oR:__ZN24TextDOMTransferWriteBaseI9JSONWriteE12PushMetaFlagEi
jhf:_TlsClientCertificateVerify__ctor_m110646389
xla:__ZN6prcoreL26RemapGenericIntegerToFloatI17TexFormatARGB888815TexFormatRFloatEEvPKNS_9InnerInfoE
Zli:_Context_GetServerContextSinkChain_m390126977
X4i:__ZN6il2cpp2vm17TypeNameParseInfoD2Ev
W7d:_Array_Sort_TisIl2CppObject_m143182644_gshared
_We:_StringReader_Read_m513112775
Qrb:__ZNK8Renderer8GetLayerEv
nkb:__ZN12FlareManager11DeleteFlareEi
LWa:__ZNK6Camera20GetReplacementShaderEv
eLj:_glProgramBinary__wrapper
Zxd:_Decimal__ctor_m569480123_AdjustorThunk
GLa:__ZN12HandlerChain11MoveToTrashER13FileEntryData
Bqf:_HttpWebRequest__cctor_m3013631978
Ryj:__ZNSt3__26__treeINS_12__value_typeINS_12basic_stringIcNS_11char_traitsIcEENS_9allocatorIcEEEEPFvvEEENS_19__map_value_compareIS7_SA_NS_4lessIS7_EELb1EEENS5_ISA_EEE4findIS7_EENS_15__tree_iteratorISA_PNS_11__tree_nodeISA_PvEEiEERKT_
rTb:__ZNSt3__26vectorIN9ShaderLab20SerializedSubProgram14ConstantBufferENS_9allocatorIS3_EEE7reserveEj
mpa:__ZL23stbir__calculate_memoryP11stbir__info
yQh:__Z90RuntimeInvoker_Boolean_t3825574718_Int32_t2071877448_Int32U26_t455636984_Int32_t2071877448PK10MethodInfoPvPS2_
e6g:_Scrollbar_FindSelectableOnRight_m3219495255
EAb:__ZNK30RuntimeInitializeOnLoadManager26GetTypeInfoVirtualInternalEv
Vvc:__ZNK9rapidjson12GenericValueINS_4UTF8IcEE13JSONAllocatorE6AcceptINS_12PrettyWriterI16TempBufferWriterS2_S2_S3_EEEEbRT_
K4d:_Array_InternalArray__ICollection_CopyTo_TisVector3_t2243707580_m509487340_gshared
Mpc:__Z59Register_UnityEngine_GUIUtility_Internal_GetKeyboardControlv
KE:__Z82AnimatorControllerPlayable_CUSTOM_INTERNAL_CALL_IsParameterControlledByCurveStringR9HPlayableP12Il2CppString
Ztc:__ZL26Transfer_SimpleNativeClassI8JSONRead10RectOffsetLb1EEvRK29SerializationCommandArgumentsR31RuntimeSerializationCommandInfo
WQc:__Z44CanvasRenderer_CUSTOM_INTERNAL_CALL_SetColorP12Il2CppObjectRK10ColorRGBAf
iuj:_GC_should_collect
Xji:_UrlAttribute_Equals_m1587451932
orc:__Z18Transfer_BlittableI9JSONWriteLb1EsEvRK29SerializationCommandArgumentsR31RuntimeSerializationCommandInfo
fUc:__Z48UnityAnalyticsHandler_CUSTOM_SendCustomEventNameP12Il2CppObjectP12Il2CppString
Nqg:_DSAParameters_t1872138834_marshal_pinvoke_cleanup
Eac:__ZN9Transform16SetLocalRotationERK11Quaternionf
mrd:_DateTime_Parse_m1628430317
RQa:__ZN13RenderManager37RenderCamerasWithScriptableRenderLoopEi
f4e:_ASN1_Element_m2600236165
IY:__GLOBAL__sub_I_runtime_graphics5_lump_cpp
x8:__ZN23InstancedPropInfoStaticL16RegisterCallbackEPv
rt:__ZN7mecanim8skeleton25SkeletonPoseComputeLocalQEPKNS0_8SkeletonEPKNS0_13SkeletonPoseTIN4math4trsXEEEPS7_ii
qlj:__ZN6il2cpp2os19ReleaseSocketHandleEj
UKg:_TypeBuilder_GetPropertyImpl_m1854119335
uGg:_TypeBuilder_get_next_table_index_m1415870184
aGj:___cxa_can_catch
ncf:_SequentialSearchPrimeGeneratorBase_GenerateNewPrime_m296245934
Sid:_Char_GetUnicodeCategory_m4273361321
DYe:_Math_Round_m565516458
Hli:_Identity_get_ClientDynamicProperties_m767245959
Knj:__ZN6il2cpp2os5posix15PosixWaitObjectC2ENS2_4TypeE
gCb:__Z23AppendPathNameExtensionRKN4core12basic_stringIcNS_20StringStorageDefaultIcEEEES5_
LKg:_TypeBuilder_create_generic_class_m986834171
uLj:_emscripten_glVertexPointer__wrapper
wsa:__ZN23ShaderVariantCollection13WarmupShadersEv
vif:_Context_set_ProtocolNegotiated_m1177527245
vfi:_AnimatorControllerPlayable_INTERNAL_CALL_GetAnimatorTransitionInfoInternal_m2259454958
Pzg:_UInt32_System_IConvertible_ToChar_m1056040486
u3:__Z25GetCommonScriptingClassesv
cof:_TlsStream_get_Length_m1562309511
Ina:__Z27scripting_gc_collect_unsafei
OO:__ZN11AudioModule20SuspendVideoTexturesEv
e1b:__ZN12CubemapArrayC2E18MemLabelIdentifier18ObjectCreationMode
Tqd:_Convert_ToByte_m395020137
iLb:__Z26Transfer_UnityEngineObjectI24GenerateTypeTreeTransferLb0EEvRK29SerializationCommandArgumentsR31RuntimeSerializationCommandInfo
FJc:_UNITY_FT_GlyphLoader_CheckPoints
Zpj:__ZN6il2cpp2vm6Method11GetFullNameEPK10MethodInfo
NXe:_TextWriter_WriteLine_m1754475888
jkb:__ZN15SharedLightData7PrecalcEv
roa:__ZN10Matrix4x4fmLERKS_
xGi:_InvokableCall_1_Invoke_m769918017_gshared
Bae:_Array_InternalArray__get_Item_TisDouble_t4078015681_m2215331088_gshared
Xdb:__ZN19StreamedBinaryWriteILb0EE19TransferSTLStyleMapINSt3__28multimapIN4core12basic_stringIcNS4_20StringStorageDefaultIcEEEEN11AssetBundle9AssetInfoENS2_4lessIS8_EENS2_9allocatorINS2_4pairIKS8_SA_EEEEEEEEvRT_17TransferMetaFlags
cgh:_Dictionary_2_Init_m3666073812_gshared
JMa:__ZN15ArchiveReadFileD0Ev
x7e:_SymmetricTransform_TransformBlock_m1524716432
s8:__ZN18ConcurrentFreeListI28FileTextureUploadInstructionE7CleanUpEv
J0d:_Array_compare_TisColor32_t874517518_m3842009370_gshared
xVc:__ZN11UnityEngine15PlatformWrapper18GetOperatingSystemEv
rGe:_ReadOnlyCollection_1_System_Collections_Generic_ICollectionU3CTU3E_Remove_m974176789_gshared
wzd:_Delegate_return_type_match_m4278947849
DWd:_InputField_GenerateHightlight_m1346735465
yti:_Uri_ParseNoExceptions_m1151989845
kqd:_GC_SuppressFinalize_m953228702
BJc:_FT_MSB
RVg:_GUIStyle_get_clipping_m2754700641
V2b:__ZZL23RegisterLightPropertiesR22GenericPropertyBindingEN29Wrapper_LightShadowNormalBias13GetFloatValueEPv
szj:__ZN6il2cpp6icalls8mscorlib4Mono8Security12Cryptography18KeyPairPersistence10_CanSecureEP12Il2CppString
eoh:_Action_1_Invoke_m4180501989_gshared
Y8g:_Slider__ctor_m3124136916
Yta:__ZN13GfxDeviceGLES14SetRasterStateEPK17DeviceRasterState
Oya:__ZNK13TranslateGLES11BlendFactorE9BlendMode
$sf:_OidCollection_Add_m3712419303
yBi:_Transform_InverseTransformPoint_m2648491174
Rhf:_TlsServerHello__ctor_m3032108168
qda:__ZN14SafeBinaryRead11EndTransferEv
tGf:__ZL98ILGenerator_t99948092_CustomAttributesCacheGenerator_ILGenerator_Mono_GetCurrentOffset_m3553856682P21CustomAttributesCache
_Gb:__ZN14SafeBinaryRead8TransferI8MonoPPtrEEvRT_PKc17TransferMetaFlags
Oxh:_InternalEnumerator_1_System_Collections_IEnumerator_get_Current_m1533037706_gshared
IFa:__ZN21UniformBufferTFMethod13MapBoneBufferEj
Hlf:_RecordProtocol_SendChangeCipherSpec_m3542001341
K6d:_Array_InternalArray__set_Item_TisVector3_t2243707580_m1390667454_gshared
ilc:__ZN12GUIClipState10BeginOnGUIER10InputEvent
Vfj:__ZNSt3__26vectorIcNS_9allocatorIcEEEC2Ej
u5e:_KeyPairPersistence_CanSecure_m2251009700
gig:_ReturnMessage_get_Properties_m531965085
vIg:_GenericTypeParameterBuilder_IsSubclassOf_m563999142
XCd:_Exception_ToString_m627574695
Kzc:__ZNSt3__26vectorIN20TextRenderingPrivate8FontImpl7IntRectE13stl_allocatorIS3_L18MemLabelIdentifier34ELi16EEE21__push_back_slow_pathIKS3_EEvRT_
Tmc:__Z30Event_Get_Custom_PropModifiersP12Il2CppObject
lx:__ZN7mecanim9animation16CreateClipOutputEPKNS0_4ClipERNS_6memory9AllocatorE
iu:__ZN7mecanim9animation23ClearAnimationNodeStateEPNS0_18AnimationNodeStateEb
$4d:_Array_InternalArray__Insert_TisDecimal_t724701077_m1429254816_gshared
KBa:__ZN18AsyncUploadManager17DoScaledPaddedJobEP28FileTextureUploadInstruction
asa:__ZNSt3__218__stable_sort_moveIRN10vector_mapI17ScriptingClassPtrPKN5Unity4TypeENS_4lessIS2_EENS_9allocatorINS_4pairIS2_S6_EEEEE13value_compareENS_11__wrap_iterIPSB_EEEEvT0_SJ_T_NS_15iterator_traitsISJ_E15difference_typeEPNSM_10value_typeE
dSb:__ZN6Shader21AwakeFromLoadThreadedEv
yka:__ZN6prcoreL17RemapGenericFloatI17TexFormatRGBFloat17TexFormatRGBAHalfEEvPKNS_9InnerInfoE
Gcg:__ZL70InputField_t1631627530_CustomAttributesCacheGenerator_m_CharacterLimitP21CustomAttributesCache
Gvc:__ZN8JSONRead21TransferSTLStyleArrayI13dynamic_arrayI8Vector2fLj4EEEEvRT_18MemLabelIdentifier17TransferMetaFlags
wAj:__ZN6il2cpp2os9SemaphoreC2Eii
oqh:_InternalEnumerator_1_get_Current_m2960188445_AdjustorThunk
aHb:__ZNSt3__26vectorI8MonoPPtr13stl_allocatorIS1_L18MemLabelIdentifier1ELi16EEE8__appendEj
xah:_Text_set_alignByGeometry_m1514652028
oVa:__ZN14qsort_internal30FindAndMovePivotToLastPositionIP17RODataReplacementi19ROSorterReplacementEEvT_S4_T0_T1_
TFa:__ZN15UniformTFMethod20IsBoneCountSupportedEi
j_g:_Object_Internal_InstantiateSingle_m2776302597
k4c:_X509Certificate_GetExpirationDateString_m2351894475
STe:_FileStream_get_Position_m465478322
vVi:__ZN14dense_hash_setI10KeyWrapperIPK19Il2CppGenericMethodEN6il2cpp8metadata23Il2CppGenericMethodHashENS4_14EqualsComparerINS6_26Il2CppGenericMethodCompareEEENSt3__29allocatorIS4_EEEC2EjRKS7_RKSA_
SHj:dynCall_viidi
d5d:_Array_InternalArray__Insert_TisInt64_t909078037_m3039874636_gshared
hbh:_ToggleGroup_NotifyToggleOn_m997426227
Rlf:_RSASslSignatureDeformatter_SetKey_m1150106904
B_:__ZN24ScriptingMethodFiltering17FilterOnSignatureENS_18MethodSearchFilterE
Q5g:_Scrollbar_ClickRepeat_m3403943364
eO:__ZN13ProduceHelperI9AudioClipLb0EE7ProduceE18MemLabelIdentifier18ObjectCreationMode
_V:__ZN18ScreenManagerWebGL13SetLockCursorE14CursorLockMode
ZIc:_cf2_arrstack_finalize
h_e:_MonoType_GetMethodsByName_m1854415088
XLi:_DisplayBuffer_CutViewport_m34694897
DGg:_DerivedType_GetMethods_m165266904
c7e:_RSAManaged_EncryptValue_m4089823119
O_b:__ZN13MonoBehaviour19HandleNotificationsEPviR11MessageData
ZAj:__ZN6il2cpp2os9EventImpl5ResetEv
zUg:_GUIStyle_set_focused_m1547304893
Oea:__ZNK11NamedObject26GetTypeInfoVirtualInternalEv
GUe:_ReadDelegate_Invoke_m2091885836
MHg:_TypeBuilder_GetField_m2112455315
HKj:b58
IKj:b59
zKj:b52
CKj:b53
nKj:b50
FKj:b56
GKj:b57
DKj:b54
EKj:b55
eFh:__Z67RuntimeInvoker_Void_t1841601450_Int32_t2071877448_Int16_t4041245914PK10MethodInfoPvPS2_
uvd:_DateTime__ctor_m3604679583_AdjustorThunk
r6e:_MACAlgorithm_Core_m2390605245
axh:_InternalEnumerator_1_System_Collections_IEnumerator_get_Current_m30488070_gshared
HZb:__ZN10GameObject12CleanupClassEv
Jmb:__ZN15SerializeTraitsI13dynamic_arrayI11TetrahedronLj4EEE19ResizeSTLStyleArrayERS2_i18MemLabelIdentifier
Bua:__ZN9GfxDevice25SetShaderPropertiesSharedERK19ShaderPropertySheet
jJi:_IndexedSet_1_GetEnumerator_m3646001838_gshared
YAa:__ZN18AsyncUploadManager19AsyncResourceUploadER9GfxDeviceii9TextureID
k4g:_VertexHelper_AddUIVertexTriangleStream_m4009409241
q2b:__ZL25InitializeDefaultMaterialv
Ngb:__ZN21ArchiveStorageCreatorD2Ev
Qvg:_WaitHandle_Dispose_m441403862
Lbh:_VertexHelper_AddVert_m3290455716
nra:__ZN17PersistentManager12UnloadStreamERKN4core12basic_stringIcNS0_20StringStorageDefaultIcEEEEb
RV:__ZN13ScreenManager17RequestResolutionEiibi
gqg:_DESTransform__ctor_m4096028381
B3i:_il2cpp_unity_liveness_calculation_from_statics
qvg:_Scheduler_get_Instance_m1989471839
ssf:_WebRequest_System_Runtime_Serialization_ISerializable_GetObjectData_m3377822910
nsb:__ZN8Renderer8TransferI17RemapPPtrTransferEEvRT_
cwe:_Collection_1_Contains_m1299140035_gshared
BKj:_glBlitFramebuffer__wrapper
ace:_ExecuteEvents_ExecuteHierarchy_TisIl2CppObject_m2541874163_gshared
G3d:_Array_InternalArray__ICollection_Add_TisUICharInfo_t3056636800_m968274080_gshared
UZi:_ObjectPool_1__ctor_m1532275833_gshared
Qne:_List_1_GetIndex_m3262928832_gshared
H3a:__Z24LookRotationToQuaternionRK8Vector3fS1_P11Quaternionf
F3a:__ZN16ReflectionProbes9GetCameraEv
sWb:__ZL18IsGpuProgramUsable20ShaderGpuProgramTypePK6Shader
Gaf:_ArgumentException__ctor_m2105824819
XPc:__ZN2UI6Canvas17SetSortingLayerIDEi
kLd:_BaseMeshEffect_get_graphic_m3358796463
Hnj:__ZN6il2cpp2vm11MethodStack23CleanupForCurrentThreadEv
gFi:_Predicate_1_Invoke_m695569038_gshared
wce:_Enumerator_VerifyState_m825848279_AdjustorThunk
Skb:__ZN20TierGraphicsSettings8TransferI24GenerateTypeTreeTransferEEvRT_
wIb:__ZN14SafeBinaryRead21TransferSTLStyleArrayI13dynamic_arrayI4AABBLj4EEEEvRT_17TransferMetaFlags
Xha:__ZN18UnityPropertySheet8TransferI19StreamedBinaryWriteILb0EEEEvRT_
dkf:_TlsServerCertificate_checkServerIdentity_m3836435780
j9:__ZNSt3__26__treeINS_12__value_typeIiN11TypeManager18TypeCallbackStructEEENS_19__map_value_compareIiS4_NS_4lessIiEELb1EEENS_9allocatorIS4_EEE7destroyEPNS_11__tree_nodeIS4_PvEE
e8e:_PKCS12_Decrypt_m2353135969
Rci:_PersistentCallGroup_Initialize_m3908067069
ZMg:_MonoEvent_ToString_m386956596
D6f:__ZL70RuntimePlatform_t1869584967_CustomAttributesCacheGenerator_FlashPlayerP21CustomAttributesCache
OCb:__ZN39AssetBundleLoadFromStreamAsyncOperationC2ERKN4core12basic_stringIcNS0_20StringStorageDefaultIcEEEE
Bea:__ZL19GetCameraTargetRectRK6Camerabb
Ych:_Transform_1_BeginInvoke_m1786442111_gshared
COe:_Int32_GetFormatException_m1729046182
B4a:__ZN13dynamic_arrayIN10GameObject13ComponentPairELj4EE6insertEPS1_RKS1_
bcb:__ZN21UnityDefaultAllocatorI17LowLevelAllocatorE10DeallocateEPv
yY:__GLOBAL__sub_I_runtime_camera2_lump_cpp
emb:__ZN15SharedLightData22UpdateCookieTextureRefEv
lr:__ZN15PackedIntVector8TransferI14SafeBinaryReadEEvRT_
wLg:_FieldInfo_get_IsLiteral_m267898096
jCa:__ZN17SharedTextureDataD0Ev
dnf:_SslStreamBase_EndNegotiateHandshake_m1732321201
idh:_Transform_1_BeginInvoke_m1167293475_gshared
GH:__ZN13AudioListener8DoUpdateEv
Oqd:__Z13bankers_roundd
uzb:__ZN14SafeBinaryRead8TransferI5RectTIfEEEvRT_PKc17TransferMetaFlags
ri:_emscripten_glGenFramebuffers
Und:_Hashtable_CopyTo_m2778915805
e9:__ZN17BaseObjectManager16StaticInitializeEPv
TFg:_ConstructorBuilder_get_IsCompilerContext_m2796899803
w1d:_Array_IndexOf_TisUIVertex_t1204258818_m613887160_gshared
xAb:__ZN18StreamedBinaryReadILb0EE19TransferSTLStyleMapINSt3__28multimapIN4core12basic_stringIcNS4_20StringStorageDefaultIcEEEE4PPtrI6ObjectENS2_4lessIS8_EE13stl_allocatorINS2_4pairIKS8_SB_EEL18MemLabelIdentifier51ELi16EEEEEEvRT_17TransferMetaFlags
nrd:_DateTime_CoreParse_m2014268103
sle:_List_1__ctor_m3698273726_gshared
Prc:__Z18Transfer_BlittableI9JSONWriteLb0EyEvRK29SerializationCommandArgumentsR31RuntimeSerializationCommandInfo
Hea:__ZN13RenderTexture15ThreadedCleanupEv
gZc:__ZNK20UnityWebRequestProtoI19TransportJavaScript16AtomicRefCounter14RedirectHelper14ResponseHelper15DownloadHandler13UploadHandler12HeaderHelper14AsyncOperationE19GetDownloadProgressEv
O6:__ZN15dense_hashtableINSt3__24pairIKiiEEi21InstanceIDHashFunctorN14dense_hash_mapIiiS4_NS0_8equal_toIiEE13stl_allocatorIS3_L18MemLabelIdentifier130ELi16EEE9SelectKeyES7_SA_E9copy_fromERKSD_j
Tob:__ZN12CubemapArray23VirtualRedirectTransferER14SafeBinaryRead
Npg:_CryptographicException__ctor_m1012314467
pec:__Z51Register_UnityEngine_QualitySettings_set_vSyncCountv
yGe:_ReadOnlyCollection_1_System_Collections_IList_Add_m616574295_gshared
DOe:_Int32_ProcessTrailingWhitespace_m2812079777
Kgc:__Z43RectTransform_CUSTOM_INTERNAL_set_sizeDeltaP12Il2CppObjectRK13Vector2fIcall
gsf:_WebProxy__ctor_m3679722173
Wlj:__ZN15dense_hashtableINSt3__24pairIK10KeyWrapperINS1_IPKcS4_EEEiEES6_24NamespaceAndNamePairHashN14dense_hash_mapIS6_iS9_NS6_14EqualsComparerI26NamespaceAndNamePairEqualsEENS0_9allocatorIS8_EEE9SelectKeyESD_SF_E6insertERKS8_
Mda:__ZN24GenerateTypeTreeTransfer18BeginArrayTransferEPKcS1_Ri17TransferMetaFlags
dBa:__Z16DecompressCrunchPKhRjR13TextureFormatiiii18MemLabelIdentifier
jm:___syscall51
nm:___syscall54
tDh:__Z107RuntimeInvoker_Boolean_t3825574718_SByte_t454417549_Il2CppObject_Int32_t2071877448_ExceptionU26_t1467204777PK10MethodInfoPvPS2_
NHi:_UnityAction_2_Invoke_m1994351568_gshared
y4h:_UnityAnalyticsHandler_Dispose_m1048126775
Zr:__ZNK8Animator20IsAnyRendererVisibleEv
GJc:_cff_builder_add_point1
$mj:__ZN6il2cpp2vm5Image21GetCachedResourceDataEPK11Il2CppImageRKNSt3__212basic_stringIcNS5_11char_traitsIcEENS5_9allocatorIcEEEE
WSd:_HorizontalOrVerticalLayoutGroup_set_childControlWidth_m4209477792
v3d:_Array_InternalArray__ICollection_Add_TisUInt32_t2149682021_m2629016323_gshared
_Fb:__Z18Transfer_BlittableI14SafeBinaryReadLb0E10ColorRGBAfEvRK29SerializationCommandArgumentsR31RuntimeSerializationCommandInfo
Aa:invoke_iiiiiiiiii
hna:__ZN18LoadSceneOperation19IntegrateTimeSlicedEi
Bvg:_Scheduler_SchedulerThread_m2209572785
j1e:_SortKeyBuffer_GetResultAndReset_m2516956577
M9a:__ZN10FileSystem19SetCurrentDirectoryERKN4core12basic_stringIcNS0_20StringStorageDefaultIcEEEE
P3:__ZN16ScriptingManager24NotifyScriptCacheReleaseEi
Ibc:__Z47Register_UnityEngine_Coroutine_ReleaseCoroutinev
sI:__ZN15AudioReverbZone13SetFMODValuesEv
_9h:_Component_GetComponentInChildren_m3925629424
$0:__ZL19StaticDestroyShaderPv
ce:_glRenderbufferStorageMultisample
Yz:__ZN23AnimationPlayableOutput17SetTargetAnimatorEP8Animator
Ywi:_X509Chain__ctor_m1113875360
JIb:__Z35Transfer_Blittable_SingleValueFieldI14SafeBinaryReadfEvRT_R17GeneralMonoObjectRK23StaticTransferFieldInfo
ykf:_TlsServerHello_processProtocol_m1241336522
vmi:_ContextAttribute_IsContextOK_m3281216012
RVe:_PathTooLongException__ctor_m3212099251
Vmg:_ObjectManager_RaiseDeserializationEvent_m1611173032
ur:__ZN17PackedFloatVector8TransferI18StreamedBinaryReadILb0EEEEvRT_
spb:__ZN7Cubemap23VirtualRedirectTransferER17RemapPPtrTransfer
MPa:_longest_match_fast
n6b:__ZN22BlockMemoryCacheWriter11GetPathNameEv
mRd:_Graphic_Rebuild_m2617722358
Uwd:_DateTime_ToString_m3108726445_AdjustorThunk
sQ:__ZN19CloudServiceHandlerD2Ev
c6a:__ZN13dynamic_arrayIN23ReflectionProbesContext23ReflectionProbeCubeInfoELj4EE18resize_initializedEjRKS1_12ResizePolicy
lae:_Array_InternalArray__get_Item_TisTableRange_t2011406615_m602485977_gshared
wWd:_InputField_Append_m2623574152
TE:__Z116Register_UnityEngine_Experimental_Director_AnimatorControllerPlayable_INTERNAL_CALL_GetNextAnimatorStateInfoInternalv
zaf:_ApplicationException__ctor_m1120437222
_o:stackAlloc
acc:__Z44Camera_CUSTOM_INTERNAL_CALL_ScreenPointToRayP12Il2CppObjectRK8Vector3fR3Ray
UKa:__ZN25SingleBlockMemoryFileData4LockEPPv
TJg:_MethodBuilder_GetHashCode_m1713271764
eji:_Marshal__cctor_m802981325
cse:_Collection_1_IsSynchronized_m1319022347_gshared
t0e:_MSCompatUnicodeTable_GetResource_m3816716847
ldc:__Z32RectOffset_Get_Custom_PropBottomP12Il2CppObject
Fdd:_Array_CreateInstance_m15016505
WHb:__ZNSt3__26vectorI17AnimationCurveTplIfE13stl_allocatorIS2_L18MemLabelIdentifier1ELi16EEE6assignINS_11__wrap_iterIPS2_EEEENS_9enable_ifIXaasr21__is_forward_iteratorIT_EE5valuesr16is_constructibleIS2_NS_15iterator_traitsISC_E9referenceEEE5valueEvE4typeESC_SC_
dDj:_stat
Si:_JS_Eval_ClearTimeout
u4d:_Array_InternalArray__ICollection_CopyTo_TisUInt16_t986882611_m3228377237_gshared
pdg:__ZL68Navigation_t1571958496_CustomAttributesCacheGenerator_m_SelectOnDownP21CustomAttributesCache
B7h:_Bounds_op_Inequality_m2315096783
Msa:__ZNSt3__218__insertion_sort_3IRNS_4lessIN22BuiltinResourceManager8ResourceEEEPS3_EEvT0_S7_T_
uai:_Component_BroadcastMessage_m1308086896
T$c:_RC2_set_KeySize_m2015782960
la:invoke_iiiiiiiiiiii
U7e:_StrongName_get_PublicKey_m3777577320
cec:__Z43Register_UnityEngine_GameObject_SendMessagev
F6:__ZNSt3__26__treeINS_12__value_typeIN4core12basic_stringIcNS2_20StringStorageDefaultIcEEEES6_EENS_19__map_value_compareIS6_S7_NS_4lessIS6_EELb1EEE13stl_allocatorIS7_L18MemLabelIdentifier12ELi16EEE7destroyEPNS_11__tree_nodeIS7_PvEE
LNi:__ZN6il2cpp2vm17SetupFieldsLockedEP11Il2CppClassRKNS_2os12FastAutoLockE
NL:__ZN11AudioSourceD0Ev
X8h:_CanvasRenderer_set_hasPopInstruction_m1388844875
mab:__ZN16MemoryFileSystem4NameEv
_Fd:_BaseRaycaster_OnEnable_m3641767070
icf:_PrimeGeneratorBase_get_PrimalityTest_m308005118
AVg:_GUIStyle_Internal_CalcSize_m1309259680
umc:__ZNK8GUIStyle8CalcSizeER10GUIContent
nhe:_List_1_CheckIndex_m2328469916_gshared
DAc:_UNITY_FT_New_Size
f9b:__Z42ScriptingGetComponentsOfTypeFromGameObjectRK26ScriptingGetComponentsArgs
Zqe:_List_1_get_Item_m3157283227_gshared
iHi:_InvokableCall_4_Invoke_m1555001411_gshared
sud:_Convert_ToString_m2915777777
yia:__ZNSt3__27__sort4IRPFbRKNS_4pairIN9ShaderLab16FastPropertyNameEN18UnityPropertySheet11UnityTexEnvEEES8_EPS6_EEjT0_SD_SD_SD_T_
VIc:_cf2_hintmap_build
eTh:__Z92RuntimeInvoker_AnimatorStateInfo_t2577870592_PlayableHandleU26_t3483893774_Int32_t2071877448PK10MethodInfoPvPS2_
JGc:_Line_Up
Q_e:_MonoType_GetGenericTypeDefinition_m2363776160
Fif:_Context_set_SentConnectionEnd_m2641458842
je:_emscripten_glBufferSubData
Qgd:_Buffer_BlockCopyInternal_m2627156229
fRd:_Graphic_set_material_m329335629
JFd:_ExecuteEvents_get_pointerExitHandler_m3250605428
Eja:__ZN6prcoreL12RemapGenericI15TexFormatRGB88817TexFormatARGB8888EEvPKNS_9InnerInfoE
mD:__Z17CalculateGlobalRS23TransformAccessReadOnly
U7h:_Camera_ScreenPointToRay_m614889538
U2e:_Kernel_multiByteDivide_m735279869
_hh:_Dictionary_2_ToTValue_m542772656_gshared
$ug:_Thread_GetNewManagedId_internal_m3211695465
VPa:_unity_z_deflateReset
vQg:_SkinChangedDelegate_Invoke_m2801964040
LAa:__ZN17GenericDynamicVBO17DrawChunkInternalERK21DynamicVBOChunkHandle17ShaderChannelMaskS3_P17VertexDeclarationP16DrawBuffersRangeij
SRb:__ZN22MemoryCacherReadBlocks14LockCacheBlockEjPPhS1_
Rfd:_Boolean_System_IConvertible_ToChar_m2637404801_AdjustorThunk
i6c:_SecurityContext_Capture_m2535194991
fzg:_UInt16_System_IConvertible_ToSByte_m3044765342_AdjustorThunk
koj:__ZN4utf88internal15increase_safelyIPKcEENS0_9utf_errorERT_S5_
Bzc:__ZN20TextRenderingPrivate8FontImpl16CacheFontForTextEPtiifjPK13dynamic_arrayINS_16TextFormatChangeELj4EE
d7d:_Array_qsort_TisUIVertex_t1204258818_TisUIVertex_t1204258818_m512606409_gshared
N$c:__Z21ArrayElementTypeCheckP11Il2CppArrayPv
UNj:_emscripten_glTexSubImage2D__wrapper
Npf:_NameValueCollection_AsSingleString_m10599052
XEj:__ZNSt3__212basic_stringIcNS_11char_traitsIcEENS_9allocatorIcEEE6appendEjc
Q$e:_Object_InternalGetHashCode_m1371384246
b4g:_Navigation_get_defaultNavigation_m2185194207
qPe:_Int32_System_IConvertible_ToSByte_m1449623243_AdjustorThunk
T9e:_AccessViolationException__ctor_m1270251537
xSc:__Z42Register_UnityEngine_Canvas_get_rootCanvasv
pxi:_X509ExtensionCollection_IndexOf_m3972100651
ZGb:__Z14resize_trimmedINSt3__26vectorI8MonoPPtr13stl_allocatorIS2_L18MemLabelIdentifier1ELi16EEEEEvRT_j
Agb:__ZN39AssetBundleLoadFromStreamAsyncOperation11GetProgressEv
Se:_TTF_RenderText_Solid
QEb:__ZN13MonoBehaviour25TransferEngineAndInstanceI24GenerateTypeTreeTransferEEvRT_
$zg:_UInt32_System_IConvertible_ToInt64_m3091851828
ZYe:_MissingMethodException__ctor_m3898429715
pkg:_RemotingConfiguration_RegisterClientProviderTemplate_m514821425
zCh:_Enumerator_System_Collections_IEnumerator_Reset_m3085583937_gshared
d7e:_RSAManaged_ExportParameters_m2873993187
nqd:_Convert__cctor_m926133987
$qe:_Enumerator__ctor_m2816143215_AdjustorThunk
iYc:__ZN11UnityEngine7Connect16PersistentValuesC2Ev
_uf:_X509Chain_FindParent_m404663796
XYe:_MissingMemberException__ctor_m2164043278
_Ji:__ZL7log2_32j
VBb:__ZN13EmscriptenWWW10OnProgressEPvjj
TJb:__Z19TransferField_ArrayI17RemapPPtrTransfer27Converter_UnityEngineObjectEvRK23StaticTransferFieldInfoR31RuntimeSerializationCommandInfoRT0_
vUh:__Z120RuntimeInvoker_Void_t1841601450_Single_t2076509932_Single_t2076509932_Single_t2076509932_Single_t2076509932_Il2CppObjectPK10MethodInfoPvPS2_
Jnb:__ZN14RenderSettings8TransferI18StreamedBinaryReadILb0EEEEvRT_
Abe:_Object_Instantiate_TisIl2CppObject_m4219963824_gshared
kRe:_IntPtr_System_Runtime_Serialization_ISerializable_GetObjectData_m21554269_AdjustorThunk
Upa:__ZN29SerializeTraitsForStringTypesIN4core12basic_stringIcNS0_20StringStorageDefaultIcEEEEE8TransferI24GenerateTypeTreeTransferEEvRS4_RT_
jK:__ZN4FMOD6System9createDSPEP20FMOD_DSP_DESCRIPTIONPPNS_3DSPE
Pz:__ZN7mecanim9animation26DestroyControllerWorkspaceEPNS0_19ControllerWorkspaceERNS_6memory9AllocatorE
rG:__ZN4FMOD8ChannelI11EndCallbackEv
K3c:_ToBase64Transform_TransformBlock_m2201454137
imc:__ZN8GUIStyle14SetDefaultFontEPN13TextRendering4FontE
CKg:_OpCode_get_StackBehaviourPop_m3787015663_AdjustorThunk
gpi:_PatternCompiler_EmitCount_m3609178511
Tsb:__ZN15QualitySettings23VirtualRedirectTransferER24GenerateTypeTreeTransfer
OEi:_U3CCreateWhereIteratorU3Ec__Iterator1D_1_System_Collections_Generic_IEnumerableU3CTSourceU3E_GetEnumerator_m2682676065_gshared
vVg:_GUIStyle_Internal_GetCursorStringIndex_m1491806746
f4i:__ZN6il2cpp2os10FileHandleC2Ev
igc:__Z59Register_UnityEngine_MonoBehaviour_Internal_CancelInvokeAllv
TUi:__ZN30dense_hashtable_const_iteratorINSt3__24pairIK10KeyWrapperIPK19Il2CppGenericMethodEPK26Il2CppGenericMethodIndicesEES6_N6il2cpp8metadata23Il2CppGenericMethodHashEN14dense_hash_mapIS6_SA_SE_NS6_14EqualsComparerINSD_26Il2CppGenericMethodCompareEEENS0_9allocatorISB_EEE9SelectKeyESI_SK_EppEv
Gof:_HybridDictionary_Add_m1037587952
$Xg:_Mathf_Cos_m238853451
fAc:_UNITY_FT_Request_Metrics
zoa:__Z37GetBarycentricCoordinatesForOuterCellPPK8Vector3fRK13dynamic_arrayIS_Lj4EERS0_RK11TetrahedronR8Vector4fRf
nij:__ZN6il2cpp6icalls8mscorlib6System10Reflection10MonoMethod29get_IsGenericMethodDefinitionEP22Il2CppReflectionMethod
Vej:__ZN6il2cpp2vm6Thread21AllocThreadStaticDataEi
prd:_DateTime_YearMonthDayFormats_m4204607055
RMd:_ColorBlock_set_disabledColor_m3502887543_AdjustorThunk
Hrj:__ZN30dense_hashtable_const_iteratorINSt3__24pairIK10KeyWrapperIPK19Il2CppGenericMethodEP10MethodInfoEES6_N6il2cpp8metadata23Il2CppGenericMethodHashEN14dense_hash_mapIS6_S9_SD_NS6_14EqualsComparerINSC_26Il2CppGenericMethodCompareEEENS0_9allocatorISA_EEE9SelectKeyESH_SJ_EppEv
nO:__Z13RegisterClassI13AudioListenerEvv
pEi:_Aes__ctor_m4020215067
oD:__ZN23AnimationOffsetPlayable11GetPositionEv
drc:__Z18Transfer_BlittableI9JSONWriteLb0E8Vector3fEvRK29SerializationCommandArgumentsR31RuntimeSerializationCommandInfo
Rf:_emscripten_glUniform4i
kRd:_Graphic_OnDisable_m2360886868
_Zi:_ObjectPool_1_Release_m1615270002_gshared
bf:_emscripten_glUniform4f
vj:___unlock
x7g:_ScrollRect_InternalCalculateOffset_m3083065267
kmd:_Comparer_Compare_m4132969818
tM:__ZN20SoundChannelInstance19setReverbPropertiesEP29FMOD_REVERB_CHANNELPROPERTIES
QC:__ZNK26AnimatorControllerPlayable14IsInTransitionEi
Pjh:_DefaultComparer_Equals_m2171836276_gshared
Mgj:__ZN6il2cpp2vm9Exception18GetFormatExceptionEPKc
Tic:__Z40Register_UnityEngine_Transform_IsChildOfv
bVg:_GUIStyle_Draw_m1435796321
ckd:_ArrayList_Sort_m923359189
adc:__Z45Register_UnityEngine_Display_GetSystemExtImplv
yrh:_InternalEnumerator_1_System_Collections_IEnumerator_get_Current_m3088751576_gshared
lLh:__Z78RuntimeInvoker_Void_t1841601450_Int64_t909078037_Il2CppObject_Int64_t909078037PK10MethodInfoPvPS2_
p7h:_Bounds_set_center_m2069004927_AdjustorThunk
ooc:__Z46GUIStyle_CUSTOM_Internal_DrawWithTextSelectionP12Il2CppObjectR43MonoInternal_DrawWithTextSelectionArguments
XJi:__ZL17log2withScale_128yyi
HOc:__ZNSt3__218__insertion_sort_3IRNS_6__lessIN2UI14DepthSortEntryES3_EEPS3_EEvT0_S7_T_
vNg:_MonoField_CheckGeneric_m1527550038
tZ:__ZN13RuntimeStaticI15DirectorManagerLb0EE16StaticInitializeEPv
puc:__ZN8JSONRead8TransferI23ManagedObjectTransfererEEvRT_PKc17TransferMetaFlagsb
avg:_Thread_get_ManagedThreadId_m1995754972
sFd:_BaseInput_get_touchCount_m998724785
uyb:__ZN11TimeManager6UpdateEv
QWd:_InputField_get_preferredWidth_m3185355225
KQg:_GUIUtility_get_pixelsPerPoint_m2667928361
Tug:_Thread_SetState_m3198426726
wkd:_ArrayListWrapper_Contains_m1158465965
kDj:_fflush
ooa:__ZN17LightProbeContext4InitERK16LightmapSettingsRK14RenderSettings
_Rd:_GraphicRaycaster_Raycast_m1206612976
qBj:__GLOBAL__sub_I_Error_cpp
tri:_Alternation_GetWidth_m4218808325
eHe:_ReadOnlyCollection_1_System_Collections_IList_Insert_m2651065875_gshared
ZCc:_ft_bitmap_glyph_bbox
Upf:_TypeConverterAttribute__ctor_m4061167050
Bnj:__ZN6il2cpp2vm11MethodStack17GetStackFramesRawEv
lhi:_Font_add_textureRebuilt_m1282639736
svj:_GC_reclaim_uninit
s1a:__Z34ProcessIndexListIsNodeVisibleStep2RK22SceneCullingParametersPK9SceneNodePK4AABBR9IndexList
PCb:__ZN10MonoScriptD2Ev
E9g:_Slider_OnRectTransformDimensionsChange_m4109401172
csf:_WebHeaderCollection_Get_m3391944907
$Y:__GLOBAL__sub_I_half_cpp
Aec:__Z39Input_CUSTOM_INTERNAL_get_mousePositionP8Vector3f
KFc:_tt_cmap13_char_next
yOa:__ZN9ShaderLab4Pass16SetupPassOptionsEv
Nei:_AnimatorControllerPlayable_INTERNAL_CALL_SetTriggerID_m508896534
_Ii:_UnityEvent_4__ctor_m3102731553_gshared
eh:_JS_Sound_ReleaseInstance
u6f:__ZL72IL2CPPStructAlignmentAttribute_t130316838_CustomAttributesCacheGeneratorP21CustomAttributesCache
Pua:__ZN13GfxDeviceGLES19DrawBuffersIndirectEP9GfxBufferPK18VertexStreamSourceiP17VertexDeclaration17ShaderChannelMask16GfxPrimitiveType15ComputeBufferIDj
U1g:_Renderer_get_sortingLayerID_m2403577271
FMj:_emscripten_glPixelStorei__wrapper
eRb:__Z29Transfer_Blittable_ArrayFieldI18StreamedBinaryReadILb0EEaEvRT_R9ArrayInfoRK23StaticTransferFieldInfo
Ygc:__Z21Resources_CUSTOM_LoadP12Il2CppStringP12Il2CppObject
Am:FUNCTION_TABLE_diddi
qHd:_ExecuteEvents_Execute_m2863348178
bhc:__Z26Material_CUSTOM_SetIntImplP12Il2CppObjectii
lOe:_Int16_System_IConvertible_ToSingle_m3277935657_AdjustorThunk
YKb:__Z18Transfer_BlittableI24GenerateTypeTreeTransferLb0EaEvRK29SerializationCommandArgumentsR31RuntimeSerializationCommandInfo
E6h:_AttributeHelperEngine_CheckIsEditorScript_m2980171478
nnf:_SslStreamBase_get_KeyExchangeAlgorithm_m3712013038
Xmi:_InternalRemotingServices__cctor_m3821625125
ydc:__Z42Register_UnityEngine_RectOffset_get_bottomv
Urg:_StringBuilder_Insert_m3322917127
Yih:_DefaultComparer_Equals_m724229128_gshared
och:_Enumerator_VerifyCurrent_m1702320752_AdjustorThunk
Usd:_Convert_ToDouble_m3520060872
YLj:_emscripten_glUniform1f__wrapper
WGj:dynCall_di
Xlf:_SslCipherSuite_ComputeServerRecordMAC_m1876572367
lBc:__ZN20TextRenderingPrivate19NativeTextGeneratorC2ERK11UTF16StringPNS_8FontImplE11ColorRGBA32ifRK8Vector2fbifiibffbbbP13dynamic_arrayIN2UI8UIVertexELj4EE
Pqc:__Z28RegisterModule_JSONSerializev
WE:__Z111Register_UnityEngine_Experimental_Director_AnimatorControllerPlayable_INTERNAL_CALL_GetAnimatorClipInfoInternalv
lug:_Interlocked_CompareExchange_m3227034792
p_c:_HashAlgorithm_get_Hash_m931854461
Yzh:_DefaultComparer_Compare_m3564013922_gshared
WXb:__ZN2UI13RectTransform8TransferI14SafeBinaryReadEEvRT_
N7b:__Z20IsHumanControllingUsv
tRa:__ZNK19RenderEventsContext21ExecuteCommandBuffersEijR17ShaderPassContextR15RenderNodeQueueP19ProfilerInformationi
UU:__ZNK20DynamicHeapAllocatorI17LowLevelAllocatorE10GetPtrSizeEPKv
qgi:_AnimatorControllerPlayable_PlayInFixedTime_m172593751
Ueb:__ZN10systeminfo21GetPersistentDataPathEv
ePd:_Dropdown_set_value_m2945561009
Gua:__ZN13GfxDeviceGLES17DestroyGpuProgramEPK10GpuProgram
zLe:_GregorianCalendar_GetMonth_m523739832
FFb:__Z44InitializeTransferFunctionScriptingTraitsForI18StreamedBinaryReadILb0EEEvR31TransferFunctionScriptingTraits
sZa:__ZNSt3__218__insertion_sort_3IR23CompareReflectionProbesP31RuntimeReflectionProbeBlendInfoEEvT0_S5_T_
xJe:_DateTimeFormatInfo_Clone_m1101948106
QPg:_GameObject_AddComponent_m3757565614
Z9:__ZN12_GLOBAL__N_113StaticDestroyEPv
KNe:_Guid_ToString_m51661589
Rkc:__ZNK8GUIStyle4DrawER8GUIStateRK5RectTIfER10GUIContentbbbb
jah:_Text_set_font_m1095513810
HQj:_glUnmapBuffer__wrapper
bwd:_DateTime_System_IConvertible_ToUInt32_m1363211018_AdjustorThunk
hUd:_InputField_get_cachedInputTextGenerator_m881618486
y8h:_Canvas_get_rootCanvas_m1790974328
ufc:__Z32Mesh_CUSTOM_ExtractArrayFromListP12Il2CppObject
xEg:_Binder_get_DefaultBinder_m965620943
Uuc:__ZN8JSONRead21TransferSTLStyleArrayINSt3__26vectorI8Gradient13stl_allocatorIS3_L18MemLabelIdentifier1ELi16EEEEEEvRT_17TransferMetaFlags
Syb:__ZNSt3__218__insertion_sort_3IRNS_6__lessINS_4pairIPKN5Unity4TypeE7Hash128EES8_EEPS8_EEvT0_SC_T_
tLb:__ZN10RectOffset8TransferI24GenerateTypeTreeTransferEEvRT_
Fed:_SimpleEnumerator_get_Current_m482975946
x8b:__Z18GetResourceManagerv
QDj:_srand
tOc:__ZN2UI13CanvasManager19RemoveDirtyRendererEPNS_6CanvasEPNS_14CanvasRendererE
K6h:_AudioClip_InvokePCMSetPositionCallback_Internal_m2304858844
jVc:__ZN11UnityEngine15PlatformWrapper25GetGraphicsRendererStringEv
cWd:_InputField_KeyPressed_m3066588581
tAi:_Time_get_unscaledTime_m862335845
qWi:__ZNK15dense_hashtableINSt3__24pairIK10KeyWrapperI13dynamic_arrayIPK10Il2CppTypeLj4EEEPFvvEEES8_N6il2cpp8metadata19Il2CppSignatureHashEN14dense_hash_mapIS8_SB_SF_NS8_14EqualsComparerINSE_22Il2CppSignatureCompareEEENS0_9allocatorISC_EEE9SelectKeyESJ_SL_E13find_positionERS9_
J8g:_Selectable_DoStateTransition_m539253088
T2c:_SHA512_Create_m439875055
Rb:invoke_vi
L2c:_SHA384Managed_update_m2629600295
IJa:__ZN15dense_hashtableINSt3__24pairIKN4core12basic_stringIcNS2_20StringStorageDefaultIcEEEEP20ArchiveStorageReaderEES6_20StringHash32FunctionIS6_EN14dense_hash_mapIS6_S9_SC_NS0_8equal_toIS6_EE13stl_allocatorISA_L18MemLabelIdentifier54ELi16EEE9SelectKeyESF_SI_ED2Ev
Pb:invoke_vd
qb:invoke_vf
CVg:_GUIStyle_Internal_CalcSizeWithConstraints_m3375255978
n5:__ZNK10GameObject8IsActiveEv
gW:__ZN18ScreenManagerWebGL21SetCursorInsideWindowEb
Rog:_SByte_System_IConvertible_ToUInt32_m4256495110
WHd:_PointerEventData_set_eligibleForClick_m2036057844
DDa:__ZN18GfxFramebufferGLES23SetupDefaultFramebufferEPP17RenderSurfaceBaseS2_N2gl6HandleILNS3_10ObjectTypeE9EEE
sDj:_mbsinit
LUg:_GUIStyle_get_Internal_clipOffset_m4237737448
F8f:__ZL70EventSystem_t3466835263_CustomAttributesCacheGenerator_m_FirstSelectedP21CustomAttributesCache
iOi:__ZN6il2cpp2vm5Class12SetupMethodsEP11Il2CppClass
mS:__ZN11UnityEngine15CloudWebService13WWWRestClient18GetResponseHeadersEv
Oac:__Z39DeleteLastPathNameComponentWithAnySlashRKN4core12basic_stringIcNS_20StringStorageDefaultIcEEEE
pU:__ZN13EmscriptenWWW14BlockUntilDoneEv
Ccg:__ZL68InputField_t1631627530_CustomAttributesCacheGenerator_m_KeyboardTypeP21CustomAttributesCache
Pbh:_VerticalLayoutGroup_CalculateLayoutInputHorizontal_m497637066
Mva:__ZN13GfxDeviceGLES17UploadTextureCubeE9TextureIDPKhiii13TextureFormati18TextureUploadFlags17TextureColorSpace
J1g:_RectTransformUtility_PixelAdjustPoint_m560908615
wni:_MethodCall__ctor_m4106494862
Eoc:__Z37Register_UnityEngine_GUIStyle_Cleanupv
Ma:invoke_iiifii
Xyi:_StackTraceUtility_ExtractStringFromExceptionInternal_m2568950546
A1i:__ZN6il2cpp6icalls8mscorlib6System8MonoType13IsPointerImplEP20Il2CppReflectionType
Esd:_Convert_ToDecimal_m2284596541
deg:__ZL62Selectable_t1490392188_CustomAttributesCacheGenerator_m_ColorsP21CustomAttributesCache
Fub:__ZN14Texture2DArray34UpdateFileTextureUploadInstructionEP28FileTextureUploadInstructionj
Oi:_emscripten_glFramebufferRenderbuffer
EQe:_Int64_GetHashCode_m4047499913
C4a:__ZN9Transform30EnsureTransformHierarchyExistsEv
ZO:__ZN11AudioModule26SetDefaultMicrophoneDriverEPv
bfd:_Attribute_IsDefined_m216577166
fjd:_Char_ToUpper_m109978609
Bth:_InternalEnumerator_1_get_Current_m1089848479_gshared
TAd:_Double_System_IConvertible_ToInt64_m3798425616
FJd:_StandaloneInputModule_get_repeatDelay_m3025279
Cg:___cxa_find_matching_catch_4
_fc:__ZN13MonoBehaviour13StopCoroutineEPKc
F7a:__ZNSt3__26vectorINS_4pairIN4core12basic_stringIcNS2_20StringStorageDefaultIcEEEEPK17MessageIdentifierEENS_9allocatorISA_EEE12__move_rangeEPSA_SE_SE_
pVa:__ZN14qsort_internal17MedianOfThreeSwapIP17RODataReplacement19ROSorterReplacementEEvT_S4_S4_T0_
$Mi:__ZNK15dense_hashtableINSt3__24pairIK10KeyWrapperIPK22Il2CppGenericParameterEP11Il2CppClassEES6_N6il2cpp5utils11PointerHashIS4_EEN14dense_hash_mapIS6_S9_SE_NS6_14EqualsComparerINS0_8equal_toIS5_EEEENS0_9allocatorISA_EEE9SelectKeyESJ_SL_E3endEv
Kac:__ZN17TransformInternal36OnScaleChangedCalculateTransformTypeE15TransformAccess
Ald:_SynchronizedArrayListWrapper_InsertRange_m709359548
eMa:__ZN17ArchiveFileSystem10ToAbsoluteEPKc
Ybf:_BigInteger_op_Modulus_m13450242
U_h:__Z56RuntimeInvoker_Int32_t2071877448_RaycastResult_t21186376PK10MethodInfoPvPS2_
utd:_Convert_ToInt32_m2988544165
w7d:_Array_Resize_TisColor32_t874517518_m2219502085_gshared
nw:__ZN7mecanim6CRCKeyENS_7eStringE
Pnf:_SslStreamBase_get_CanWrite_m2069502593
MYb:__ZL12SetPrefValueRKN4core12basic_stringIcNS_20StringStorageDefaultIcEEEERK9PrefValue
$$:__ZN19ShaderPropertySheet20ReservePropertyCountEj
Snj:__ZN6il2cpp5utils11StringUtils6PrintfEPKcz
Lia:__ZN15NameToObjectMapI6ShaderNSt3__23mapI4PPtrIS0_EN4core12basic_stringIcNS5_20StringStorageDefaultIcEEEENS1_4lessIS4_EENS1_9allocatorINS1_4pairIKS4_S9_EEEEEENS1_8multimapIS9_S4_NSA_IS9_EENSC_INSD_IKS9_S4_EEEEEEE4FindERSK_
wch:_ShimEnumerator_Reset_m98005789_gshared
Tpa:__ZN24GenerateTypeTreeTransfer21TransferResourceImageE19ActiveResourceImagePKcR13StreamingInfoPvjiPKN5Unity4TypeE
k_g:_Object_INTERNAL_CALL_Internal_InstantiateSingle_m3932420250
aFe:_ReadOnlyCollection_1_System_Collections_IList_set_Item_m1377990618_gshared
CPa:_UNITY_png_zstream_error
rJg:_ILGenerator_make_room_m373147874
yih:_Dictionary_2_Init_m1045257495_gshared
cQj:_emscripten_glLinkProgram__wrapper
E6e:_PKCS1_Verify_v15_m2571212635
qnb:__ZNSt3__212__deque_baseI18ReflectionProbeJobNS_9allocatorIS1_EEED2Ev
Bv:__ZN11UnityEngine9Animation27DestroyAnimationSetBindingsEPNS0_20AnimationSetBindingsERN7mecanim6memory9AllocatorE
aTb:__ZN15dense_hashtableINSt3__24pairIKiN4core17string_with_labelILi1EEEEEi18SInt32HashFunctionN14dense_hash_mapIiS5_S7_NS0_8equal_toIiEE13stl_allocatorIS6_L18MemLabelIdentifier1ELi16EEE9SelectKeyESA_SD_E13set_empty_keyERKS6_
KB:__ZN8Animator12CleanupClassEv
Bbd:_DecoderReplacementFallbackBuffer__ctor_m1305504326
Suc:__Z13TransferFieldI8JSONReadLb0E27Converter_SimpleNativeClassI10RectOffsetEEvRK23StaticTransferFieldInfoR31RuntimeSerializationCommandInfoRT1_
b9c:_String_IndexOf_m570401060
DBd:_Enum_System_IConvertible_ToDateTime_m2924690746
wdb:__ZN11AssetBundle9AssetInfo8TransferI14SafeBinaryReadEEvRT_
GPd:_Dropdown_CreateBlocker_m4109366440
e_c:_HashAlgorithm_System_IDisposable_Dispose_m2106335965
yjj:__GLOBAL__sub_I_GenericMetadata_cpp
o$g:_RangeAttribute__ctor_m1657271662
Qkc:__ZNK8GUIStyle4DrawER8GUIStateRK5RectTIfER10GUIContentib
O0i:__ZN6il2cpp6icalls8mscorlib6System8MonoType18GetFields_internalEP20Il2CppReflectionTypeiS5_
V0a:__Z24CalculateSpotLightBoundsffRK10Matrix4x4fR15SpotLightBounds
v0e:_TailoringInfo__ctor_m2248501932
nQ:__ZN23CloudWebServicesManager23VirtualRedirectTransferER14SafeBinaryRead
Ykd:_FixedSizeArrayListWrapper_InsertRange_m2690348965
mEb:__Z19ShouldTransferFieldR32SerializationCommandQueueBuilder17ScriptingClassPtriR18TransferField_InfoRK20CoreScriptingClasses
QKg:_FieldInfo_get_IsStatic_m1411173225
fVe:_MemoryStream_Read_m2289595005
oL:__ZN5audio5mixer22UpdateAudioMixerMemoryERKNS0_18AudioMixerConstantERNS0_16AudioMixerMemoryEfPN4FMOD6SystemEf
Yxc:__ZL21InitializeCachedStripPv
i4h:_CustomEventData_Add_m4139356558
Afj:__ZN6il2cpp6icalls8mscorlib6System9Threading6Thread23GetCachedCurrentCultureEP12Il2CppThread
c8g:_Selectable_get_allSelectables_m3045831006
qVa:__ZNK6Camera22GetWorldToCameraMatrixEv
xnj:__ZN6il2cpp2vm12GenericClass11IsValueTypeEP18Il2CppGenericClass
BDb:__ZN13MonoBehaviour7SetNameEPKc
Sef:_ContentInfo__ctor_m3579805263
k7g:_ScrollRect_get_verticalNormalizedPosition_m1701804869
wna:__ZN18AwakeFromLoadQueue5ClearEv
heh:_Enumerator_get_Current_m2986380627_AdjustorThunk
G$a:__ZNSt3__27__sort5IR15ReflProbeSorterPP15ReflectionProbeEEjT0_S6_S6_S6_S6_T_
PZ:__ZN8Playable10DisconnectEPS_i
qk:_glGenTransformFeedbacks
Qra:__ZN13LoadOperationD2Ev
k5e:_KeyPairPersistence__ctor_m1817312194
uZd:_Array_InternalArray__ICollection_Contains_TisMark_t2724874473_m1640201705_gshared
Kla:__Z21PlayerStartFirstSceneb
gHg:_TypeBuilder_get_AssemblyQualifiedName_m2097258567
zia:__ZNSt3__27__sort5IRPFbRKNS_4pairIN9ShaderLab16FastPropertyNameEN18UnityPropertySheet11UnityTexEnvEEES8_EPS6_EEjT0_SD_SD_SD_SD_T_
hza:__ZNK7ApiGLES18GetExtensionStringEv
WFa:__ZN31TransformFeedbackSkinPoseBufferD0Ev
ZLj:_emscripten_glVertexAttrib1f__wrapper
$mf:_SslStreamBase_get_MightNeedHandshake_m3432170694
rjh:_DefaultComparer_Equals_m1281232537_gshared
Yo:FUNCTION_TABLE_iiiiiiiii
pVd:_InputField_set_asteriskChar_m619206227
bqg:_DES_IsSemiWeakKey_m3967392585
T5:__Z24GetComponentOrScriptNameRN5Unity9ComponentE
rOe:_Int16_System_IConvertible_ToUInt32_m883204517_AdjustorThunk
rOg:_MonoProperty_get_PropertyType_m1921201152
cOd:_FloatTween_TweenValue_m3881535116_AdjustorThunk
guj:_GC_allochblk
zna:__Z15UnloadGameScenev
CQj:_glCheckFramebufferStatus__wrapper
bbf:_BigInteger_get_Rng_m2525288368
Flg:_BinaryCommon_IsPrimitive_m2132448955
px:__ZN7mecanim9animation14DeltasFromClipERKNS0_18ClipMuscleConstantERKNS0_12ClipBindingsERKNS_14ValueArrayMaskERNS_10ValueArrayESB_SB_
lmd:_CaseInsensitiveHashCodeProvider__ctor_m3775398833
nAh:_Comparer_1_System_Collections_IComparer_Compare_m674728644_gshared
lec:__Z36Renderer_Get_Custom_PropSortingOrderP12Il2CppObject
m7i:__ZNK15dense_hashtableINSt3__24pairIK10KeyWrapperIPK10Il2CppTypeEjEES6_N6il2cpp8metadata14Il2CppTypeHashEN14dense_hash_mapIS6_jSB_NS6_14EqualsComparerINSA_26Il2CppTypeEqualityComparerEEENS0_9allocatorIS8_EEE9SelectKeyESF_SH_E13find_positionERS7_
Oca:__ZN7Texture5ResetEv
sKb:__Z18Transfer_BlittableI24GenerateTypeTreeTransferLb0E8Vector2fEvRK29SerializationCommandArgumentsR31RuntimeSerializationCommandInfo
lKb:__Z18Transfer_BlittableI24GenerateTypeTreeTransferLb1EhEvRK29SerializationCommandArgumentsR31RuntimeSerializationCommandInfo
dac:__ZNK16TypeTreeIterator10ByteOffsetEv
h1d:_Array_FindLastIndex_TisIl2CppObject_m3885928623_gshared
RQd:_Graphic_get_rectTransform_m2697395074
_7:__ZnwjRKSt9nothrow_t
Vr:__ZN8Animator11ClearObjectEv
SAb:__ZNSt3__26vectorIi13stl_allocatorIiL18MemLabelIdentifier12ELi16EEE8__appendEj
Atf:_X500DistinguishedName_Decode_m3070515374
Qga:__ZN14SafeBinaryRead19TransferSTLStyleMapINSt3__23mapI39DeprecatedFastPropertyNameSerializationN18UnityPropertySheet11UnityTexEnvENS1_4lessIS3_EENS1_9allocatorINS1_4pairIKS3_S5_EEEEEEEEvRT_17TransferMetaFlags
ngc:__Z45Register_UnityEngine_MonoBehaviour_IsInvokingv
GLh:__Z65RuntimeInvoker_Void_t1841601450_Int64_t909078037_Int64_t909078037PK10MethodInfoPvPS2_
jrf:_IPv6Address_set_ScopeId_m1442934355
Wmg:_ObjectManager_RaiseOnDeserializedEvent_m512850179
T8b:__Z35UnregisterSerializationCacheBuilderPFv17ScriptingClassPtrR23CachedSerializationDataRbE
qfa:__Z30GetBuiltinVectorParamArraySize24BuiltinShaderVectorParam
h0e:_CodePointIndexer__ctor_m797342079
v2a:__ZN21RendererUpdateManager11AddRendererER8Renderer
$Zb:__Z13RegisterClassI15ResourceManagerEvv
Hvb:__ZN14SafeBinaryRead21TransferSTLStyleArrayI13dynamic_arrayIfLj4EEEEvRT_17TransferMetaFlags
Tnj:__ZN6il2cpp5utils11StringUtils11Utf16ToUtf8EPKDs
UMg:_MonoEventInfo_GetEventInfo_m2331957186
AVc:__ZN11UnityEngine15PlatformWrapper20IsRootedOrJailbrokenEv
auf:_X509Certificate2_GetNameInfo_m402390219
Q0a:__Z33IntersectAABBPlaneBoundsOptimizedRK4AABBPKN4math7_float4Ei
Ked:_Swapper_BeginInvoke_m2652511022
O0g:_RectOffset_t3387826427_marshal_pinvoke_back
stg:_UTF8Encoding_GetBytes_m2973831055
Tua:__ZN9GfxDevice19EndGeometryJobFrameEv
CIe:_Comparison_1_Invoke_m2645957248_gshared
gKb:__ZN27Converter_SimpleNativeClassI17AnimationCurveTplIfEE17ScriptingToNativeER18ScriptingObjectPtrPS1_
VNh:__Z197RuntimeInvoker_Boolean_t3825574718_Il2CppObject_Il2CppObject_Il2CppObject_Int32_t2071877448_DateTimeU26_t3448131235_SByte_t454417549_BooleanU26_t3168250738_SByte_t454417549_ExceptionU26_t1467204777PK10MethodInfoPvPS2_
$zj:__ZN6il2cpp8metadata24Il2CppGenericInstCompare7CompareERK10KeyWrapperIPK17Il2CppGenericInstES8_
QUi:__ZNK15dense_hashtableINSt3__24pairIK10KeyWrapperIPK19Il2CppGenericMethodEPK26Il2CppGenericMethodIndicesEES6_N6il2cpp8metadata23Il2CppGenericMethodHashEN14dense_hash_mapIS6_SA_SE_NS6_14EqualsComparerINSD_26Il2CppGenericMethodCompareEEENS0_9allocatorISB_EEE9SelectKeyESI_SK_E5beginEv
gRd:_Graphic_get_materialForRendering_m2600868951
Cgi:_AnimatorControllerPlayable_INTERNAL_CALL_PlayInternal_m3496633968
Pve:_Collection_1_System_Collections_IList_Contains_m3210868188_gshared
VHa:__ZN9GfxDevice22UploadTextureCubeArrayE9TextureIDPKhjii13TextureFormati18TextureUploadFlags17TextureColorSpace
v$b:__ZNK17AnimationCurveTplIfE8EvaluateEfPNS0_5CacheE
oNa:__Z31ManagerContextInitializeClassesv
LEf:__ZL53SortedList_t3004938869_CustomAttributesCacheGeneratorP21CustomAttributesCache
JAc:_UNITY_FT_List_Finalize
FWa:__Z20LightAttenuateApproxRKfS0_
Z2:__ZN9Scripting30SetCachedPtrOnScriptingWrapperE18ScriptingObjectPtrP6Object
RH:__ZNK12AudioManager26GetTypeInfoVirtualInternalEv
PMb:__Z18Transfer_BlittableI19StreamedBinaryWriteILb0EELb0EdEvRK29SerializationCommandArgumentsR31RuntimeSerializationCommandInfo
Tad:_ASCIIEncoding_GetBytes_m3649277167
OQg:_GUILayoutUtility_Internal_GetWindowRect_m1287880151
zUh:__Z49RuntimeInvoker_Il2CppObject_Il2CppObject_IntPtr_tPK10MethodInfoPvPS2_
L_e:_MonoType_GetObjectData_m2888677152
Cqa:__ZN18BlockRangeInternal16PopLastNodeIndexEP10BlockRangeji
wCg:_Version__ctor_m2972638031
_ce:_Enumerator_System_Collections_IEnumerator_Reset_m886102771_AdjustorThunk
z3e:_Kernel_MultiplyByDword_m155008287
Yub:__ZN4MeshD0Ev
a_c:__ZL42RequestRecreateEyeTexturesBeforeNextUpdatev
Gea:__ZNK6Camera20IsCurrentlyRenderingEv
L2g:_LayoutUtility_U3CGetMinHeightU3Em__4_m1769295917
Inf:_SslStreamBase_Read_m1036897444
Rrc:__Z18Transfer_BlittableI9JSONWriteLb0EdEvRK29SerializationCommandArgumentsR31RuntimeSerializationCommandInfo
mjb:__ZN6Camera8TransferI19StreamedBinaryWriteILb0EEEEvRT_
ICe:_ReadOnlyCollection_1_System_Collections_IList_Insert_m3679749778_gshared
qbh:_Toggle_OnDidApplyAnimationProperties_m325835214
hCj:_wctomb
Wei:_AnimatorControllerPlayable_INTERNAL_CALL_IsParameterControlledByCurveString_m1715379406
ecc:__Z27Camera_CUSTOM_GetAllCamerasP11Il2CppArray
oqd:_Convert_InternalFromBase64String_m3682756716
Yc:___cxa_rethrow
ntc:__Z18Transfer_BlittableI8JSONReadLb1EhEvRK29SerializationCommandArgumentsR31RuntimeSerializationCommandInfo
eMj:_glBindRenderbuffer__wrapper
ari:_Regex_System_Runtime_Serialization_ISerializable_GetObjectData_m4035555909
swg:_TimeSpan_Add_m3228293154
ujh:_DefaultComparer_Equals_m4098991076_gshared
u4a:__ZN13MonoBehaviour8SetClassE17ScriptingClassPtr18ScriptingObjectPtr
xef:_RC4__cctor_m523650203
Ami:_CrossContextDelegate_Invoke_m2908136830
zW:__ZN20LocalFileSystemPosix4ReadER13FileEntryDatayyPvPy
e_a:__ZNSt3__211__sift_downIRN23ForwardShaderRenderLoop18RenderObjectSorterILb0EEEP21ForwardRenderPassDataEEvT0_S7_T_NS_15iterator_traitsIS7_E15difference_typeES7_
hYe:_UnmanagedMemoryStream_get_Position_m4093669769
DIj:dynCall_iiiiiiffiiiiiiiiiffffiiii
RDb:__ZN13MonoBehaviour5DoGUIENS_13GUILayoutTypeEii
aHg:_DerivedType_IsDefined_m555719351
soi:_Mark_get_IsDefined_m3332701456
ybb:__ZNK12TLSAllocatorI14StackAllocatorE8ContainsEPKv
wyb:__ZN11TimeManager8TransferI18StreamedBinaryReadILb0EEEEvRT_
sXb:__ZN15SerializeTraitsINSt3__23mapI4PPtrI6ShaderEN4core12basic_stringIcNS5_20StringStorageDefaultIcEEEENS0_4lessIS4_EENS0_9allocatorINS0_4pairIKS4_S9_EEEEEEE8TransferI24GenerateTypeTreeTransferEEvRSH_RT_
mqg:_DESTransform__cctor_m1179482644
kvb:__ZN14BlendShapeData8TransferI14SafeBinaryReadEEvRT_
_zi:_TextGenerator_PopulateWithErrors_m467881283
OBd:_Enum_Format_m2294492821
Cpa:__ZN7Texture25ReloadFromStorageIfNeededEPvb
lBb:__ZN24GenerateTypeTreeTransfer8TransferINSt3__26vectorIN30RuntimeInitializeOnLoadManager15ClassMethodInfoE13stl_allocatorIS4_L18MemLabelIdentifier12ELi16EEEEEEvRT_PKc17TransferMetaFlags
zch:_ShimEnumerator_get_Entry_m2332479818_gshared
Jwd:_DateTime_CheckDateTimeKind_m329345155_AdjustorThunk
RLc:_Update_Max
Ugi:_PlayableHandle_Equals_m1435096530_AdjustorThunk
nfj:__ZN6il2cpp6icalls8mscorlib6SystemL15ThrowNoWideningEv
F$b:__ZNK23TransformChangeDispatch24GetChangeMaskForInterestENS_12InterestTypeE
xic:__Z45Transform_CUSTOM_INTERNAL_CALL_TransformPointP12Il2CppObjectRK8Vector3fRS1_
xve:__ZN23InterfaceActionInvoker2Ii18Color32_t874517518E6InvokeEjP11Il2CppClassP12Il2CppObjectiS0_
bbb:__ZL10KeyHandleriPK23EmscriptenKeyboardEventPv
TWi:__ZN14dense_hash_mapI10KeyWrapperI13dynamic_arrayIPK10Il2CppTypeLj4EEEPFvvEN6il2cpp8metadata19Il2CppSignatureHashENS6_14EqualsComparerINSA_22Il2CppSignatureCompareEEENSt3__29allocatorINSF_4pairIKS6_S8_EEEEEC2EjRKSB_RKSE_
nha:__ZNSt3__26__treeINS_12__value_typeI39DeprecatedFastPropertyNameSerializationfEENS_19__map_value_compareIS2_S3_NS_4lessIS2_EELb1EEENS_9allocatorIS3_EEE7destroyEPNS_11__tree_nodeIS3_PvEE
nFc:_tt_cmap4_char_index
A6h:_AsyncOperation_get_allowSceneActivation_m2825451182
Twg:_TimeSpan_op_Addition_m3421801803
xLa:__ZNK12HandlerChain8IsHiddenERK13FileEntryData
Xbg:__ZL50Graphic_t2426225576_CustomAttributesCacheGeneratorP21CustomAttributesCache
AJb:__ZL26Transfer_SimpleNativeClassI17RemapPPtrTransfer10RectOffsetLb0EEvRK29SerializationCommandArgumentsR31RuntimeSerializationCommandInfo
kBc:__Z14ValidateFormatR13dynamic_arrayIN20TextRenderingPrivate16TextFormatChangeELj4EE
lCi:_Vector2_op_Implicit_m1064335535
Lvd:_DateTime_System_IConvertible_ToInt32_m2789391054_AdjustorThunk
h4e:_ASN1Convert_FromInt32_m1541043489
ZId:_PointerInputModule_ProcessMove_m3200120346
Xqd:_Convert_ToByte_m1008221737
ydf:_MD2Managed_MD2Transform_m3825201358
Ddg:__ZL69Scrollbar_t3248359358_CustomAttributesCacheGenerator_m_OnValueChangedP21CustomAttributesCache
aUb:__ZNSt3__26vectorIN9ShaderLab20SerializedSubProgram13BufferBindingENS_9allocatorIS3_EEEC2ERKS6_
jPd:_Dropdown_AddOptions_m835420907
kDi:_Vector4_get_sqrMagnitude_m2115578799_AdjustorThunk
QLi:_Display_Start_m3446268861
sfa:__ZNK9ShaderLab20ShaderBlendStateDesc15ToGfxBlendStateEPK19ShaderPropertySheetS3_R13GfxBlendState
zMd:_CanvasUpdateRegistry_IsRebuildingLayout_m1677873278
Rv:__ZN11UnityEngine9AnimationL22GenericBindingCallbackEPvS1_i
zLc:_Compute_Point_Displacement
cXb:__ZN9ShaderLab9IntShaderC2Ev
H1i:__ZN6il2cpp6icalls8mscorlib6SystemL9IsPrivateEPK9EventInfo
Byj:__ZN6il2cpp6icalls8mscorlib6System10Reflection4Emit11TypeBuilder20setup_internal_classEP27Il2CppReflectionTypeBuilderS7_
ZRg:_RectOffset_set_left_m620681523
oph:_ArrayReadOnlyList_1_IndexOf_m1809425308_gshared
t3i:_il2cpp_gc_disable
aE:__Z69AnimatorControllerPlayable_CUSTOM_INTERNAL_CALL_GetLayerIndexInternalR9HPlayableP12Il2CppString
IHd:_ExecuteEvents_U3Cs_HandlerListPoolU3Em__0_m2903690915
bod:_Hashtable_Clone_m165405752
wai:_Component_BroadcastMessage_m444672650
VUc:__ZN11UnityEngine15PlatformWrapper19GetPhysicalMemoryMBEv
DX:__Z15CreateDirectoryRKN4core12basic_stringIcNS_20StringStorageDefaultIcEEEE
Boa:__Z21CalculateGlobalMatrix23TransformAccessReadOnly
wDf:__ZL70InternalsVisibleToAttribute_t1037732567_CustomAttributesCacheGeneratorP21CustomAttributesCache
OSe:_MonoIO_GetCurrentDirectory_m1509324201
Fsg:_UTF32Encoding_GetHashCode_m4205784236
ZZb:__Z13RegisterClassI14RenderSettingsEvv
F2a:__ZNK25CameraStackRenderingState25CalculateCameraTargetTypeEv
Gzi:_TextGenerator_Finalize_m4242493229
ase:_Collection_1_ConvertItem_m3563206219_gshared
Qwg:_TimeSpan_Subtract_m3597791685_AdjustorThunk
mgi:_AnimatorControllerPlayable_CrossFade_m3146661810
Ty:__ZN7mecanim12statemachine24CreateStateMachineOutputEPKNS0_20StateMachineConstantEjRNS_6memory9AllocatorE
yXg:_Logger__ctor_m3834134587
F2i:_il2cpp_assembly_get_image
qva:__ZNK9GfxDevice27GetActiveRenderSurfaceWidthEv
T_d:_SetPropertyUtility_SetClass_TisIl2CppObject_m3524554928_gshared
jdb:__ZNK11AssetBundle26GetTypeInfoVirtualInternalEv
Qvi:_PKCS12_get_Keys_m1312614820
lVc:__ZN11UnityEngine15PlatformWrapper28GetCleanGraphicsFixedVersionEv
w:tempBigIntP
w5i:__ZN6il2cpp2vm4Type7GetTypeEPK10Il2CppType
z0g:_Rect_Contains_m1334685291_AdjustorThunk
Ped:_AssemblyLoadEventHandler_Invoke_m108373765
nVh:__Z64RuntimeInvoker_Boolean_t3825574718_Il2CppObject_Int64_t909078037PK10MethodInfoPvPS2_
YId:_PointerInputModule_ShouldStartDrag_m4163638715
Fka:__ZN6prcoreL17RemapGenericFloatI18TexFormatRGBAFloat17TexFormatRGBAHalfEEvPKNS_9InnerInfoE
SQa:__Z16FindCameraStacksRKNSt3__24listI4PPtrI6CameraENS_9allocatorIS3_EEEERNS_6vectorI11CameraStackNS4_ISA_EEEE
ODi:_WebRequestUtils__cctor_m893658947
Nqb:__ZN10GISettings8TransferI14SafeBinaryReadEEvRT_
rn:FUNCTION_TABLE_vifff
lFe:_ReadOnlyCollection_1_System_Collections_Generic_ICollectionU3CTU3E_Remove_m2957273994_gshared
QFd:_BaseInputModule_ShouldActivateModule_m2899747874
Yca:__ZN13RenderTexture13ApplySettingsEv
We:_JS_Sound_SetListenerPosition
kn:FUNCTION_TABLE_fiffi
rKg:_ModuleBuilderTokenGenerator_GetToken_m3427457873
$Cb:__ZN9TextAsset9SetScriptERKN4core12basic_stringIcNS0_20StringStorageDefaultIcEEEEb
r8g:_Selectable_get_isPointerInside_m3162215687
Rfe:_List_1_System_Collections_IList_Contains_m149594880_gshared
D0g:_Rect_Overlaps_m4145874649
XBg:_UnauthorizedAccessException__ctor_m3480402128
w3e:_BigInteger_op_Modulus_m3788401748
ani:_ArgInfo_GetInOutArgs_m3184132151
Jma:__ZNK8Material16MarkDependenciesER27GarbageCollectorThreadState
Trc:__ZL17Transfer_GUIStyleI9JSONWriteLb0EEvRK29SerializationCommandArgumentsR31RuntimeSerializationCommandInfo
hDg:_Random__ctor_m1561335652
EUa:__Z28GetHaloVertexPositionsStereoP8Vector3fRKS_S2_f
vla:__ZN6prcoreL27StretchGenericFloatBilinearI15TexFormatRGHalfEEvPKNS_9InnerInfoE
Kce:_Enumerator_MoveNext_m598197344_AdjustorThunk
xbi:_DisplaysUpdatedDelegate_Invoke_m3646339243
S9c:_String_JoinUnchecked_m1880555587
Jfa:__ZNK9ShaderLab7Program21GetMatchingSubProgramEPK6ShaderPKNS_4PassERK16ShaderKeywordSetjPS7_R19ShaderSnippetResult
U4d:_Array_InternalArray__Insert_TisKeyValuePair_2_t1174980068_m2464431954_gshared
$gc:__Z49Register_UnityEngine_Resources_GetBuiltinResourcev
zFc:_tt_cmap10_char_index
fPd:_Dropdown_Awake_m335654827
bih:_Dictionary_2_U3CCopyToU3Em__0_m1479035402_gshared
Uld:_BitArray_set_Item_m3801461194
nNi:__ZN15dense_hashtableINSt3__24pairIK10KeyWrapperIPK22Il2CppGenericParameterEP11Il2CppClassEES6_N6il2cpp5utils11PointerHashIS4_EEN14dense_hash_mapIS6_S9_SE_NS6_14EqualsComparerINS0_8equal_toIS5_EEEENS0_9allocatorISA_EEE9SelectKeyESJ_SL_E3endEv
v9c:_String_Remove_m3580114465
KVb:__ZN9ShaderLab22SerializedBindChannels8TransferI19StreamedBinaryWriteILb0EEEEvRT_
Wrf:_WebHeaderCollection_AddWithoutValidate_m1479880592
LHf:__ZL56ParameterInfo_t2249040075_CustomAttributesCacheGeneratorP21CustomAttributesCache
yBg:_UIntPtr__ctor_m2737768530
PAc:_UNITY_FT_Stream_ReadUShort
CVd:_InputField_OnEnable_m3797157569
Cdc:__Z51Register_UnityEngine_GUILayer_INTERNAL_CALL_HitTestv
Bjc:__Z50Register_UnityEngine_Object_FindSceneObjectsOfTypev
Oga:__ZNSt3__26__treeINS_12__value_typeIN4core12basic_stringIcNS2_20StringStorageDefaultIcEEEES6_EENS_19__map_value_compareIS6_S7_NS_4lessIS6_EELb1EEE13stl_allocatorIS7_L18MemLabelIdentifier1ELi16EEE7destroyEPNS_11__tree_nodeIS7_PvEE
SEi:_Nullable_1__ctor_m796575255_gshared
Vsj:__ZN6il2cpp2vm8Profiler7GCEventE13Il2CppGCEvent
Vvd:_DateTimeUtils_ToString_m3878360633
mfj:__ZN6il2cpp6icalls8mscorlib6SystemL16ThrowInvalidCastEPK11Il2CppClassS5_
myh:_InternalEnumerator_1_get_Current_m3732458101_AdjustorThunk
zzb:__ZN12AspectRatios8TransferI24GenerateTypeTreeTransferEEvRT_
V3h:_CustomEventData_AddUInt64_m1437973832
nKd:_TouchInputModule_Process_m1373751353
Mf:_emscripten_glUniform1fv
zNi:__ZN6il2cpp2vm5Class13GetArrayClassEP11Il2CppClassj
aJ:__ZN4FMOD7Channel7setModeEj
NGg:_DerivedType_InvokeMember_m4149586013
eof:_TlsStream_SetLength_m1460039587
Gmc:__ZN11IMGUIModule12AddGUIScriptER8ListNodeI13MonoBehaviourE
nb:invoke_difi
z7:__ZL50StaticRegisterSceneLoadedCallback_LightmapSettingsPv
Km:FUNCTION_TABLE_iiffi
lSd:_GridLayoutGroup_get_cellSize_m1061731753
_za:__ZN21GLESGpuProgramApplier11ApplyVectorERKN20GpuProgramParameters14ValueParameterEPK8Vector4ft
q0a:__Z17PrepareSceneNodesP11CullResults
rDi:_Vector4_ToString_m2340321043_AdjustorThunk
Ysi:_Parser_IsIgnoreCase_m4155598997
OHc:_cff_size_done
WRa:__ZN22RenderingCommandBuffer13GetAndCheckRTE24BuiltinRenderTextureTypeRKN9ShaderLab16FastPropertyNameEPKcPP13RenderTexture
c7a:__ZN6Camera34UpdatePreviousViewProjectionMatrixEv
Mfa:__ZN9ShaderLab11ShaderState25RemoveUnsupportedProgramsEPK6Shader
vWb:__ZL23AddGpuProgramParametersR20GpuProgramParametersRKNSt3__26vectorIN9ShaderLab20SerializedSubProgram15MatrixParameterENS1_9allocatorIS5_EEEERKNS2_INS4_15VectorParameterENS6_ISB_EEEEiP16PropertyNamesSet
tjc:__Z44Register_UnityEngine_Object_DestroyImmediatev
Occ:__Z47Register_UnityEngine_Component_BroadcastMessagev
rr:__ZN18StreamedBinaryReadILb0EE21TransferSTLStyleArrayI13dynamic_arrayI4PPtrI6ObjectELj4EEEEvRT_17TransferMetaFlags
UIf:__ZL62_ConstructorBuilder_t1236878896_CustomAttributesCacheGeneratorP21CustomAttributesCache
i9b:__Z26scripting_class_has_parent17ScriptingClassPtrS_
jQe:_Int64_System_IConvertible_ToInt16_m2022633688_AdjustorThunk
G6:__ZN13RuntimeStaticI21AssetReferenceStorageLb0EE16StaticInitializeEPv
fBj:__ZN6il2cpp8metadata25Il2CppGenericClassCompare7CompareEPK18Il2CppGenericClassS4_
vu:__ZNK8Animator20IsInMatchTargetStateEv
lnc:__Z36Register_UnityEngine_GUI_set_changedv
N6c:_Encoding_get_Unicode_m1382741113
mli:_LifetimeServices_set_SponsorshipTimeout_m1403222216
kjd:_Char_ToString_m1401375624_AdjustorThunk
M2d:_Array_InternalArray__ICollection_Add_TisTableRange_t2011406615_m147373358_gshared
bsd:_Convert_ToDateTime_m1251728572
O2d:_Array_InternalArray__ICollection_Add_TisBoolean_t3825574718_m1009318882_gshared
gGe:_ReadOnlyCollection_1_System_Collections_IList_set_Item_m1149349508_gshared
Dy:__ZN27AnimationLayerMixerPlayable18SetInputConnectionEP8Playablei
Poc:__Z42Register_UnityEngine_GUIStyle_get_wordWrapv
wmg:_ObjectReader_ReadObjectContent_m3949770110
sai:_Component_SendMessage_m4199581575
_sa:__ZZ19InitializeGfxDevice20GfxCreateDeviceFlagsEN38PreLateUpdateEndGraphicsJobsLatestruct7ForwardEv
ZOi:__ZN6il2cpp2vm5Class40GetInterfaceInvokeDataFromVTableSlowPathEPK12Il2CppObjectPK11Il2CppClassj
Zkb:__ZN20TierGraphicsSettings8TransferI18StreamedBinaryReadILb0EEEEvRT_
hah:_Text_get_font_m3115501113
wej:__GLOBAL__sub_I_Thread_cpp
Zga:__ZN14SafeBinaryRead8TransferINSt3__24pairIN9ShaderLab16FastPropertyNameE10ColorRGBAfEEEEvRT_PKc17TransferMetaFlags
NJi:__ZL9rshift128PyS_
qmg:_ObjectReader_RecordFixup_m1893348030
HHg:_EnumBuilder_GetElementType_m1228393631
kcj:__ZN14dense_hash_mapI10KeyWrapperINSt3__24pairIPK12PropertyInfoP11Il2CppClassEEEj17ReflectionMapHashIS8_ENS9_14EqualsComparerINS1_8equal_toIS8_EEEENS1_9allocatorINS2_IKS9_jEEEEE13set_empty_keyERSH_
bk:_glRenderbufferStorage
cmj:__ZNK15dense_hashtableINSt3__24pairIK10KeyWrapperINS1_IPKcS4_EEEiEES6_24NamespaceAndNamePairHashN14dense_hash_mapIS6_iS9_NS6_14EqualsComparerI26NamespaceAndNamePairEqualsEENS0_9allocatorIS8_EEE9SelectKeyESD_SF_E13find_positionERS7_
Xec:__Z45Register_UnityEngine_Input_get_touchSupportedv
pVc:__ZN11UnityEngine15PlatformWrapper28GetTextureFormatSupportFlagsEv
pDc:_UNITY_FT_Create_Class_pshinter_module_class
Z8c:_String_CompareOrdinalCaseInsensitiveUnchecked_m2002640463
Egd:_Boolean_GetHashCode_m1894638460
rIc:_cf2_setError
Xsg:_UTF7Encoding_InternalGetChars_m4157428055
uoa:__Z33InterpolateLightProbeCoefficientsRK17LightProbeContextRK29LightProbeSamplingCoordinatesR20SphericalHarmonicsL2
I5e:_SmallXmlParser_HandleBufferedContent_m3397096753
_g:_glDisable
KWd:_InputField_OnDeselect_m3963675647
oSc:__Z44Register_UnityEngine_Canvas_get_pixelPerfectv
moj:__ZN6il2cpp5utils11StringUtils15StringDuplicateEPKDsj
Owf:_BaseMachine_Scan_m122450399
Egi:_AnimatorControllerPlayable_PlayInternal_m3385259863
Yjd:_ArrayList_CopyTo_m2353632788
t7:__ZNSt3__26vectorINS_4pairIyP17VertexDeclarationEENS_9allocatorIS4_EEE6assignIPS4_EENS_9enable_ifIXaasr21__is_forward_iteratorIT_EE5valuesr16is_constructibleIS4_NS_15iterator_traitsISB_E9referenceEEE5valueEvE4typeESB_SB_
o_h:__Z100RuntimeInvoker_Int32_t2071877448_Il2CppObject_Color32_t874517518_Int32_t2071877448_Int32_t2071877448PK10MethodInfoPvPS2_
$Xa:__ZNK8Material12GetPassCountEv
Cpd:_Enumerator__cctor_m3784927209
gRj:b110
hRj:b111
iRj:b112
gGj:_bitshift64Ashr
kRj:b114
lRj:b115
mRj:b116
Aga:__ZNK8Material26GetTypeInfoVirtualInternalEv
ABa:__ZN4crnd12crn_unpacker22decode_alpha_endpointsEv
q1a:__Z23CullDynamicObjectsUmbraPK4AABBPKN5Umbra15OcclusionBufferER9IndexList
oFc:_tt_cmap4_char_next
h$:__ZN17DirectorFrameTime14ResetDSPValuesEv
Qui:_GeneralNames_ToString_m800435094
nLd:_BaseMeshEffect_OnDidApplyAnimationProperties_m2484799839
bkf:_TlsServerCertificate_validateCertificates_m1988583701
R_a:__ZN23ForwardShaderRenderLoopD2Ev
wzg:_UInt16_Parse_m3560204090
uvc:__ZN8JSONRead21TransferSTLStyleArrayI13dynamic_arrayIsLj2EEEEvRT_18MemLabelIdentifier17TransferMetaFlags
OI:__ZN4FMOD7Channel11setPositionEjj
Sh:_glBindSampler
w8:__Z22CreateMutexLockedQueuev
vHe:_ReadOnlyCollection_1_System_Collections_Generic_ICollectionU3CTU3E_Clear_m964488020_gshared
Wh:_glGetVertexAttribiv
Q2d:_Array_InternalArray__ICollection_Add_TisChar_t3454481338_m422084244_gshared
ZNc:__ZN2UI11CanvasGroup23VirtualRedirectTransferER18StreamedBinaryReadILb0EE
efi:_AnimatorControllerPlayable_GetLayerName_m2571001466
Buc:__ZN8JSONRead8TransferIbEEvRT_PKc17TransferMetaFlagsb
hXg:_DefaultValueAttribute_Equals_m3216982933
Vsf:_X509KeyUsageExtension_Decode_m3292847033
J7:__ZN26SharedLightmapSettingsDataD2Ev
uMg:_Module_filter_by_type_name_ignore_case_m3574895736
xqb:__ZN26CustomRenderTextureManager19PreAllocateMaterialEP19CustomRenderTexture
Ylg:_ObjectReader_ReadObject_m397855326
Qtj:_GC_promote_black_lists
mTd:_Image_get_fillAmount_m3354146540
mvc:__Z29Transfer_Blittable_ArrayFieldI8JSONRead8Vector4fEvRT_R9ArrayInfoRK23StaticTransferFieldInfo
rBc:__ZNK13TextRendering4Font9GetAscentEv
Rn:FUNCTION_TABLE_vf
po:FUNCTION_TABLE_vd
dyg:_Type_GetMethod_m1930231379
ro:FUNCTION_TABLE_vi
ilg:_WellKnownServiceTypeEntry_ToString_m493996021
Y0e:_SimpleCollator_GetContraction_m1391584430
Hgd:_CultureInfo_get_InvariantCulture_m398972276
hgd:_Boolean_System_IConvertible_ToInt64_m4142756949_AdjustorThunk
EC:__ZNK8Animator17HasBoundPlayablesEv
mdf:_HMAC_initializePad_m3828610671
H1c:_RSAParameters_t1462703416_marshal_pinvoke_cleanup
y6h:_AsyncOperation_get_priority_m966065939
ua:invoke_iiifiii
sgj:__ZN6il2cpp2vm9Exception11FromNameMsgEPK11Il2CppImagePKcS6_S6_
Oxg:_Type_internal_from_name_m1506974323
bn:FUNCTION_TABLE_fiiifii
ZB:__ZN10HumanTrait15InitializeClassEv
w$:__Z14GetTimeManagerv
KSh:__Z67RuntimeInvoker_Void_t1841601450_Scene_t1684909666_Int32_t2071877448PK10MethodInfoPvPS2_
jhb:__Z12GUIDToStringRK9UnityGUIDPc
Meb:__ZN15FileSystemEntry4LockE12FileLockModeP12FileAccessor
BYd:_Array_get_swapper_TisIl2CppObject_m1701356863_gshared
dM:__ZN11AudioSource22UnmuteActiveVideoSinksEv
joj:__ZN4utf88internal20is_overlong_sequenceIiEEbjT_
Pi:_glReadBuffer
mld:_SynchronizedArrayListWrapper_get_Count_m4104930530
hZa:__Z30SetupBakedOcclusionForGeometrybRK26SharedLightmapSettingsDataRK15LightmapIndicesR17ShaderPassContext
P4c:_SecurityPermission_IsSubsetOf_m1087302418
Ucc:__Z41Register_UnityEngine_Cursor_get_lockStatev
GYa:__Z14SetupLightmapsRK8Vector4fS1_R17ShaderPassContext
Ayf:_Interval_get_Empty_m3170923997
u$b:__Z20DestroyObjectDelayedP6Objectf
OU:__ZN20DynamicHeapAllocatorI17LowLevelAllocatorED0Ev
ZVd:_InputField_OnDrag_m726194348
e2e:_PreviousInfo__ctor_m1442166472_AdjustorThunk
TVa:__ZN9DepthPassD2Ev
IH:__ZN11AudioFilter6GetDSPEv
CTi:__ZN13Il2CppHashMapIPKcP11Il2CppClassN6il2cpp5utils11StringUtils12StringHasherIS1_EENS6_21CaseSensitiveComparerENSt3__29allocatorINSA_4pairIK10KeyWrapperIS1_ES3_EEEEEC2EjRKS8_RKS9_
hAc:__ZN20TextRenderingPrivate15DynamicFontData36GetFaceForCharacterIfAvailableInFontERKNS_7FontRefERKNSt3__26vectorI4PPtrIN13TextRendering4FontEE13stl_allocatorIS9_L18MemLabelIdentifier34ELi16EEEEj
D1:__ZN19RuntimeSceneManager14CanUnloadSceneEP10UnityScene
hWa:__Z22ExtractRenderNodeQueueRK11CullResults15ExtractionFlagsR15RenderNodeQueue
F6d:_Array_InternalArray__set_Item_TisContentType_t1028629049_m703420360_gshared
_qe:_List_1_set_Item_m1431784996_gshared
WG:__ZN24AudioScriptBufferManagerC2Ev
vwc:__ZN11UnityEngine9Analytics18SceneLoadTimeEvent12ToJsonStringER9JSONWrite
Jzc:__ZNSt3__26vectorIh13stl_allocatorIhL18MemLabelIdentifier1ELi16EEE8__appendEj
GXc:__ZN13RuntimeStaticI19UnityConnectServiceLb0EE13StaticDestroyEPv
Mzc:__ZN20TextRenderingPrivate8FontImpl16ResetPackingDataEv
ewg:_TimeSpan_get_Hours_m3804628138_AdjustorThunk
G1d:_Array_InternalArray__IndexOf_TisLink_t865133271_m3612939760_gshared
$qc:__Z18Transfer_BlittableI9JSONWriteLb0EfEvRK29SerializationCommandArgumentsR31RuntimeSerializationCommandInfo
jda:__Z21GetAsyncUploadManagerv
Gj:_emscripten_glDetachShader
DBg:_UIntPtr__cctor_m889490270
e0e:_SafeHandleZeroOrMinusOneIsInvalid_get_IsInvalid_m2033528032
Yid:_Char_IsUpper_m4083577610
MAa:__ZN17GenericDynamicVBO20ReleaseChunkInternalERK21DynamicVBOChunkHandlejj
CMc:__ZL27CleanupModule_TextRenderingv
d0e:_SafeHandleZeroOrMinusOneIsInvalid__ctor_m3340306667
JCj:_fmodl
qjg:_SerializationInfo_AddValue_m902275108
XCj:_fmodf
fea:__ZN12CachedWriter11Align4WriteEv
kXa:__Z20DoDeferredRenderLoopR17RenderLoopContextR13dynamic_arrayI16RenderObjectDataLj4EES4_RK11CullResultsRP13RenderTextureSA_Pb
Vra:__ZN19RuntimeSceneManager11CreateSceneEv
log:_RuntimeTypeHandle__ctor_m235560320_AdjustorThunk
EHc:_ps_get_standard_strings
Uue:_Collection_1_IsValidItem_m1908012838_gshared
gZa:__Z27SetupBakedOcclusionForLightbRK15SharedLightDataR17ShaderPassContext
Czj:__ZN6il2cpp2os5Mutex6UnlockEv
v7g:_ScrollRect_OnScroll_m3346515304
Gde:_Enumerator_System_Collections_IEnumerator_get_Current_m3461301268_gshared
Vgh:_Dictionary_2_CopyToCheck_m1638253305_gshared
rRa:__Z18RenderImageFiltersR10RenderLoopb
AU:__Z19free_alloc_internalPv18MemLabelIdentifier
Ggb:__ZNK23ArchiveStorageConverter16GetDirectoryInfoEv
$Qc:__Z43CanvasRenderer_Get_Custom_PropMaterialCountP12Il2CppObject
a5a:__ZN10GameObjectD2Ev
ACe:_ReadOnlyCollection_1_System_Collections_Generic_IListU3CTU3E_set_Item_m25653560_gshared
geg:__ZL68Selectable_t1490392188_CustomAttributesCacheGenerator_m_InteractableP21CustomAttributesCache
MBb:__ZN33AssetBundleLoadFromAsyncOperation12IsCrc32ValidEv
S9h:_Color32_op_Implicit_m889975790
ddi:_UnityEventBase_RebuildPersistentCallsIfNeeded_m1583202007
mff:_CertificateSelectionCallback_Invoke_m2902629105
Z6:__ZN10InputEventD2Ev
kLe:_DateTimeFormatInfo_GetAllDateTimePatternsInternal_m1587126173
ZBi:_Vector2_ToString_m775491729_AdjustorThunk
AKe:_NumberFormatter_Append_m3268121457
Yaj:__ZNK15dense_hashtableINSt3__24pairIK10KeyWrapperIPK14Il2CppAssemblyEPK16MonoAssemblyNameEES6_N6il2cpp5utils11PointerHashIS4_EEN14dense_hash_mapIS6_SA_SF_NS6_14EqualsComparerINS0_8equal_toIS5_EEEENS0_9allocatorISB_EEE9SelectKeyESK_SM_E3endEv
q1c:_RSA_ToXmlString_m4145056574
Vaa:__Z20SetPlayerPauseDirect11PlayerPause
cBd:_Double_System_IConvertible_ToUInt64_m1318285078_AdjustorThunk
oCj:_isalpha
N3i:_il2cpp_object_unbox
b6g:_Selectable_FindSelectable_m2739582497
ZSd:_LayoutGroup_GetAlignmentOnAxis_m1783063916
Xvd:_DateTimeUtils_ZeroPad_m86470512
q$i:__ZN6il2cpp2vmL17IsSocketAsyncCallEP14Il2CppDelegate
Q7h:_Camera_get_clearFlags_m1743144302
FXg:_Logger_IsLogTypeAllowed_m1750132386
jsj:__ZN6il2cpp2vm6String6NewLenEPKcj
Yib:__ZN6Camera23VirtualRedirectTransferER19StreamedBinaryWriteILb0EE
Vk:_time
b0c:_RC2Transform__cctor_m4079629627
KRd:_Graphic_UnregisterDirtyLayoutCallback_m1724443555
idf:_CryptoConvert_ToHex_m2874017189
_Ic:_cf2_stack_free
a2:__ZN15dense_hashtableINSt3__24pairIKiP6ObjectEEi21InstanceIDHashFunctorN14dense_hash_mapIiS4_S6_NS0_8equal_toIiEE13stl_allocatorIS5_L18MemLabelIdentifier65ELi16EEE9SelectKeyES9_SC_E12resize_deltaEjj
DA:__ZN8Animator31ClearInternalControllerPlayableEv
v5a:__ZN10GameObject8TransferI24GenerateTypeTreeTransferEEvRT_
jee:_Enumerator_VerifyState_m3913376581_gshared
C6i:__ZN15dense_hashtableINSt3__24pairIK10KeyWrapperINS1_IPK9FieldInfoP11Il2CppClassEEEjEES9_17ReflectionMapHashIS8_EN14dense_hash_mapIS9_jSD_NS9_14EqualsComparerINS0_8equal_toIS8_EEEENS0_9allocatorISB_EEE9SelectKeyESI_SK_E4findERSA_
_Pj:_glDeleteSync__wrapper
Bsd:_Decimal_op_Implicit_m623319612
Jeh:_ValueCollection_System_Collections_Generic_ICollectionU3CTValueU3E_Remove_m98888100_gshared
IGd:_EventTrigger_OnPointerExit_m2119176877
cvg:_ThreadAbortException__ctor_m1623816114
k0b:__ZN13ProduceHelperI30RuntimeInitializeOnLoadManagerLb0EE7ProduceE18MemLabelIdentifier18ObjectCreationMode
t3a:__ZN13RenderTexture19SetAutoGenerateMipsEb
cja:__Z20GetTextureFormatInfo13TextureFormat
Noc:__Z43Register_UnityEngine_GUIStyle_get_alignmentv
A2b:__Z40InitializeLightAnimationBindingInterfacev
wz:__ZN26AnimatorControllerPlayable8GetFloatEiRf
f4g:_Shadow__ctor_m924057531
uId:_PointerEventData_set_worldPosition_m192283671
ZHj:dynCall_iiifiiii
TCi:_Vector3_get_right_m1884123822
Xxj:__ZN6il2cpp5utils10MemoryPool6MallocEj
nG:__ZN11SoundHandle8InstanceD2Ev
a9:__ZN31CanvasBatchIntermediateRenderer13StaticDestroyEPv
Txi:_X509Store_BuildCrlsCollection_m52567568
xfc:__Z29Mesh_CUSTOM_RecalculateBoundsP12Il2CppObject
NBd:_Enum_ToString_m662345249
aNj:_emscripten_glBindProgramARB__wrapper
Rcc:__Z41Register_UnityEngine_CullingGroup_Disposev
qpb:__ZN7Cubemap23VirtualRedirectTransferER19StreamedBinaryWriteILb0EE
nTh:__Z100RuntimeInvoker_Void_t1841601450_Il2CppObject_Single_t2076509932_Int32_t2071877448_Single_t2076509932PK10MethodInfoPvPS2_
AKa:__ZN25MultiBlocksMemoryFileData5WriteEyyPKv
HGh:__Z78RuntimeInvoker_Il2CppObject_Int64_t909078037_Int64_t909078037_Int64_t909078037PK10MethodInfoPvPS2_
ume:_List_1_System_Collections_IList_Add_m4271264217_gshared
Gbj:__ZN14dense_hash_mapI10KeyWrapperIPK10Il2CppTypeEjN6il2cpp8metadata14Il2CppTypeHashENS4_14EqualsComparerINS6_26Il2CppTypeEqualityComparerEEENSt3__29allocatorINSB_4pairIKS4_jEEEEE13set_empty_keyERSE_
Dcc:__Z35Component_CUSTOM_SendMessageUpwardsP12Il2CppObjectP12Il2CppStringS0_i
KCa:__ZL17ProgramUniform2fvPK7ApiGLESjiihPKv
Ezc:__ZN20TextRenderingPrivate8FontImpl21HasCharacterInTextureEjijfPj
KDj:_htonl
Yxa:__Z20GetBufferManagerGLESv
UQb:__ZN18StreamedBinaryReadILb0EE21TransferSTLStyleArrayI31ArrayOfManagedObjectsTransfererEEvRT_17TransferMetaFlags
gtg:_UTF7Decoder_GetChars_m2790530452
Gtc:__Z18Transfer_BlittableI8JSONReadLb0EtEvRK29SerializationCommandArgumentsR31RuntimeSerializationCommandInfo
DNa:__ZZ23InitPlayerLoopCallbacksvEN44EarlyUpdateResetFrameStatsAfterPresentstruct7ForwardEv
zah:_Text_set_fontSize_m2101304336
qCc:_pshinter_module_class_pic_free
qdg:__ZL68Navigation_t1571958496_CustomAttributesCacheGenerator_m_SelectOnLeftP21CustomAttributesCache
Pu:__ZN34AnimationStateMachineMixerPlayable13EndTransitionEv
coj:__ZNSt3__212basic_stringIDsNS_11char_traitsIDsEENS_9allocatorIDsEEE9__grow_byEjjjjjj
rI:__ZN12AudioManager21FixMasterGroupRoutingEv
v3c:_SymmetricAlgorithm_set_Key_m2973350820
Jbg:__ZL58FontData_t2614388407_CustomAttributesCacheGenerator_m_FontP21CustomAttributesCache
Yrf:_WebHeaderCollection_IsHeaderValue_m1723393133
Bnd:_Hashtable__ctor_m4280223555
Mpj:__ZN6il2cpp2os10ThreadImpl33UnregisterCurrentThreadForCleanupEv
Fy:__ZN27AnimationLayerMixerPlayable22PrepareAnimationEventsEfR13dynamic_arrayI22AnimationClipEventInfoLj4EE
bGb:__Z18Transfer_BlittableI14SafeBinaryReadLb1E4AABBEvRK29SerializationCommandArgumentsR31RuntimeSerializationCommandInfo
xoj:__ZN6il2cpp6icalls8mscorlib6System4Enum12get_hashcodeEP12Il2CppObject
SWg:_Input_INTERNAL_get_mouseScrollDelta_m1140491498
Dei:_AnimatorControllerPlayable_SetInteger_m1311149575
aH:__ZN9AudioClip7WWWOpenEPKciPjPPvS4_
qPh:__Z79RuntimeInvoker_Void_t1841601450_Il2CppObject_Int32_t2071877448_Int64_t909078037PK10MethodInfoPvPS2_
WFb:__Z18Transfer_BlittableI14SafeBinaryReadLb0E8Vector2fEvRK29SerializationCommandArgumentsR31RuntimeSerializationCommandInfo
rgi:_AnimatorControllerPlayable_PlayInFixedTime_m2562520484
Pc:_emscripten_glVertexAttrib2f
HTb:__ZN15SerializeTraitsIN9ShaderLab20SerializedSubProgram16TextureParameterEE8TransferI14SafeBinaryReadEEvRS2_RT_
ihd:_Byte_System_IConvertible_ToInt16_m1575115635_AdjustorThunk
Dt:__ZN11UnityEngine9Animation31SetHumanTransformPropertyValuesERKNS0_21AvatarBindingConstantERKN7mecanim8skeleton13SkeletonPoseTIN4math4trsXEEEbb
Pli:_Context_get_HasGlobalDynamicSinks_m3205328884
v1e:_SimpleCollator_CompareQuick_m619038530
Bnf:_SslStreamBase_EndRead_m1072850679
id:_SDL_GetTicks
uPc:__ZN2UI14CanvasRenderer11SyncCullingENS0_8SyncFlagE
v8i:__ZN15dense_hashtableINSt3__24pairIK10KeyWrapperINS1_IPK11Il2CppImageP11Il2CppClassEEEjEES9_17ReflectionMapHashIS8_EN14dense_hash_mapIS9_jSD_NS9_14EqualsComparerINS0_8equal_toIS8_EEEENS0_9allocatorISB_EEE9SelectKeyESI_SK_E6insertERKSB_
Wv:__Z16AppendPathToHashRKN7mecanim5crc32EPKc
X0a:__Z21CreateShadowCullerJobP30CreateUmbraShadowCullerJobData
PXg:_Material_get_mainTexture_m432794412
CCa:__ZL18ProgramUniform2uivPK7ApiGLESjiihPKv
GOj:_glUniform4iv__wrapper
WZa:__Z33GenerateShadowCasterPartsSortDataRK16ShadowCasterDatajRK15RenderNodeQueueRKNSt3__26vectorI20ShadowCasterPartData13stl_allocatorIS7_L18MemLabelIdentifier2ELi16EEEERK10Matrix4x4fRjP20ShadowCasterSortData
Oih:_Dictionary_2_ToTKey_m4209561517_gshared
lIc:_cf2_computeDarkening
FY:__GLOBAL__sub_I_runtime_gfxdevice_lump_cpp
z6h:_AsyncOperation_set_priority_m3581020444
kuj:_GC_expand_hp_inner
rWi:__ZNK15dense_hashtableINSt3__24pairIK10KeyWrapperI13dynamic_arrayIPK10Il2CppTypeLj4EEEPFvvEEES8_N6il2cpp8metadata19Il2CppSignatureHashEN14dense_hash_mapIS8_SB_SF_NS8_14EqualsComparerINSE_22Il2CppSignatureCompareEEENS0_9allocatorISC_EEE9SelectKeyESJ_SL_E12test_deletedEj
ekj:__ZNK15dense_hashtableI10KeyWrapperIP18Il2CppGenericClassES3_N6il2cpp8metadata22Il2CppGenericClassHashEN14dense_hash_setIS3_S6_NS3_14EqualsComparerINS5_25Il2CppGenericClassCompareEEENSt3__29allocatorIS3_EEE8IdentityESA_SD_E12test_deletedEj
oec:__Z25Screen_Get_Custom_PropDpiv
zSa:__ZN13ComputeShader20GetCompatibleVariantE17GfxDeviceRendereri
_nj:__ZN4utf812find_invalidIPKcEET_S3_S3_
swf:_X509ExtensionCollection_System_Collections_ICollection_CopyTo_m3421329346
Etj:_GC_err_printf
sIg:_FieldBuilder_SetValue_m3109503557
VQd:_Graphic_OnBeforeTransformParentChanged_m1866292273
juf:_X509Certificate2_Verify_m1574874641
Iag:__ZL58PhysicsRaycaster_t249603239_CustomAttributesCacheGeneratorP21CustomAttributesCache
rzc:__ZN20TextRenderingPrivate19NativeTextGenerator23FixLineHorizontalOffsetEiii
upd:_SortedList_GetEnumerator_m1318483481
Edd:_Array_CreateInstance_m3327690220
ew:__ZN7mecanim9animation19DestroyAnimationSetEPNS0_12AnimationSetERNS_6memory9AllocatorE
GIh:__Z64RuntimeInvoker_Double_t4078015681_Il2CppObject_Int32_t2071877448PK10MethodInfoPvPS2_
X3:__ZN14SerializedFile7ReleaseEv
Z9a:__ZN16MemoryFileSystem4OpenER13FileEntryData14FilePermission16FileAutoBehavior
O8:__ZN13RuntimeStaticI13RendererSceneLb0EE13StaticDestroyEPv
RKb:__Z18Transfer_BlittableI24GenerateTypeTreeTransferLb1E12PropertyNameEvRK29SerializationCommandArgumentsR31RuntimeSerializationCommandInfo
x2b:__ZN5Light15InitializeClassEv
Kyb:__ZN14SafeBinaryRead21TransferSTLStyleArrayI10vector_mapIPKN5Unity4TypeE7Hash128NSt3__24lessIS5_EENS7_9allocatorINS7_4pairIS5_S6_EEEEEEEvRT_17TransferMetaFlags
$G:__ZN9AudioClip18GetQueuedAudioDataEPPvj
q7b:__ZNK9Texture2D17CheckHasPixelDataEv
CVa:__Z18SetShadowsKeywordsR17ShaderPassContext9LightType10ShadowType16ShadowProjectionbb
jcj:__ZN14dense_hash_mapI10KeyWrapperINSt3__24pairIPK12PropertyInfoP11Il2CppClassEEEj17ReflectionMapHashIS8_ENS9_14EqualsComparerINS1_8equal_toIS8_EEEENS1_9allocatorINS2_IKS9_jEEEEEC2EjRKSB_RKSF_
m2b:__ZN17CollisionMeshDataC2Ev
PDg:_Assembly_GetModule_m2064378601
Y6g:_ScrollRect_SetDirty_m93243192
Eqb:__ZN16LightmapSettings23VirtualRedirectTransferER19StreamedBinaryWriteILb0EE
d_g:_MessageTypeSubscribers__ctor_m743474932
vOj:_glTexParameteriv__wrapper
Rqa:__ZN18IDCollectorFunctor18GenerateInstanceIDEi17TransferMetaFlags
M5d:_Array_InternalArray__set_Item_TisTableRange_t2011406615_m2386708730_gshared
LKe:_NumberFormatter_ToDecHex_m1474793296
mbb:__ZN14StackAllocatorD0Ev
Uej:__ZN6il2cpp2vm6Thread8SetStateEP12Il2CppThreadNS0_11ThreadStateE
_$e:_OperatingSystem_Clone_m1943707477
uQd:_FontData_set_richText_m29558601
tvg:_Scheduler_Change_m4063588742
G7d:_Array_Resize_TisVector2_t2243707579_m1117258774_gshared
kS:__ZN11UnityEngine15CloudWebService13WWWRestClientD0Ev
jyi:_HitInfo_SendMessage_m3368777144_AdjustorThunk
xgc:__Z22PlayableValidityChecksRK9HPlayableb
Hjf:_TlsClientCertificateVerify_ProcessAsTls1_m1960818833
cle:_List_1_Insert_m2532850849_gshared
ucc:__Z41Register_UnityEngine_Camera_GetAllCamerasv
bZg:_Mesh_get_vertices_m626989480
D3g:_MaskableGraphic_OnCanvasHierarchyChanged_m2012659245
uBa:__ZN4crnd12crn_unpacker10unpack_dxnEPPhjjjjjj
gXc:__ZN28PerformanceReportingSettings8TransferI14SafeBinaryReadEEvRT_
Wsd:_Double_Parse_m2344589511
igj:__ZN6il2cpp2vm22EmbeddedResourceRecordC2ERKS1_
lpb:__ZN9Texture2D13AwakeFromLoadE17AwakeFromLoadMode
O0e:_MSCompatUnicodeTableUtil__cctor_m1479836795
Wsi:_PositionAssertion__ctor_m3703837499
LXd:_LayoutGroup_get_minWidth_m4111745491
GWe:_StreamWriter_Initialize_m1707678624
mnj:__ZN6il2cpp2vm3RCW14QueryInterfaceILb0EEEP14Il2CppIUnknownP15Il2CppComObjectRK10Il2CppGuid
R6g:_ScrollRect_set_verticalScrollbar_m2903688658
eWg:_GUIStyle_INTERNAL_CALL_SetMouseTooltip_m1802284884
hka:__ZN6prcoreL17RemapGenericFloatI15TexFormatRFloat18TexFormatARGBFloatEEvPKNS_9InnerInfoE
hJf:__ZL50_Thread_t1894135853_CustomAttributesCacheGeneratorP21CustomAttributesCache
Lth:_InternalEnumerator_1_get_Current_m1047712960_gshared
BY:__GLOBAL__sub_I_runtime_camera_renderlayers_lump_cpp
xWc:__ZN11UnityEngine15PlatformWrapper20GetPlayerPrefsUInt64ERKN4core12basic_stringIcNS1_20StringStorageDefaultIcEEEEy
vZa:__ZN20ReflectionProbeCacheC2ER13BatchRendererR15RenderLoopStats
C9:__ZN18AssetBundleManagerC2Ev
PLa:__ZNK12HandlerChain6ExistsERK13FileEntryData
pUf:__ZL61ExtensionAttribute_t1840441203_CustomAttributesCacheGeneratorP21CustomAttributesCache
std:_Convert_ToInt32_m2734833291
m_a:__Z30FindDirectAttenuationFromProbeP18ForwardLightsBlockbiRK10RenderNodeRK23FindForwardLightsParamsf
Pxb:__ZN12InputManager23VirtualRedirectTransferER24GenerateTypeTreeTransfer
wYb:__ZN9Transform23VirtualRedirectTransferER24GenerateTypeTreeTransfer
JWb:__ZNSt3__26vectorIN9ShaderLab20SerializedSubProgram12UAVParameterENS_9allocatorIS3_EEE21__push_back_slow_pathIKS3_EEvRT_
tki:_CrossAppDomainChannel_RegisterCrossAppDomainChannel_m43456045
bwf:_X509ChainElement_Count_m228862214
cxg:_TimeZone_IsDaylightSavingTime_m1840774423
TKc:_UNITY_tt_size_ready_bytecode
_xc:__ZN13TextRendering4FontD2Ev
YAc:_UNITY_FT_Stream_Open
xOc:__GLOBAL__sub_I_runtime_ui_lump_cpp
JKa:__ZN10MemoryFile4ReadEyyPvPy
kua:__ZN13GfxDeviceGLES26UpdateViewProjectionMatrixEv
O2b:__ZZL23RegisterLightPropertiesR22GenericPropertyBindingEN22Wrapper_LightIntensity13SetFloatValueEPvf
DF:__ZN4FMOD3DSP12setParameterEif
iaa:__ZN13MemoryManager16StaticInitializeEv
WEf:__ZL53StackFrame_t2050294881_CustomAttributesCacheGeneratorP21CustomAttributesCache
nf:___cxa_free_exception
wGe:_ReadOnlyCollection_1_System_Collections_ICollection_CopyTo_m4126742951_gshared
xJ:__ZN4FMOD22FakeModChannelCallbackEPv
tf:_emscripten_glValidateProgram
LRa:__ZN4Mesh10CreateMeshEv
D9i:__ZN6il2cpp2gc19AppendOnlyGCHashMapINSt3__24pairIPK9EventInfoP11Il2CppClassEEP21Il2CppReflectionEvent17ReflectionMapHashIS9_ENS2_8equal_toIS9_EEE3AddERKS9_SB_
vG:__ZN4FMOD7SystemI11createSoundEPKcjP22FMOD_CREATESOUNDEXINFOPPNS_5SoundE
Fyi:_Sprite_get_associatedAlphaSplitTexture_m3617241169
llg:_ArrayFixupRecord_FixupImpl_m2377725358
JIc:_cf2_stack_clear
EAd:_Double_System_IConvertible_ToBoolean_m4251806534_AdjustorThunk
Dch:_ShimEnumerator_Reset_m2247049027_gshared
dhj:__ZN6il2cpp6icalls8mscorlib6System4Type27get_IsGenericTypeDefinitionEP20Il2CppReflectionType
u3a:__ZN7Texture13SetAnisoLevelEi
uuf:_X509Chain_Process_m2508784250
Tpe:_List_1_RemoveAt_m2929488689_gshared
Ewc:__ZN27PerformanceReportingManager23VirtualRedirectTransferER24GenerateTypeTreeTransfer
PCc:_raccess_guess_vfat
gSc:__Z44Canvas_CUSTOM_GetETC1SupportedCanvasMaterialv
A8:__ZN33InstancedMeshIntermediateRenderer13StaticDestroyEPv
FOe:_Int16_Parse_m3012618547
tij:__ZN14dense_hash_mapI10KeyWrapperIP14Il2CppIUnknownEjN6il2cpp5utils11PointerHashIS1_EENS3_14EqualsComparerINSt3__28equal_toIS2_EEEENS9_9allocatorINS9_4pairIKS3_jEEEEE13set_empty_keyERSF_
Cjb:__Z21DestroyShadowMapCacheP14ShadowMapCache
Sy:__ZN7mecanim9animation25CreateControllerWorkspaceEPKNS0_18ControllerConstantERNS_6memory9AllocatorE
k2d:_Array_InternalArray__IndexOf_TisUInt64_t2909196914_m3958307360_gshared
LRd:_Graphic_RegisterDirtyVerticesCallback_m4169445219
Jbj:__ZN15dense_hashtableINSt3__24pairIK10KeyWrapperIPK10Il2CppTypeEjEES6_N6il2cpp8metadata14Il2CppTypeHashEN14dense_hash_mapIS6_jSB_NS6_14EqualsComparerINSA_26Il2CppTypeEqualityComparerEEENS0_9allocatorIS8_EEE9SelectKeyESF_SH_E14squash_deletedEv
thj:__ZN6il2cpp2vm13LivenessState5ResetEv
oBi:_Transform_get_parent_m147407266
aqc:__ZN9JSONWrite8TransferI11KeyframeTplIfEEEvRT_PKc17TransferMetaFlags
tOh:__Z71RuntimeInvoker_Double_t4078015681_Double_t4078015681_Double_t4078015681PK10MethodInfoPvPS2_
eah:_Text_get_cachedTextGenerator_m224335893
RPg:_GameObject_GetComponent_m306258075
_ij:__ZN6il2cpp2vm3RCW23GetOrCreateFromIUnknownEP14Il2CppIUnknownP11Il2CppClass
pgj:__ZN6il2cpp2vm9Exception27RaiseNullReferenceExceptionEv
aJa:__ZN24BuiltinShaderParamValuesC2Ev
Tqc:__ZL41CreateJSONTransferFunctionScriptingTraitsv
KTe:_FileStream_get_CanWrite_m775322953
kOa:__Z23GetLateBehaviourManagerv
y5:__ZN10MemoryPool10DeallocateEPv
DLe:_NumberFormatInfo__ctor_m2752806684
Nnf:_SslStreamBase_get_CanRead_m3061866682
Epi:_PatternCompiler_EmitFastRepeat_m1175707353
uae:_Array_InternalArray__get_Item_TisKeyValuePair_2_t3716250094_m3120861630_gshared
tCc:_cff_driver_class_pic_free
Uvc:__ZNK9rapidjson12GenericValueINS_4UTF8IcEE13JSONAllocatorE6AcceptINS_6WriterI16TempBufferWriterS2_S2_S3_EEEEbRT_
NHj:dynCall_vif
OHj:dynCall_vid
Nje:_List_1_System_Collections_IList_get_Item_m3989815218_gshared
QHj:dynCall_vii
Krd:_DateTime__ctor_m3604679583
KQb:__Z18Transfer_BlittableI18StreamedBinaryReadILb0EELb0EdEvRK29SerializationCommandArgumentsR31RuntimeSerializationCommandInfo
Voi:_Enumerator_System_Collections_IEnumerator_MoveNext_m3313126804
GVa:__ZNK17InstancedPropInfo14IsInstanceableERK19ShaderPropertySheet
tcb:__ZN5Unity9Component16CheckConsistencyEv
$Kd:_LayoutRebuilder_ValidController_m2595049322
sDa:__ZN7ApiGLES11CheckShaderERjb
d1g:_RectTransform_set_anchoredPosition_m2077229449
IMb:__ZL26Transfer_SimpleNativeClassI19StreamedBinaryWriteILb0EE10RectOffsetLb1EEvRK29SerializationCommandArgumentsR31RuntimeSerializationCommandInfo
tae:_Array_InternalArray__get_Item_TisKeyValuePair_2_t1174980068_m964958642_gshared
h7i:__ZN15dense_hashtableINSt3__24pairIK10KeyWrapperIPK10Il2CppTypeEjEES6_N6il2cpp8metadata14Il2CppTypeHashEN14dense_hash_mapIS6_jSB_NS6_14EqualsComparerINSA_26Il2CppTypeEqualityComparerEEENS0_9allocatorIS8_EEE9SelectKeyESF_SH_E3endEv
o_a:__Z28GetNonInterpolatedLightProbeRK17LightProbeContextjR20SphericalHarmonicsL2
_2d:_Array_InternalArray__ICollection_Add_TisDateTime_t693205669_m3559987213_gshared
Mwa:__ZN13GfxDeviceGLES17SetGpuProgramNameEP10GpuProgramPKc
WYi:__ZN6il2cpp2vm13MetadataCache28GetMethodDefinitionFromIndexEi
_qj:__ZN6il2cpp2os20FileErrnoToErrorCodeEi
Sga:__ZN14SafeBinaryRead19TransferSTLStyleMapINSt3__23mapI39DeprecatedFastPropertyNameSerialization10ColorRGBAfNS1_4lessIS3_EENS1_9allocatorINS1_4pairIKS3_S4_EEEEEEEEvRT_17TransferMetaFlags
dCb:__ZN14CachingManager13WriteInfoFileERKN4core12basic_stringIcNS0_20StringStorageDefaultIcEEEERKNSt3__26vectorIS4_NS7_9allocatorIS4_EEEE
d7h:_Behaviour_get_enabled_m4079055610
qEa:__ZN7ApiGLES18CreateRenderbufferEiN2gl9TexFormatEii
uCi:_Vector3_Lerp_m2935648359
IDi:_NetFxCoreExtensions_GetMethodInfo_m2715372889
bh:_atexit
emd:_BitArrayEnumerator_Reset_m3218489242
vhd:_Byte_System_IConvertible_ToUInt16_m2275325191
kaj:__ZN6il2cpp2vmL31GetObjectForMissingDefaultValueEj
jQa:_UNITY_png_write_info_before_PLTE
KYc:__ZN16UploadHandlerRawD0Ev
Rxe:_Collection_1__ctor_m824713192_gshared
oUb:__ZN9ShaderLab14SerializedPassC2ERKS0_
Arh:_InternalEnumerator_1_System_Collections_IEnumerator_get_Current_m3088751576_AdjustorThunk
lUd:_InputField_get_text_m409351770
l:STACKTOP
rKc:_cff_get_name_index
GYe:_Math_Cos_m43596019
Vqb:__ZN21EnlightenSceneMapping16BuildRemapTablesEv
wFb:__ZNSt3__26vectorI4PPtrI10MonoScriptE13stl_allocatorIS3_L18MemLabelIdentifier76ELi16EEE8__appendEj
V5b:__ZN17TransformInternal27UpdateDeepChildCountUpwardsER18TransformHierarchyii
Qxh:_InternalEnumerator_1_System_Collections_IEnumerator_get_Current_m1533037706_AdjustorThunk
rFj:__ZNK10__cxxabiv117__class_type_info16search_above_dstEPNS_19__dynamic_cast_infoEPKvS4_ib
A:tempBigIntD
P7c:_Single_Equals_m3359827399_AdjustorThunk
NGd:_EventTrigger_OnPointerClick_m413999043
z:tempBigIntI
nGi:_CachedInvokableCall_1__ctor_m127496184_gshared
tcf:_PrimalityTests_RabinMillerTest_m2029846965
y:tempBigIntR
x:tempBigIntS
on:FUNCTION_TABLE_viffi
vAc:_open_face_PS_from_sfnt_stream
Nkg:_ServerIdentity_CreateObjRef_m1056204803
k5:__ZN6Object18RegisterInstanceIDEPS_
BKb:__Z18Transfer_BlittableI24GenerateTypeTreeTransferLb1EsEvRK29SerializationCommandArgumentsR31RuntimeSerializationCommandInfo
mlj:__ZN15dense_hashtableINSt3__24pairIK10KeyWrapperIP12Il2CppObjectEN6il2cpp2gc9CachedCCWEEES5_NS7_5utils11PointerHashIS3_EEN14dense_hash_mapIS5_S9_SD_NS5_14EqualsComparerINS0_8equal_toIS4_EEEENS0_9allocatorISA_EEE9SelectKeyESI_SK_E11set_deletedER30dense_hashtable_const_iteratorISA_S5_SD_SM_SI_SK_E
lua:__ZNK9GfxDevice18GetWorldViewMatrixEv
Yje:_List_1_Contains_m3819542652_gshared
uhf:_TlsServerKeyExchange__ctor_m247733406
KDe:_ReadOnlyCollection_1_System_Collections_IList_Add_m3065652010_gshared
Ssj:__ZN6il2cpp6icalls8mscorlib6System7Convert17Base64ToByteArrayEPDsib
lJi:_IndexedSet_1_Clear_m2776064367_gshared
AWg:_GUIUtility_set_systemCopyBuffer_m2040945785
SSh:__Z87RuntimeInvoker_Void_t1841601450_Int32_t2071877448_Single_t2076509932_Single_t2076509932PK10MethodInfoPvPS2_
shb:__ZN39AssetBundleLoadFromStreamAsyncOperationD2Ev
kZg:_Mesh_SetNormals_m3341225499
aWi:__ZNSt3__218__insertion_sort_3IRN6il2cpp5utils11collections13ArrayValueMapIPK10Il2CppType17Il2CppInteropData26InteropDataToTypeConverterNS1_8metadata14Il2CppTypeLessENSA_26Il2CppTypeEqualityComparerEE12SortComparerEPS8_EEvT0_SH_T_
QOc:__ZN2UI39SendIgnoreNextTransformChangedRecursiveEPK9TransformPKNS_6CanvasE
pua:__ZNK9GfxDevice25GetDeviceProjectionMatrixEv
Aqf:_HttpWebRequest__ctor_m1248252412
ma:invoke_iidiii
FKb:__Z18Transfer_BlittableI24GenerateTypeTreeTransferLb1EtEvRK29SerializationCommandArgumentsR31RuntimeSerializationCommandInfo
lDg:_RankException__ctor_m2119191472
$vc:__ZN9rapidjson12PrettyWriterI16TempBufferWriterNS_4UTF8IcEES3_13JSONAllocatorE11WriteIndentEv
A8b:__ZN10systeminfo24GetRuntimePlatformStringEv
Zsc:__ZN9JSONWrite8TransferI13dynamic_arrayI4AABBLj4EEEEvRT_PKc17TransferMetaFlags
DP:__ZN5physx14PxLightCpuTask15removeReferenceEv
Qrf:_SPKey_Equals_m1112627532
XVe:_Stream_Close_m1499612649
$mi:_ArgInfo__ctor_m3787931268
ixi:_X509Chain_Build_m175470596
Yba:__ZN9ShaderLab6TexEnvC2ERKNS_25SerializedTexturePropertyE
M_g:_Object_Instantiate_m2489341053
lfa:__ZN19ShaderPropertySheet38CopyTextureWithAuxiliaryPropertiesFromERKN9ShaderLab16FastPropertyNameERKS_
Shf:_TlsServerCertificate__ctor_m3697944709
a$i:__ZN6il2cpp2vm19SocketPollingThread14DequeueRequestEv
Gqj:__ZL10RevealLinkPv
_1a:__ZNK6Camera26CalculateCullingParametersER17CullingParameters
Fi:___cxa_end_catch
VJg:_MethodBuilder_MakeGenericMethod_m303913412
gEg:_AssemblyName_InternalGetPublicKeyToken_m3706025887
XHj:dynCall_viffffii
_Gd:_ExecuteEvents_Execute_m4235029535
Nqf:_HttpWebRequest_GetObjectData_m1200570677
lSc:__Z43Register_UnityEngine_Canvas_set_scaleFactorv
vUg:_GUIStyle_set_onHover_m3908151335
QCc:_raccess_guess_linux_cap
_Bi:_Vector2_GetHashCode_m2353429373
Clf:_ReceiveRecordAsyncResult_get_AsyncWaitHandle_m1602093076
VQb:__Z19TransferField_ArrayI18StreamedBinaryReadILb0EE27Converter_UnityEngineObjectEvRK23StaticTransferFieldInfoR31RuntimeSerializationCommandInfoRT0_
Ylb:__ZN5Light8TransferI24GenerateTypeTreeTransferEEvRT_
R0:__Z33InitializeBuiltinShaderParamNamesv
V9e:_ActivationContext_System_Runtime_Serialization_ISerializable_GetObjectData_m775951299
g1g:_RectTransform_INTERNAL_get_sizeDelta_m3975625099
Ada:__ZNK16TypeTreeIterator4TypeEv
Zmi:_LeaseManager__ctor_m2166901364
lJa:__ZN10FileSystem25MountDataFolderFileSystemERKN4core12basic_stringIcNS0_20StringStorageDefaultIcEEEES6_
eeg:__ZL67Selectable_t1490392188_CustomAttributesCacheGenerator_m_SpriteStateP21CustomAttributesCache
mj:_glGetUniformLocation
zva:__ZN13GfxDeviceGLES32CreateColorRenderSurfacePlatformEP17RenderSurfaceBase19RenderTextureFormat
LG:__ZN12AudioManager24CreateFMODSoundFromMovieEP9AudioClip
bwc:__ZN9rapidjson6WriterI16TempBufferWriterNS_4UTF8IcEES3_13JSONAllocatorE8WriteIntEi
PXi:__ZN6il2cpp2vm13MetadataCache24GetGenericInstanceMethodEPK10MethodInfoPK20Il2CppGenericContext
L0e:_MSCompatUnicodeTable_get_IsReady_m562849792
Q0e:_SimpleCollator_SetCJKTable_m1356471502
LNb:__Z18Transfer_BlittableI18StreamedBinaryReadILb1EELb0E8Vector2fEvRK29SerializationCommandArgumentsR31RuntimeSerializationCommandInfo
APe:_Int32_System_IConvertible_ToUInt64_m2888588559_AdjustorThunk
BX:__Z24ConvertSeparatorsToUnityPc
ayb:__ZNSt3__213__vector_baseI9InputAxisNS_9allocatorIS1_EEED2Ev
Cej:__ZN6il2cpp2vm6Thread20FreeThreadStaticDataEP12Il2CppThread
QCd:_Exception_get_ClassName_m2189012117
tSe:_IOException__ctor_m613517077
lji:_MarshalDirectiveException__ctor_m3894820706
YIc:_cf2_glyphpath_finalize
Mpd:_Stack__ctor_m521896492
uUa:__Z20LookRotationToMatrixRK8Vector3fS1_P10Matrix3x3f
pei:_AnimatorControllerPlayable_INTERNAL_CALL_GetBoolID_m3610941922
kIj:dynCall_viififi
nAb:__ZNSt3__26vectorIN15ResourceManager10DependencyE13stl_allocatorIS2_L18MemLabelIdentifier51ELi16EEE6assignINS_11__wrap_iterIPS2_EEEENS_9enable_ifIXaasr21__is_forward_iteratorIT_EE5valuesr16is_constructibleIS2_NS_15iterator_traitsISC_E9referenceEEE5valueEvE4typeESC_SC_
VCc:_UNITY_FT_Stream_Free
yxg:_Type_GetTypeFromHandle_m432505302
iFh:__Z111RuntimeInvoker_Void_t1841601450_Il2CppObject_Int32_t2071877448_Il2CppObject_Int32_t2071877448_Int32_t2071877448PK10MethodInfoPvPS2_
pej:__ZN15dense_hashtableINSt3__24pairIK10KeyWrapperINS1_IP11Il2CppClassjEEES4_EES6_N6il2cpp8metadata14ArrayClassHashEN14dense_hash_mapIS6_S4_SB_NS6_14EqualsComparerINSA_17ArrayClassCompareEEENS0_9allocatorIS8_EEE9SelectKeyESF_SH_E12maybe_shrinkEv
Yii:_GCHandle_FreeHandle_m2466807271
YQd:_GraphicRegistry_get_instance_m2112667631
HQ:__ZN11UnityEngine15CloudWebService14DataDispatcher25OnDataBlockConsumedStaticEPv
dHd:_ExecuteEvents_Execute_m2476343313
bJf:__ZL54_MethodInfo_t3642518830_CustomAttributesCacheGeneratorP21CustomAttributesCache
xFh:__Z46RuntimeInvoker_Il2CppObject_Decimal_t724701077PK10MethodInfoPvPS2_
jMd:_CanvasUpdateRegistry_CleanInvalidItems_m1402635291
Sei:_AnimatorControllerPlayable_ResetTrigger_m2216540396
uXi:__ZNK6il2cpp5utils11collections13ArrayValueMapIPK10Il2CppType17Il2CppInteropData26InteropDataToTypeConverterNS_8metadata14Il2CppTypeLessENS8_26Il2CppTypeEqualityComparerEE10find_firstERKS5_
$Pe:_Int64_System_IConvertible_ToByte_m3027162116_AdjustorThunk
yHd:_ExecuteEvents_get_endDragHandler_m56074740
lWd:_InputField_IsValidChar_m3929866302
Ajd:_ArrayList__cctor_m2090802806
aFj:__ZNSt3__212basic_stringIcNS_11char_traitsIcEENS_9allocatorIcEEE6insertEjPKcj
Vqc:__Z44InitializeTransferFunctionScriptingTraitsForI8JSONReadEvR31TransferFunctionScriptingTraits
Q7a:__ZNSt3__26vectorINS_4pairIN4core12basic_stringIcNS2_20StringStorageDefaultIcEEEES6_EE13stl_allocatorIS7_L18MemLabelIdentifier37ELi16EEE6insertENS_11__wrap_iterIPKS7_EERSD_
Ksa:__ZNSt3__27__sort4IRNS_4lessIN22BuiltinResourceManager8ResourceEEEPS3_EEjT0_S7_S7_S7_T_
hHd:_ExecuteEvents_Execute_m171612015
pca:__ZN15dense_hashtableINSt3__24pairIKPK17RenderSurfaceBaseP13RenderTextureEES4_19PointerHashFunctionIS4_EN14dense_hash_mapIS4_S7_SA_NS0_8equal_toIS4_EE13stl_allocatorIS8_L18MemLabelIdentifier65ELi16EEE9SelectKeyESD_SG_E12resize_deltaEjj
sBa:__ZN4crnd12crn_unpacker11unpack_dxt5EPPhjjjjjj
lAg:_UInt32_System_IConvertible_ToUInt64_m4083788326_AdjustorThunk
w5f:__ZL99GUIStyle_t1799908754_CustomAttributesCacheGenerator_GUIStyle_t1799908754____clipOffset_PropertyInfoP21CustomAttributesCache
NLc:_UNITY_tt_face_get_location
oqg:_DESTransform_Permutation_m4174035780
BSe:_Path_IsDsc_m1314465747
FTe:_MonoIO_Seek_m3461199288
zRb:__Z29Transfer_Blittable_ArrayFieldI18StreamedBinaryReadILb0EE4AABBEvRT_R9ArrayInfoRK23StaticTransferFieldInfo
q4a:__ZN10GameObject34AddFirstTransformComponentInternalEP9Transform
Tcc:__Z31Cursor_Get_Custom_PropLockStatev
g1:__ZNSt3__26__treeINS_12__value_typeINS_4pairIPcS3_EENS_3setIS3_15compare_tstringIPKcENS_9allocatorIS3_EEEEEENS_19__map_value_compareIS4_SD_20smaller_tstring_pairIS8_ELb1EEENSA_ISD_EEE7destroyEPNS_11__tree_nodeISD_PvEE
mOc:__ZNK2UI14CanvasRenderer26GetTypeInfoVirtualInternalEv
rNi:__ZN15dense_hashtableINSt3__24pairIK10KeyWrapperIPK22Il2CppGenericParameterEP11Il2CppClassEES6_N6il2cpp5utils11PointerHashIS4_EEN14dense_hash_mapIS6_S9_SE_NS6_14EqualsComparerINS0_8equal_toIS5_EEEENS0_9allocatorISA_EEE9SelectKeyESJ_SL_E15insert_noresizeERKSA_
Udc:__Z52Register_UnityEngine_GameObject_GetComponentInParentv
Vyb:__ZN15SerializeTraitsINSt3__24pairIPKN5Unity4TypeE7Hash128EEE8TransferI14SafeBinaryReadEEvRS7_RT_
Kqc:__ZN9rapidjson13GenericReaderINS_4UTF8IcEES2_13JSONAllocatorE10ParseArrayILj1ENS_25GenericInsituStringStreamIS2_EENS_15GenericDocumentIS2_S3_S3_EEEEvRT0_RT1_
W0a:__Z37GenerateCombinedDynamicVisibleListJobP11CullResults
JY:__GLOBAL__sub_I_runtime_graphics_billboard_lump_cpp
fW:__ZNK13ScreenManager21GetCursorInsideWindowEv
dqj:__ZN6il2cpp2vmL22RaiseOverflowExceptionEv
p3d:_Array_InternalArray__ICollection_Add_TisSByte_t454417549_m46595441_gshared
Doi:_Match_get_Empty_m3581361913
VZa:__Z20IntersectAABBFrustumRK4AABBPK5Planej
P9c:_String_Concat_m626692867
B3b:__ZN13RenderManager15InitializeClassEv
aIb:__ZN15SerializeTraitsI12PropertyNameE8TransferI14SafeBinaryReadEEvRS0_RT_
TT:__ZNSt3__23mapIN19CloudServiceHandler11ServiceTypeEPS1_NS_4lessIS2_EE13stl_allocatorINS_4pairIKS2_S3_EEL18MemLabelIdentifier85ELi16EEEixERS8_
xzi:_TextGenerationSettings_CompareVector2_m592645251_AdjustorThunk
CT:__ZN11UnityEngine15CloudWebService17WebFileDownloaderINS0_13WWWRestClientENS0_16WWWRestHeaderMapEED0Ev
Msc:__ZN9JSONWrite8TransferI11ColorRGBA32EEvRT_PKc17TransferMetaFlags
Vuc:__Z22TransferField_NonArrayI8JSONRead27Converter_SimpleNativeClassI8GradientEEvRK23StaticTransferFieldInfoR31RuntimeSerializationCommandInfoRT0_
yFe:_ReadOnlyCollection_1_System_Collections_IList_RemoveAt_m2372993063_gshared
$Ca:__ZNSt3__26vectorI15ComputeShaderCBNS_9allocatorIS1_EEE21__push_back_slow_pathIKS1_EEvRT_
SCb:__ZN10MonoScript13AwakeFromLoadE17AwakeFromLoadMode
I_b:__ZN13ProduceHelperI11MonoManagerLb0EE7ProduceE18MemLabelIdentifier18ObjectCreationMode
hFa:__ZNK18GfxFramebufferGLES15DiscardContentsER12ObjectHandleI17RenderSurface_TagP17RenderSurfaceBaseE
Xqf:_IPv6Address_Fill_m1824197512
Src:__Z18Transfer_BlittableI9JSONWriteLb1EdEvRK29SerializationCommandArgumentsR31RuntimeSerializationCommandInfo
pMj:_glGetIntegerv__wrapper
KJe:_NumberFormatter_ResetCharBuf_m3823516989
H:Math_pow
A4a:__ZN10GameObject28FinalizeAddComponentInternalEPN5Unity9ComponentE
GE:__Z64AnimatorControllerPlayable_CUSTOM_INTERNAL_CALL_SetTriggerStringR9HPlayableP12Il2CppString
WUg:_GUIStyle_Internal_Draw_m3610093213
Wyi:_StackTraceUtility_IsSystemStacktraceType_m506502194
hqb:__ZN9Texture2DD2Ev
EY:__GLOBAL__sub_I_runtime_geometry_lump_cpp
Vjd:_ArrayList_Remove_m3941780739
m$i:__ZN6il2cpp2vm21ThreadPoolCompartment12DetachThreadEP12Il2CppThread
UFg:_ConstructorBuilder_not_created_m2150488017
I9h:_Color_op_Multiply_m325555950
QD:__ZNSt3__26vectorIiNS_9allocatorIiEEE6insertENS_11__wrap_iterIPKiEERS5_
lui:_Uri_AppendQueryAndFragment_m2358658590
SYg:_Mesh_GetIndicesImpl_m2398977086
yq:__ZN13dynamic_arrayIhLj1EE18resize_initializedEjRKh12ResizePolicy
Bci:_InvokableCallList_AddListener_m786891050
cra:__ZN17PersistentManager27GetLoadErrorMessageFromPathERKN4core12basic_stringIcNS0_20StringStorageDefaultIcEEEE
Fbd:_DecoderReplacementFallbackBuffer_Fallback_m1790184670
Zl:_glGenRenderbuffers
Thj:__ZN6il2cpp6icalls8mscorlib6System2IO6MonoIO19GetCurrentDirectoryEPi
W9c:_String_GetHashCode_m931956593
izb:__ZN14PlayerSettings23VirtualRedirectTransferER17RemapPPtrTransfer
Oeb:__ZN14CachingManager7DisposeEv
PM:__ZN12AudioManager31GetCurrentSpatializerDefinitionEv
Swb:__ZN12MeshRenderer16UpdateCachedMeshEv
IHb:__Z19TransferField_ArrayI14SafeBinaryRead27Converter_SimpleNativeClassI8GradientEEvRK23StaticTransferFieldInfoR31RuntimeSerializationCommandInfoRT0_
Yu:__ZNK27StateMachineBehaviourPlayer25FireStateMachineBehaviourEiiN7mecanim12statemachine19StateMachineMessageE
t6g:_ScrollRectEvent__ctor_m2283981448
oee:_Enumerator_VerifyState_m3913376581_AdjustorThunk
lpf:_NameObjectCollectionBase_System_Collections_ICollection_CopyTo_m810189168
P3a:__ZN6Camera15SetOrthographicEb
CEc:_UNITY_FT_Stream_GetUShort
vua:__ZN13GfxDeviceGLES14DisableScissorEv
lIf:__ZL71ReliabilityContractAttribute_t1625655220_CustomAttributesCacheGeneratorP21CustomAttributesCache
vud:_Decimal_op_Explicit_m1986696267
rih:_Dictionary_2_System_Collections_ICollection_CopyTo_m3578539931_gshared
QDg:_Assembly_GetModules_m2242070953
jKe:_NumberFormatter_AppendDecimalString_m3532330813
Ec:_glVertexAttrib4f
lGg:_ILGenerator__ctor_m3365621387
ACd:_Environment_GetFolderPath_m1849163024
ana:__ZN13LoadOperationC2Ev
X3e:_ASN1_Add_m2540239672
d_d:_Array_InternalArray__ICollection_Remove_TisInt16_t4041245914_m3380378727_gshared
_Sc:__ZN21UnityAnalyticsManagerD0Ev
Gki:_SinkProviderData__ctor_m1828480392
wJd:_RaycastResult_ToString_m2233441736_AdjustorThunk
_Xg:_Mathf_Sin_m831310046
tvj:_GC_set_hdr_marks
JRa:__Z17SetupObjectMatrixRK10Matrix4x4fi
U6c:_SecurityFrame_ToString_m1282306399
M1e:_SimpleCollator_MatchesBackwardCore_m1884994267
Gwg:_TimeSpan_From_m1249538749
g1e:_SimpleCollator_GetSortKey_m1317491197
ljc:__Z43Object_CUSTOM_DoesObjectWithInstanceIDExisti
d1:__ZN13RuntimeStaticINSt3__23mapINS0_4pairIPcS3_EEPFbPvR14SafeBinaryReadE20smaller_tstring_pairIPKcENS0_9allocatorINS2_IKS4_S9_EEEEEELb0EE13StaticDestroyES5_
aNg:_MonoEvent_GetCustomAttributes_m3899596098
YZc:__GLOBAL__sub_I_VRGfxHelpers_cpp
Vtd:_Convert_ToSByte_m3295168715
jx:__ZN7mecanim9animation16CreateClipMemoryEPKNS0_4ClipEiRNS_6memory9AllocatorE
sAc:_open_face
B1b:__ZZL31RegisterOtherRendererPropertiesR22GenericPropertyBindingEN30Wrapper_RendererReceiveShadows13SetFloatValueEPvf
IQc:__Z17RegisterModule_UIv
rTh:__Z116RuntimeInvoker_Void_t1841601450_PlayableHandleU26_t3483893774_Int32_t2071877448_Single_t2076509932_Int32_t2071877448PK10MethodInfoPvPS2_
nYe:_UnmanagedMemoryStream_Flush_m3305300000
xvj:_GC_printf
$7h:_Camera_FireOnPreRender_m24116662
Nyg:_TypeLoadException_GetObjectData_m2885802706
fva:__ZN9GfxDevice24CreateRenderDepthSurfaceE9TextureIDiiii16TextureDimension17DepthBufferFormat18SurfaceCreateFlags
Omg:_ObjectManager_DoFixups_m835924385
jkg:_RemotingServices_CreateWellKnownServerIdentity_m3390048085
hM:__ZN11AudioSource16UpdateParametersE12SoundChannel
DG:__ZN4FMOD5Sound11setUserDataEPv
vSb:__ZN14SafeBinaryRead21TransferSTLStyleArrayINSt3__26vectorIN9ShaderLab19SerializedSubShaderENS1_9allocatorIS4_EEEEEEvRT_17TransferMetaFlags
Ycf:_ARC4Managed_KeySetup_m73384687
ZKa:__ZNK25SingleBlockMemoryFileData4SizeEv
mhb:__ZNK23ArchiveStorageConverter26GetUncompressedArchiveSizeEv
Hwd:_DateTime_Equals_m2562884703
at:__ZN9BlobWrite8TransferIN7mecanim12statemachine18StateMachineMemoryEEEvRT_PKc17TransferMetaFlags
PQa:_UNITY_png_zfree
qK:__ZL50UnityAudioEffect_InternalSetFloatParameterCallbackP14FMOD_DSP_STATEif
Lkj:__ZNK15dense_hashtableINSt3__24pairIK10KeyWrapperIP12Il2CppObjectEN6il2cpp2gc9CachedCCWEEES5_NS7_5utils11PointerHashIS3_EEN14dense_hash_mapIS5_S9_SD_NS5_14EqualsComparerINS0_8equal_toIS4_EEEENS0_9allocatorISA_EEE9SelectKeyESI_SK_E3endEv
fcb:__ZN17LowLevelAllocator4FreeEPvj
Cod:_KeyMarker__cctor_m2057880225
WMi:__ZN15dense_hashtableINSt3__24pairIK10KeyWrapperIPK22Il2CppGenericParameterEP11Il2CppClassEES6_N6il2cpp5utils11PointerHashIS4_EEN14dense_hash_mapIS6_S9_SE_NS6_14EqualsComparerINS0_8equal_toIS5_EEEENS0_9allocatorISA_EEE9SelectKeyESJ_SL_E9copy_fromERKSO_j
PMe:_TextInfo_get_ListSeparator_m3426465394
mUe:_FileStream_BeginWrite_m3895959548
Zif:_Context_set_RecordProtocol_m1968834768
qZ:__ZL19StaticCleanupPlayerPv
kvf:_X509Certificate2Enumerator_MoveNext_m1861665712
_4b:__ZN13PlayableGraph4StopEv
A9:__ZN15dense_hashtableINSt3__24pairIKN4core12basic_stringIcNS2_20StringStorageDefaultIcEEEEP11AssetBundleEES6_20StringHash32FunctionIS6_EN14dense_hash_mapIS6_S9_SC_NS0_8equal_toIS6_EENS0_9allocatorISA_EEE9SelectKeyESF_SH_ED2Ev
tug:_Monitor_Monitor_wait_m3813798368
rbd:_DecoderExceptionFallbackBuffer_Fallback_m3457210607
cZd:_Array_InternalArray__ICollection_Contains_TisDouble_t4078015681_m2262383923_gshared
wcb:__ZN9Behaviour10DeactivateE19DeactivateOperation
nbi:_Display_get_renderingWidth_m2127568366
dye:_Collection_1_System_Collections_IList_get_Item_m2836259259_gshared
bbi:_Debug_LogWarning_m2503577968
Npa:__ZN13StreamingInfo8TransferI14SafeBinaryReadEEvRT_
USb:__ZN15dense_hashtableINSt3__24pairIKiN4core17string_with_labelILi1EEEEEi18SInt32HashFunctionN14dense_hash_mapIiS5_S7_NS0_8equal_toIiEE13stl_allocatorIS6_L18MemLabelIdentifier1ELi16EEE9SelectKeyESA_SD_E15insert_noresizeERKS6_
MAb:__ZN14SafeBinaryRead21TransferSTLStyleArrayINSt3__26vectorIN4core12basic_stringIcNS3_20StringStorageDefaultIcEEEE13stl_allocatorIS7_L18MemLabelIdentifier12ELi16EEEEEEvRT_17TransferMetaFlags
DJh:__Z87RuntimeInvoker_Boolean_t3825574718_IntPtr_t_Int64_t909078037_MonoIOErrorU26_t1029615899PK10MethodInfoPvPS2_
mxc:__GLOBAL__sub_I_runtime_dynamics_lump_cpp
gD:__Z23CalculateGlobalRotation23TransformAccessReadOnly
ovf:_X509Store_Close_m2412711366
lbe:_AttributeHelperEngine_GetCustomAttributeOfType_TisIl2CppObject_m581732473_gshared
eSg:_GUILayoutGroup_ResetCursor_m3160916532
y1b:__Z43InitializeRendererAnimationBindingInterfacev
v5:__ZL26DestroyGameObjectRecursiveR10GameObjectR11BatchDelete
h3g:_CullStateChangedEvent__ctor_m4025397477
Kvj:_GC_allochblk_nth
yug:_Mutex_ReleaseMutex_m2143813124
cAg:_UInt32_System_IConvertible_ToSByte_m604037412_AdjustorThunk
N0b:__Z7HaloTexP9Texture2DPhiiii
YIj:dynCall_i
T3d:_Array_InternalArray__ICollection_CopyTo_TisKeyValuePair_2_t3749587448_m2750720485_gshared
gO:__ZN17AudioCustomFilter4InitEv
iwi:_X509Certificate__cctor_m2984068893
qIb:__ZN14SafeBinaryRead21TransferSTLStyleArrayI13dynamic_arrayIxLj8EEEEvRT_17TransferMetaFlags
iIj:dynCall_f
BHj:dynCall_v
PVe:_Path__cctor_m3685888661
myd:_Decimal_System_IConvertible_ToDateTime_m4247760250_AdjustorThunk
r4e:_BitConverterLE_ULongFromBytes_m2583105400
Oab:__ZNSt3__26__treeINS_12__value_typeIN4core12basic_stringIcNS2_20StringStorageDefaultIcEEEEPN16MemoryFileSystem4NodeEEENS_19__map_value_compareIS6_SA_NS_4lessIS6_EELb1EEE13stl_allocatorISA_L18MemLabelIdentifier54ELi16EEE7destroyEPNS_11__tree_nodeISA_PvEE
ihh:_Dictionary_2_ToTKey_m965425080_gshared
ajb:__ZN6Camera23VirtualRedirectTransferER14SafeBinaryRead
Gje:_List_1_System_Collections_IList_Insert_m2838947798_gshared
kAj:__ZNSt3__26vectorINS_12basic_stringIDsNS_11char_traitsIDsEENS_9allocatorIDsEEEENS4_IS6_EEE8__appendEj
Fwg:_TimeSpan_FromDays_m2859053398
WVc:__ZN11UnityEngine7Connect13ConnectConfig11ConfigValueD2Ev
oya:__ZNSt3__26__treeINS_12__value_typeIjP14DataBufferGLESEENS_19__map_value_compareIjS4_NS_4lessIjEELb1EEENS_9allocatorIS4_EEE7destroyEPNS_11__tree_nodeIS4_PvEE
d5b:__ZN13PlayableGraph15SetPrepareStageE13DirectorStage
yb:invoke_viiiiiiii
TYe:_MissingMemberException__ctor_m2869542203
aOh:__Z61RuntimeInvoker_Boolean_t3825574718_DateTimeOffset_t1362988906PK10MethodInfoPvPS2_
rGi:_CachedInvokableCall_1__ctor_m3238306320_gshared
t1a:__ZNK6Camera16GetCullingMatrixEv
m1d:_Array_IndexOf_TisIl2CppObject_m1815604637_gshared
Ipe:_List_1_Find_m160737912_gshared
Kti:_Uri_EnsureAbsoluteUri_m1892758054
Cqb:__ZN16LightmapSettings5ResetEv
WJa:__ZN12FileAccessor4ReadEyPvPy
fnc:__Z42Register_UnityEngine_Event_get_commandNamev
IOa:__Z12IsFirstFramev
yjd:_ArrayList_ThrowNewArgumentOutOfRangeException_m3795973535
cqi:_Regex_Init_m1873144192
v4e:_BitConverterLE_ToDouble_m516016818
EX:__ZNK15FileSystemEntry6ExistsEv
uxb:__ZNK9Transform21GetLocalToWorldMatrixER10Matrix4x4f
Cz:__ZN26AnimatorControllerPlayable12ResetTriggerEi
wH:__ZN13AudioListener23VirtualRedirectTransferER19StreamedBinaryWriteILb0EE
Sva:__ZN13GfxDeviceGLES11CopyTextureE9TextureIDS0_
lbc:__Z72Register_UnityEngine_AssetBundleCreateRequest_DisableCompatibilityChecksv
zLj:_emscripten_glViewport__wrapper
vli:_Context__cctor_m3895126354
NKc:_tt_size_select
ZQ:__ZN11UnityEngine15CloudWebService17SessionEventQueue15RestoreFromFileER12FileAccessorPvy
$yb:__ZN14PlayerSettingsD2Ev
MTe:_FileStream_get_Length_m2265080501
Vxg:_Type_type_is_assignable_from_m1620694099
yuj:_GC_reclaim_all
MZ:__ZN13PlayableGraph14DestroyOutputsEv
umi:_ContextAttribute_GetPropertiesForNewContext_m4007241045
mf:___syscall122
Nbf:_Kernel_Subtract_m2224959291
Xhi:_ResourceSet__ctor_m2566914412
Rcf:_ASN1Convert_ToDateTime_m2305963290
n3c:_SymmetricAlgorithm_Finalize_m1665128997
Xaf:_BigInteger__ctor_m2991182310
q5h:_AnimatorStateInfo_IsName_m4069203550
vcc:__Z52Register_UnityEngine_Camera_INTERNAL_CALL_RaycastTryv
O7a:__ZN13sorted_vectorINSt3__24pairIN4core12basic_stringIcNS2_20StringStorageDefaultIcEEEES6_EEN10vector_mapIS6_S6_27compare_tstring_insensitiveIS6_E13stl_allocatorIS7_L18MemLabelIdentifier37ELi16EEE13value_compareESD_E10insert_oneERKS7_
SDj:_mkdir
_qd:_Convert_ToByte_m791636053
_yh:_InternalEnumerator_1_get_Current_m2986222582_AdjustorThunk
g8a:__ZNSt3__26__treeIN4core12basic_stringIcNS1_20StringStorageDefaultIcEEEENS_4lessIS5_EE13stl_allocatorIS5_L18MemLabelIdentifier37ELi16EEE7destroyEPNS_11__tree_nodeIS5_PvEE
BIj:dynCall_iifi
Q9b:__ZN18ScriptingArguments13CopyFromOtherERKS_
eYg:_Mathf_Ceil_m3621406599
VGc:_ps_hints_close
L3b:__Z16CreateRenderLoopR6Camera
xV:_tlsf_create
cAh:_DefaultComparer_Compare_m4039941311_gshared
reh:_Enumerator_MoveNext_m2534596951_AdjustorThunk
EDb:__ZN13MonoBehaviour23VirtualRedirectTransferER18StreamedBinaryReadILb0EE
ZTb:__ZN9ShaderLab20SerializedSubProgramC2ERKS0_
aQj:_emscripten_glCompileShader__wrapper
z2c:_SHA256Managed_ProcessBlock_m1064908669
LT:__ZN11UnityEngine15CloudWebService17WebFileDownloaderINS0_13WWWRestClientENS0_16WWWRestHeaderMapEE24ExtractResponseEtagValueEv
UFj:__ZNK10__cxxabiv121__vmi_class_type_info27has_unambiguous_public_baseEPNS_19__dynamic_cast_infoEPvi
Vud:_Convert_ToUInt64_m2215781574
Dwi:_X509Certificate_VerifySignature_m4020723406
Kyg:_TypeInitializationException_GetObjectData_m2244451030
aEd:_CompareInfo_LastIndexOf_m2978196696
R4e:_DSAManaged_Generate_m3166917081
qCh:_Enumerator_VerifyCurrent_m3330382363_AdjustorThunk
beh:_Enumerator_System_Collections_IEnumerator_Reset_m2909592833_AdjustorThunk
ol:_emscripten_glGetActiveUniform
BXa:__Z20RenderFullScreenQuadR9GfxDeviceRK6Camera17ShaderChannelMaskRK5RectTIfEf21MonoOrStereoscopicEye
YAe:_ReadOnlyCollection_1_System_Collections_IList_Contains_m2320811592_gshared
Cea:__ZN16RenderTextureMap5QueryEPK17RenderSurfaceBase
Glb:__ZN5Light17MainThreadCleanupEv
$Xe:_UnexceptionalStreamWriter_Write_m186237617
h7g:_ScrollRect_UpdateScrollbars_m3921404746
dPj:_emscripten_glUniform4iv__wrapper
Bgd:_Boolean_CompareTo_m1086129598_AdjustorThunk
M1b:__ZN8Material8GetFloatEN9ShaderLab16FastPropertyNameE
rCc:_psnames_module_class_pic_free
hlc:__Z11GetGUIStatev
lg:_pthread_key_create
Njd:_ArrayList_Clear_m3834604134
sg:_emscripten_glGetObjectParameterivARB
$ga:__ZN15SerializeTraitsI10ColorRGBAfE8TransferI14SafeBinaryReadEEvRS0_RT_
QYi:__ZN6il2cpp2vm13MetadataCache27GetEventDefinitionFromIndexEi
E6:__ZN22BuiltinResourceManager13StaticDestroyEPv
s7d:_Array_Resize_TisCustomAttributeTypedArgument_t1498197914_m3055365808_gshared
o5:__ZN10GameObject17GetComponentIndexEPN5Unity9ComponentE
Ctb:__ZN14SafeBinaryRead21TransferSTLStyleArrayI13dynamic_arrayI7SubMeshLj4EEEEvRT_17TransferMetaFlags
H7c:_Single_IsNegativeInfinity_m2615809279
XPe:_Int32_GetTypeCode_m3811463295_AdjustorThunk
Tgf:_CipherSuiteFactory_GetSsl3SupportedCiphers_m2476597368
t5e:_KeyPairPersistence_IsUserProtected_m37342608
zBc:__ZNK13TextRendering4Font11GetMaterialEv
qMc:_UNITY_tt_face_vary_cvt
MMh:__Z52RuntimeInvoker_Double_t4078015681_Double_t4078015681PK10MethodInfoPvPS2_
tlc:__Z28DidLoadAllAssembliesCallbackv
s7a:__ZN35RegisterRuntimeInitializeAndCleanup22ExecuteInitializationsEv
Owj:_GC_set_no_dls
lF:__Z97Register_UnityEngine_Experimental_Director_AnimatorControllerPlayable_INTERNAL_CALL_SetBoolStringv
dma:__ZN23PreloadManagerOperation14SetFinalTimingEffff
i:DYNAMICTOP_PTR
pPd:_Dropdown_SetupTemplate_m1416189897
dSa:__Z11CopyTextureP7TextureiiS0_ii
Xyb:__ZN13BuildSettings8TransferI18StreamedBinaryReadILb0EEEEvRT_
n4g:_PositionAsUV1__ctor_m412270210
GZb:__ZN10GameObject15InitializeClassEv
Eng:_SerializationInfo_GetInt16_m3549836657
kec:__Z38Renderer_Get_Custom_PropSortingLayerIDP12Il2CppObject
Eeg:__ZL90StencilMaterial_t1630303189_CustomAttributesCacheGenerator_StencilMaterial_Add_m1745413071P21CustomAttributesCache
jBd:_Double_Equals_m920556135_AdjustorThunk
uza:__Z29TextureIdMapGLES_QueryOrAlloc9TextureID
Off:_CipherSuite_get_ExpandedKeyMaterialSize_m296573450
_pd:_Stack_Push_m284336154
IUd:_InputField_set_caretBlinkRate_m3521089516
swd:_DateTime_Add_m4237489122
VJi:__ZL11decimalLog2P19il2cpp_decimal_repr
hAb:__ZN15ResourceManager10Dependency8TransferI14SafeBinaryReadEEvRT_
BU:__ZN3WWWD2Ev
auj:_GC_extend_size_map
hBh:_Comparer_1_System_Collections_IComparer_Compare_m637596782_gshared
IK:__ZN4FMOD6System9setDriverEi
ikj:__ZN6il2cpp8metadataL24RecursiveGenericDepthForEPK17Il2CppGenericInst
R3b:__ZNK9Transform11GetRotationEv
buf:_X509Certificate2_Find_m833446211
sO:__ZN12AudioManager15DidReloadDomainEv
sHc:_pshinter_get_globals_funcs
aLb:__Z18Transfer_BlittableI24GenerateTypeTreeTransferLb0EyEvRK29SerializationCommandArgumentsR31RuntimeSerializationCommandInfo
wba:__ZN8Material14CreateMaterialER6ShaderN6Object9HideFlagsEb
C5e:_KeyPairPersistence_FromXml_m2310151202
Abc:__Z60Register_UnityEngine_AsyncOperation_get_allowSceneActivationv
Rxd:_DBNull_System_IConvertible_ToUInt64_m2919804476
aEj:_fread
Naj:__ZN15dense_hashtableINSt3__24pairIK10KeyWrapperIPK14Il2CppAssemblyEPK16MonoAssemblyNameEES6_N6il2cpp5utils11PointerHashIS4_EEN14dense_hash_mapIS6_SA_SF_NS6_14EqualsComparerINS0_8equal_toIS5_EEEENS0_9allocatorISB_EEE9SelectKeyESK_SM_E15set_deleted_keyERKSB_
boc:__Z31GUIStyle_CUSTOM_GetFontInternalP12Il2CppObject
dGc:_tt_cmap12_char_map_binary
vLd:_Button_OnPointerClick_m2524861687
zba:__Z25GetBuiltinResourceManagerv
Yvh:_InternalEnumerator_1_System_Collections_IEnumerator_get_Current_m439366097_AdjustorThunk
tkj:__ZN6il2cpp2gc8GCHandle15GetTargetHandleEP12Il2CppObjectii
Jh:_llvm_trap
W0:__ZNSt3__27__sort5IRNS_6__lessIN12_GLOBAL__N_114ParamNameIndexES3_EEPS3_EEjT0_S7_S7_S7_S7_T_
lSe:_Directory_CreateDirectory_m3561886598
xuj:_get_index
FM:__ZN11AudioSource7SetMuteEb
dif:_ClientSessionInfo_get_Valid_m3589823308
B6e:_PKCS1_Sign_v15_m2137018891
R6b:__ZN17CollisionMeshData20VertexDataHasChangedEv
vva:__ZN13GfxDeviceGLES30SetBackBufferColorDepthSurfaceEP17RenderSurfaceBaseS1_
drg:_Latin1Encoding_GetBytes_m1067304501
Npc:__Z52Register_UnityEngine_GUIUtility_get_systemCopyBufferv
y5b:__ZN16StreamedResource8TransferI18StreamedBinaryReadILb0EEEEvRT_
Yec:__Z49Register_UnityEngine_Input_get_imeCompositionModev
TSb:__ZN15dense_hashtableINSt3__24pairIKiN4core17string_with_labelILi1EEEEEi18SInt32HashFunctionN14dense_hash_mapIiS5_S7_NS0_8equal_toIiEE13stl_allocatorIS6_L18MemLabelIdentifier1ELi16EEE9SelectKeyESA_SD_E12resize_deltaEjj
g2a:__ZNK20OcclusionCullingData22GetStaticRendererCountEv
pEc:_UNITY_tt_face_free_ps_names
UXa:__ZNK6Camera17GetSkyboxMaterialEv
mQj:_emscripten_glDisableVertexAttribArray__wrapper
Ksh:_InternalEnumerator_1_get_Current_m3259181373_AdjustorThunk
GBc:__ZZ29InitializeTextRenderingModulevEN16cleanupAfterLoad7ForwardEv
vBc:__ZNSt3__26vectorIN20TextRenderingPrivate8FontImpl13CharacterInfoE13stl_allocatorIS3_L18MemLabelIdentifier34ELi16EEE6insertENS_11__wrap_iterIPKS3_EERS9_
gbe:_Array_InternalArray__get_Item_TisUILineInfo_t3621277874_m1432166059_gshared
Uwb:__ZN12MeshRenderer18CalculateLocalAABBER4AABBRKS_RK4Mesh
Dvi:_X509CertificateCollection_GetEnumerator_m3994741635
INe:_Guid_ToString_m3927110175
$bb:__ZN21UnityDefaultAllocatorI17LowLevelAllocatorE8AllocateEji
srf:_IPv6Address_AsIPv4Int_m3565745471
RRh:__Z88RuntimeInvoker_Void_t1841601450_Single_t2076509932_Single_t2076509932_Single_t2076509932PK10MethodInfoPvPS2_
OPc:__ZL28InitializeUIScriptingClassesv
jbc:__Z43AssetBundleRequest_Get_Custom_PropAllAssetsP12Il2CppObject
Lla:__ZN10UnityScene10ClearRootsEv
KLa:__ZN12HandlerChain10AtomicMoveER13FileEntryDataS1_
U_d:_SetPropertyUtility_SetStruct_TisBoolean_t3825574718_m752301298_gshared
MJg:_MethodBuilder_GetCustomAttributes_m923430117
l0:__ZN20SpeedTreeWindManager6UpdateEf
_Ha:__ZN9GfxDevice19CreateSparseTextureE9TextureIDii13TextureFormati17TextureColorSpace
Msi:_Literal_GetWidth_m1285678191
qsd:_Decimal_ThrowAtPos_m3318712794
b7e:_RSAManaged_GetPaddedValue_m4394397
qA:__ZN7mecanim9animation20CreateAvatarConstantEPNS_8skeleton8SkeletonEPNS1_13SkeletonPoseTIN4math4trsXEEES8_PNS_5human5HumanES3_iRKS6_RNS_6memory9AllocatorE
ZXe:_UnexceptionalStreamWriter__ctor_m2209699189
Ule:_List_1_Find_m970100220_gshared
eBi:_Transform_INTERNAL_get_rotation_m2427701365
L_d:_Array_InternalArray__ICollection_Remove_TisVector2_t2243707579_m3881494282_gshared
nwb:__ZN14CompressedMesh8TransferI19StreamedBinaryWriteILb0EEEEvRT_
$Dg:_AssemblyFileVersionAttribute__ctor_m2026149866
hbc:__Z58AssetBundleCreateRequest_CUSTOM_DisableCompatibilityChecksP12Il2CppObject
H4d:_Array_InternalArray__ICollection_CopyTo_TisUILineInfo_t3621277874_m2142954044_gshared
hKg:_TypeBuilder_SetParent_m387557893
NJh:__Z101RuntimeInvoker_Void_t1841601450_Il2CppObject_Il2CppObject_Int32_t2071877448_Il2CppObject_Il2CppObjectPK10MethodInfoPvPS2_
Egf:_CipherSuiteCollection_cultureAwareCompare_m1825407448
CJe:_DateTimeFormatInfo_GetEraName_m1437894363
j5d:_Array_InternalArray__Insert_TisLabelFixup_t4090909514_m3927736182_gshared
Awf:_X509KeyUsageExtension_Encode_m3100824560
njh:_DefaultComparer_GetHashCode_m1728348656_gshared
_Vd:_InputField_MouseDragOutsideRect_m3758282095
g4g:_Outline_ModifyMesh_m3796381413
gyc:__ZN13TextRendering4Font23VirtualRedirectTransferER24GenerateTypeTreeTransfer
BWi:__ZN15dense_hashtableINSt3__24pairIK10KeyWrapperI13dynamic_arrayIPK10Il2CppTypeLj4EEEPFvvEEES8_N6il2cpp8metadata19Il2CppSignatureHashEN14dense_hash_mapIS8_SB_SF_NS8_14EqualsComparerINSE_22Il2CppSignatureCompareEEENS0_9allocatorISC_EEE9SelectKeyESJ_SL_E15destroy_bucketsEjj
Gxf:_Interpreter_PopulateGroup_m4098755954
vef:_PrivateKeyInfo_DecodeRSA_m919734506
efc:__ZNSt3__27__sort4IRNS_6__lessI11KeyframeTplIfES3_EEPS3_EEjT0_S7_S7_S7_T_
Sab:__ZL16MouseMoveHandleriPK20EmscriptenMouseEventPv
bNe:_GuidParser_Reset_m3389485794
gP:__ZN11AudioSource15InitializeClassEv
_yi:_StateMachineBehaviour__ctor_m153194
cre:_Enumerator_System_Collections_IEnumerator_get_Current_m1270503615_gshared
rSg:_GUILayoutGroup_CalcHeight_m1454440153
ash:_InternalEnumerator_1_System_Collections_IEnumerator_get_Current_m3315293493_gshared
CUa:__ZN11HaloManager17RenderGeometryJobEP25DynamicVBOGeometryJobDataj
LQe:_Int64_Parse_m4214159959
Quh:_InternalEnumerator_1_System_Collections_IEnumerator_get_Current_m4023948615_gshared
qC:__ZNSt3__227__insertion_sort_incompleteIRPFbN7mecanim9animation13MuscleIndexIdES3_EPS3_EEbT0_S8_T_
lFd:_BaseInput_get_mousePresent_m3571192771
yQj:_emscripten_glBlendEquation__wrapper
Kdj:__ZN15dense_hashtableINSt3__24pairIK10KeyWrapperIP11Il2CppClassES4_EES5_N6il2cpp8metadata16SZArrayClassHashEN14dense_hash_mapIS5_S4_SA_NS5_14EqualsComparerINS9_19SZArrayClassCompareEEENS0_9allocatorIS7_EEE9SelectKeyESE_SG_E13set_empty_keyERKS7_
NEj:__ZNSt3__212basic_stringIcNS_11char_traitsIcEENS_9allocatorIcEEE6__initEPKcj
Nj:_emscripten_set_fullscreenchange_callback
m6e:_KeyPairPersistence__IsUserProtected_m3417764903
bxf:_CategoryUtils_CategoryFromName_m226887453
pzd:_Decimal_op_Division_m1099836590
mT:__ZN11UnityEngine15CloudWebService14DataDispatcher22ResetNetworkRetryIndexEv
sYg:_Matrix4x4_get_Item_m3317262185
Sj:_emscripten_glDrawArrays
MS:__ZN11UnityEngine15CloudWebService19SessionEventManagerC2Ev
eTe:_File_Open_m1543461971
GSa:__ZNK22RenderingCommandBuffer10FindTempRTERKN9ShaderLab16FastPropertyNameE
Zni:_LogicalCallContext_GetObjectData_m104142736
iod:_Hashtable_KeyEquals_m1433874944
psg:_UnicodeEncoding_Equals_m4105324537
Zpi:_QuickSearch_GetShiftDistance_m2364008966
IAi:_TouchScreenKeyboard_get_text_m538529702
WZc:__ZN13RuntimeStaticI14dynamic_bitsetLb0EE16StaticInitializeEPv
lcc:__Z41Register_UnityEngine_Camera_get_eventMaskv
oP:__ZL19CleanupModule_Audiov
kKi:_GenericComparer_1_Compare_m2516380588_gshared
n4i:__ZN6il2cpp2os4File10DeleteFileERKNSt3__212basic_stringIcNS2_11char_traitsIcEENS2_9allocatorIcEEEEPi
mSe:_File_Exists_m1685968367
MIb:__Z29Transfer_Blittable_ArrayFieldI14SafeBinaryReadiEvRT_R9ArrayInfoRK23StaticTransferFieldInfo
H0i:__ZN6il2cpp6icalls8mscorlib6System8MonoType8GetFieldEP20Il2CppReflectionTypeP12Il2CppStringi
VMj:_emscripten_glVertexAttrib3fv__wrapper
jIe:_Comparison_1_BeginInvoke_m1549337842_gshared
GMj:_emscripten_glGetIntegerv__wrapper
Dxi:_X509Crl_VerifySignature_m25189948
T_b:__ZNK28MonoBehaviourPropertyBinding13GetFloatValueERKN11UnityEngine9Animation10BoundCurveE
Yng:_RuntimeFieldHandle_Equals_m1202966418_AdjustorThunk
iAb:__ZN14SafeBinaryRead21TransferSTLStyleArrayINSt3__26vectorI4PPtrI6ObjectE13stl_allocatorIS5_L18MemLabelIdentifier51ELi16EEEEEEvRT_17TransferMetaFlags
nwj:_GC_generic_malloc
G0g:_Rect_op_Equality_m2793663577
$Yb:__ZNSt3__26vectorI16MessageForwarder13stl_allocatorIS1_L18MemLabelIdentifier6ELi8EEE6resizeEj
Ava:__ZN13GfxDeviceGLES32CreateDepthRenderSurfacePlatformEP17RenderSurfaceBase17DepthBufferFormat
Tp:__ZN14SafeBinaryRead21TransferSTLStyleArrayI13dynamic_arrayIiLj4EEEEvRT_17TransferMetaFlags
rma:__ZL30RegisterFilteredObjectCallbackPP12Il2CppObjectiPv
umb:__ZN19LightProbeOcclusion8TransferI14SafeBinaryReadEEvRT_
Moi:_MatchCollection_TryToGet_m2938913145
PQj:_emscripten_glIsTexture__wrapper
z$g:_Ray_ToString_m2019179238_AdjustorThunk
kGj:_llvm_bswap_i32
B_c:_KeyedHashAlgorithm_get_Key_m3672929432
$ua:__ZN9GfxDevice25ReleaseAsyncCommandHeaderEPN21GfxDeviceAsyncCommand3ArgE
tDb:__ZN9TextAsset8TransferI24GenerateTypeTreeTransferEEvRT_
pVh:__Z66RuntimeInvoker_Boolean_t3825574718_Il2CppObject_Double_t4078015681PK10MethodInfoPvPS2_
xdf:_MD2Managed_HashCore_m248147901
FDb:__ZN13MonoBehaviour23VirtualRedirectTransferER17RemapPPtrTransfer
MFa:__ZN21UniformBufferTFMethod20IsBoneCountSupportedEi
a6g:_Selectable_FindSelectableOnLeft_m3706572906
VUe:_MemoryStream__ctor_m4073175573
Pfa:__ZN6Shader27MarkShaderStateNotSupportedEPKS_
C8d:_Array_Sort_TisVector4_t2243707581_TisVector4_t2243707581_m917148421_gshared
Pyg:_UInt16_System_IConvertible_ToBoolean_m887616848_AdjustorThunk
Uag:__ZL81AnimationTriggers_t3244928895_CustomAttributesCacheGenerator_m_HighlightedTriggerP21CustomAttributesCache
E5a:__ZN10GameObject21EnsureUniqueTransformEbb
kFa:__ZN25TransformFeedbackSkinning8SkinMeshERK18VertexStreamSourceP9GfxBufferP17GPUSkinPoseBufferS4_ii17ShaderChannelMaskb
Rij:__ZN15dense_hashtableINSt3__24pairIK10KeyWrapperIP14Il2CppIUnknownEjEES5_N6il2cpp5utils11PointerHashIS3_EEN14dense_hash_mapIS5_jSB_NS5_14EqualsComparerINS0_8equal_toIS4_EEEENS0_9allocatorIS7_EEE9SelectKeyESG_SI_E12resize_deltaEjj
gsg:_UnicodeEncoding_GetCharCount_m3719064538
xgd:_Boolean_CompareTo_m3691698947
ojh:_DefaultComparer_Equals_m3262686272_gshared
dNb:__Z22TransferField_NonArrayI19StreamedBinaryWriteILb0EE27Converter_SimpleNativeClassI8GUIStyleEEvRK23StaticTransferFieldInfoR31RuntimeSerializationCommandInfoRT0_
xWe:_StreamReader_ReadToEnd_m3871366821
q8g:_Selectable_set_interactable_m63718297
G4d:_Array_InternalArray__ICollection_CopyTo_TisUICharInfo_t3056636800_m2132994790_gshared
hD:__Z17CalculateGlobalSM23TransformAccessReadOnlyRKN4math7_float4E
Ql:_emscripten_glLoadIdentity
G7a:__ZNSt3__26vectorINS_4pairIN4core12basic_stringIcNS2_20StringStorageDefaultIcEEEEPK17MessageIdentifierEENS_9allocatorISA_EEE26__swap_out_circular_bufferERNS_14__split_bufferISA_RSC_EEPSA_
Jqd:_Decimal_op_GreaterThan_m1625379433
J0a:__Z29CullShadowCastersWithoutUmbraR9IndexListRK17CullingParametersPK4AABBjj
RCi:_Vector3_get_down_m2372302126
Pp:__ZN4AABB8TransferI14SafeBinaryReadEEvRT_
GQa:_UNITY_png_destroy_info_struct
ZZg:_PlayerConnection_ConnectedCallbackInternal_m2685675347
$Ne:_Int16_System_IConvertible_ToDecimal_m2010889121_AdjustorThunk
bxb:__ZN12MeshRenderer23VirtualRedirectTransferER19StreamedBinaryWriteILb0EE
prb:__ZN18StreamedBinaryReadILb0EE21TransferSTLStyleArrayI13dynamic_arrayI12LightmapDataLj4EEEEvRT_17TransferMetaFlags
pgc:__Z49Register_UnityEngine_MonoBehaviour_StartCoroutinev
O9a:__Z11MD5ToStringPh
pde:_Enumerator_MoveNext_m2625246500_AdjustorThunk
Jec:__Z38Input_Get_Custom_PropCompositionStringv
Sfi:_AnimatorControllerPlayable_INTERNAL_CALL_GetParameterCountInternal_m3593070209
Ftg:_UTF8Encoding_GetPreamble_m4179999478
cLh:__Z117RuntimeInvoker_Void_t1841601450_Int64_t909078037_Il2CppObject_Il2CppObject_Int64_t909078037_Il2CppObject_Il2CppObjectPK10MethodInfoPvPS2_
SZg:_ConnectionChangeEvent__ctor_m616483304
kei:_AnimatorControllerPlayable_SetFloatID_m2632606700
JOi:__ZN6il2cpp2vm5Class19GetArrayElementSizeEPK11Il2CppClass
oCg:_ValueType_InternalEquals_m4068150072
tR:__ZN9JSONWrite8TransferIN4core12basic_stringIcNS1_20StringStorageDefaultIcEEEEEEvRT_PKc17TransferMetaFlags
Ssg:_UTF7Encoding_GetByteCount_m253528135
RId:_PointerInputModule_CopyFromTo_m2185451090
ATe:_FileNotFoundException_GetObjectData_m3405690481
WEj:__ZNSt3__212basic_stringIcNS_11char_traitsIcEENS_9allocatorIcEEE6resizeEjc
czb:__ZN14PlayerSettings16CheckConsistencyEv
SO:__ZN11AudioModule30GetOrCreateDSPFromCustomFilterEP17AudioCustomFilter
DRa:__ZN19AtomicPageAllocatorD2Ev
tn:FUNCTION_TABLE_viiiiiiiiiiiiii
rjj:__ZN6il2cpp6icalls8mscorlib6System13GlobalizationL20culture_lcid_locatorEPKvS5_
oxa:__ZN13GfxDeviceGLES20DestroyComputeBufferE15ComputeBufferID
ku:__Z30AnimationPlayableEvaluateBeginP35AnimationPlayableEvaluationConstantP32AnimationPlayableEvaluationInputP33AnimationPlayableEvaluationOutput
ove:_Collection_1_Add_m3182287887_gshared
YGb:__Z33TransferPPtrToMonoObjectUnCheckedi24TransferInstructionFlags
bpb:__ZNK12CubemapArray16ExtractImageImplEP14ImageReferenceNS0_8BlitModeEbi
ogc:__Z63Register_UnityEngine_MonoBehaviour_StartCoroutine_Auto_Internalv
amb:__ZN5Light8TransferI19StreamedBinaryWriteILb0EEEEvRT_
F8b:__ZN10systeminfo24GetSystemLanguageCultureEi
Krg:_StringBuilder_Append_m3618697540
G7g:_ScrollRect_get_normalizedPosition_m1640825682
W4c:_SecurityElement_IsValidAttributeName_m2201790420
ozb:__ZN10VRSettings8TransferI14SafeBinaryReadEEvRT_
Xyg:_UInt16_System_IConvertible_ToDecimal_m984067306_AdjustorThunk
_eb:__Z22GetFolderSizeRecursiveRKN4core12basic_stringIcNS_20StringStorageDefaultIcEEEE
pAi:_Texture2D_INTERNAL_CALL_GetPixelBilinear_m570286059
hDc:_UNITY_FT_Outline_Get_CBox
u3d:_Array_InternalArray__ICollection_Add_TisUInt16_t986882611_m2791161149_gshared
ja:invoke_viifiiii
_Bh:_Enumerator_Reset_m3115320746_gshared
VJe:_NumberFormatter_FormatDecimal_m1435371940
_0e:_SimpleCollator_GetTailContraction_m1037943844
_$c:_RC2CryptoServiceProvider_CreateEncryptor_m252199767
yJi:_U3CStartU3Ec__Iterator0_MoveNext_m2339115502_gshared
mF:__Z93Register_UnityEngine_Experimental_Director_AnimatorControllerPlayable_INTERNAL_CALL_SetBoolIDv
MRa:__ZN22PerThreadPageAllocator14AcquireNewPageEj
tO:__ZN24AudioScriptBufferManager15DidReloadDomainEv
wei:_AnimatorControllerPlayable_SetBoolID_m1141253014
HYa:__ZN6Camera13ClearNoSkyboxEb
nQe:_Int64_System_IConvertible_ToInt64_m989981560_AdjustorThunk
ble:_List_1_CheckIndex_m2576265846_gshared
H0g:_Rect_GetHashCode_m559954498
R5h:_Application_CallLowMemory_m626389230
VVi:__ZNK15dense_hashtableI10KeyWrapperIPK17Il2CppGenericInstES4_N6il2cpp8metadata21Il2CppGenericInstHashEN14dense_hash_setIS4_S7_NS4_14EqualsComparerINS6_24Il2CppGenericInstCompareEEENSt3__29allocatorIS4_EEE8IdentityESB_SE_E12test_deletedEj
ned:_Array_combsort_m2486643569
V7:__ZNSt3__27__sort5IR17CompareInstanceIDPP6ObjectEEjT0_S6_S6_S6_S6_T_
gib:__ZNSt3__26vectorI17SortingLayerEntryNS_9allocatorIS1_EEE12__move_rangeEPS1_S5_S5_
Djh:_DefaultComparer_Equals_m145577182_gshared
cya:__ZN18GfxFramebufferGLES10InvalidateEv
J9e:_SmallXmlParser_SkipWhitespaces_m2923234398
zyd:_Decimal_System_IConvertible_ToSingle_m1736019752_AdjustorThunk
pBa:__ZN4crnd11crnd_deleteINS_13prefix_coding14decoder_tablesEEEvPT_
FAi:_TouchScreenKeyboard_Open_m2760130151
V$:__ZN10MemoryPoolD2Ev
Rii:_GCHandle__ctor_m2952050298_AdjustorThunk
_lc:__ZNSt3__26__treeINS_12__value_typeIN4core12basic_stringIcNS2_20StringStorageDefaultIcEEEEN5IMGUI12NamedControlEEENS_19__map_value_compareIS6_S9_NS_4lessIS6_EELb1EEENS_9allocatorIS9_EEE7destroyEPNS_11__tree_nodeIS9_PvEE
lmf:_SslClientStream_get_SelectedClientCertificate_m1580018944
Crd:_DateTime_FromTicks_m75527956
U4e:_KeyGeneratedEventHandler_Invoke_m4220935979
Bdb:__ZN15dense_hashtableINSt3__24pairIKiPKN11AssetBundle9AssetInfoEEEi21InstanceIDHashFunctorN14dense_hash_mapIiS6_S8_NS0_8equal_toIiEE13stl_allocatorIS7_L18MemLabelIdentifier65ELi16EEE9SelectKeyESB_SE_E12resize_deltaEjj
bAd:_DebuggerTypeProxyAttribute__ctor_m3082078467
M_d:_Array_InternalArray__ICollection_Remove_TisVector3_t2243707580_m3881497481_gshared
FDj:___mmap
X9b:__ZN9Scripting26RaiseArgumentNullExceptionEPKc
FV:__ZL18InternalLogConsolePKcz
zCj:_lseek
Lke:_List_1_System_Collections_IList_set_Item_m2267202349_gshared
Iee:_Enumerator_System_Collections_IEnumerator_get_Current_m3866069145_AdjustorThunk
G9d:_Component_GetComponentsInChildren_TisIl2CppObject_m1992201622_gshared
Gve:_Collection_1_ConvertItem_m2972284337_gshared
jof:_AuthorityKeyIdentifierExtension_Decode_m1941074339
TM:__ZN11AudioSource16UpdatePauseStateEv
A7:__ZL52StaticUnregisterSceneLoadedCallback_LightmapSettingsPv
Cu:__ZN7mecanim5human25HumanPoseAddAdditiveLayerERNS0_9HumanPoseERKS1_fRKNS_6bitsetILj70EEE
qgc:__Z48Register_UnityEngine_MonoBehaviour_StopCoroutinev
uqf:_RemoteCertificateValidationCallback_Invoke_m2237177542
SSd:_HorizontalOrVerticalLayoutGroup_set_childForceExpandWidth_m1140293254
tpf:_NameObjectCollectionBase_BaseAdd_m964300824
WYd:_Array_InternalArray__ICollection_Contains_TisKeyValuePair_2_t1174980068_m650645929_gshared
RXa:__ZN27DeviceViewProjMatricesStateD2Ev
ZLh:__Z189RuntimeInvoker_Int32_t2071877448_Il2CppObject_Int32_t2071877448_Int32_t2071877448_Il2CppObject_Int32_t2071877448_SByte_t454417549_Int32U26_t455636984_BooleanU26_t3168250738_SByte_t454417549PK10MethodInfoPvPS2_
d1c:_RNGCryptoServiceProvider_RngOpen_m2238023214
ZEg:_CustomAttributeData_GetCustomAttributes_m4124612360
qKb:__Z18Transfer_BlittableI24GenerateTypeTreeTransferLb0E8Vector3fEvRK29SerializationCommandArgumentsR31RuntimeSerializationCommandInfo
Emj:__ZN15dense_hashtableINSt3__24pairIK10KeyWrapperINS1_IPKcS4_EEEiEES6_24NamespaceAndNamePairHashN14dense_hash_mapIS6_iS9_NS6_14EqualsComparerI26NamespaceAndNamePairEqualsEENS0_9allocatorIS8_EEE9SelectKeyESD_SF_E14squash_deletedEv
thg:_MethodDictionary_CopyTo_m1721788774
Kej:__ZN6il2cpp2vm6Thread16RequestInterruptEP12Il2CppThread
aof:_TlsStream_get_Position_m3551173234
pli:_LeaseManager_SetPollTime_m3137304074
hU:__ZNK3WWW6IsDoneEv
rnd:_Hashtable_CalcPrime_m1835281409
Dyc:__ZNSt3__26vectorINS_4pairINS1_IttEEfEENS_9allocatorIS3_EEE8__appendEj
_5a:__ZN6prcoreL10inner_flipILj2EEEvPhS1_j
jKg:_TypeBuilder_has_ctor_method_m3449702467
gQa:_UNITY_png_text_compress
msc:__ZN9JSONWrite8TransferIbEEvRT_PKc17TransferMetaFlags
Jdd:_Array_CreateInstance_m679102425
wbb:__ZN12TLSAllocatorI14StackAllocatorED0Ev
Uii:_GCHandle_GetTarget_m2056570211
myb:__ZN11TimeManager16CheckConsistencyEv
MSh:__Z67RuntimeInvoker_Void_t1841601450_Scene_t1684909666_Scene_t1684909666PK10MethodInfoPvPS2_
$Ua:__ZN21GfxDeviceAsyncCommand10ArgScratch15ThreadedCleanupEv
K0e:_MSCompatUnicodeTable_IsJapaneseSmallLetter_m2541532635
dbf:_BigInteger_GenerateRandom_m1878468830
UJb:__ZN12NativeBufferI27Converter_UnityEngineObjectE15SetupForWritingER9ArrayInfo
qRd:_Graphic_UpdateGeometry_m2431537946
X$e:_ObsoleteAttribute__ctor_m834417715
re:_glTexImage3D
lP:__Z20RegisterModule_Audiov
Ngf:_TlsCipherSuite__ctor_m2983563913
Mga:__ZNSt3__26vectorINS_4pairI11ShaderTagIDS2_EENS_9allocatorIS3_EEE6insertENS_11__wrap_iterIPKS3_EERS8_
Pya:__ZNK13TranslateGLES13BlendEquationE7BlendOp
XZh:__Z55RuntimeInvoker_Boolean_t3825574718_UIVertex_t1204258818PK10MethodInfoPvPS2_
pnj:__ZN6il2cpp2vm6Object13UnboxNullableEP12Il2CppObjectP11Il2CppClassPv
Ae:_JS_SystemInfo_GetCurrentCanvasWidth
lDe:_ReadOnlyCollection_1_System_Collections_IList_Remove_m2668898250_gshared
r9b:__ZL34GetComponentsImplementationRecurseILb1ELi0ELi1EEbR10GameObjectbRK17CompareParametersRK39GetComponentsImplementation_ReturnValue
mZg:_Mesh_SetColors_m3438776703
Zgj:__ZN6il2cpp2vm14PlatformInvoke30MarshalCSharpStringToCppStringEP12Il2CppString
Mlj:__ZN6il2cpp2vm5Field10IsInstanceEP9FieldInfo
Uxg:_Type_GetTypeHandle_m2405042843
Hzb:__ZN10VRSettings8TransferI18StreamedBinaryReadILb0EEEEvRT_
Cth:_InternalEnumerator_1_System_Collections_IEnumerator_get_Current_m1322273508_AdjustorThunk
ybd:_DecoderFallbackException__ctor_m3081822699
OQe:_Int64_TryParse_m3093198325
J$i:__ZN6il2cpp2vm10ThreadPool5QueueEP14Il2CppDelegatePPvS3_P12Il2CppObject
jNb:__Z19TransferField_ArrayI19StreamedBinaryWriteILb0EE27Converter_SimpleNativeClassI8GradientEEvRK23StaticTransferFieldInfoR31RuntimeSerializationCommandInfoRT0_
vTe:_FileLoadException_ToString_m319701103
LVe:_NullStream_Seek_m1809916110
Stc:__Z18Transfer_BlittableI8JSONReadLb0E12PropertyNameEvRK29SerializationCommandArgumentsR31RuntimeSerializationCommandInfo
C6b:__Z13GetImagePixelI10ColorRGBAfET_PKhii13TextureFormat15TextureWrapModeii
uzd:_Delegate_SetMulticastInvoke_m361277268
nFd:_BaseInput_GetMouseButtonUp_m32571233
ecd:_EncoderReplacementFallbackBuffer_get_Remaining_m2777488845
dub:__ZN7SubMesh8TransferI18StreamedBinaryReadILb0EEEEvRT_
bgb:__ZN21AssetBundleFileSystem4NameEv
fmb:__ZN15SharedLightData17MainThreadCleanupEv
xtg:_UTF8Encoding_GetCharCount_m3557355060
gth:_InternalEnumerator_1_System_Collections_IEnumerator_get_Current_m127456009_gshared
tYg:_Matrix4x4_get_Item_m312280350_AdjustorThunk
ef:_emscripten_glIsEnabled
SOb:__ZN18StreamedBinaryReadILb1EE21TransferSTLStyleArrayI13dynamic_arrayIdLj8EEEEvRT_17TransferMetaFlags
Wdc:__Z45Register_UnityEngine_GameObject_get_transformv
C2:__Z29scripting_class_instance_size17ScriptingClassPtr
Nmf:_SslHandshakeHash_initializePad_m4132246594
zvf:_X509CertificateCollection_get_Item_m848456018
pT:__ZN11UnityEngine15CloudWebService19SessionEventManager26ProcessEventQueueJobStaticEPv
Bri:_AnchorInfo_get_IsUnknownWidth_m3747592836
P9d:_GameObject_GetComponents_TisIl2CppObject_m374334104_gshared
KT:__ZN11UnityEngine15CloudWebService19SessionEventManager37OnTimerExpiredPerformArchiveJobStaticEPv
wQh:__Z101RuntimeInvoker_OpFlags_t378191910_SByte_t454417549_SByte_t454417549_SByte_t454417549_SByte_t454417549PK10MethodInfoPvPS2_
cA:__ZN23AnimationPlayableOutputC2EjP13PlayableGraph
oAi:_Texture2D_GetPixelBilinear_m3063031185
pBj:__ZN6il2cpp6icalls8mscorlib6System10Reflection4Emit11DerivedType21create_unmanaged_typeEP20Il2CppReflectionType
$C:__ZN7mecanim12statemachine13GetStateIndexEPKNS0_20StateMachineConstantEj
Blg:_FormatterConverter_ToInt32_m1004171952
R8:__Z29GetOcclusionPortalManagerListv
Ocd:_Array_System_Collections_IList_set_Item_m4290470392
fkg:_RemotingConfiguration_RegisterActivatedServiceType_m4003543022
Ehc:__Z39Register_UnityEngine_Sprite_get_texturev
ili:_ConfigHandler_GetNotNull_m2454680251
KJi:__ZL10rescale128PyS_Piiiii
dH:__ZN9AudioClip7WWWSeekEPvjS0_
xZd:_Array_InternalArray__ICollection_Contains_TisUInt32_t2149682021_m672455245_gshared
EBg:_UIntPtr_System_Runtime_Serialization_ISerializable_GetObjectData_m3481735378
h6:__ZL32StaticInitializeIUnityInterfacesPv
zUa:__Z13CameraProjectRK8Vector3fRK10Matrix4x4fS4_RK5RectTIiERS_b
tBb:__ZN30RuntimeInitializeOnLoadManager15ClassMethodInfo8TransferI19StreamedBinaryWriteILb0EEEEvRT_
g$:__Z22CreateMutexLockedStackv
Svd:_DateTime_System_IConvertible_ToType_m3821835592
Vyf:_IntervalCollection_get_Item_m1667788970
Lsa:__ZNSt3__27__sort5IRNS_4lessIN22BuiltinResourceManager8ResourceEEEPS3_EEjT0_S7_S7_S7_S7_T_
$qg:_Latin1Encoding_GetByteCount_m2812921286
vOa:__ZN9ShaderLab11ShaderStateD2Ev
hyd:_Decimal_System_IConvertible_ToByte_m3432160840
Msg:_UTF7Encoding__ctor_m1941256679
SEb:__Z23TransferScriptingObjectI24GenerateTypeTreeTransferEvRT_18ScriptingObjectPtr17ScriptingClassPtrPK15MonoScriptCache
Elg:_BinaryCommon__cctor_m3619690968
EMj:_emscripten_longjmp__wrapper
kxi:_X509Chain_FindCertificateRoot_m589250107
cQa:_UNITY_png_write_iTXt
RMb:__ZL17Transfer_GUIStyleI19StreamedBinaryWriteILb0EELb0EEvRK29SerializationCommandArgumentsR31RuntimeSerializationCommandInfo
hMh:__Z248RuntimeInvoker_Int32_t2071877448_Il2CppObject_Int32_t2071877448_Int32_t2071877448_Il2CppObject_Int32_t2071877448_UInt32U26_t2197289955_UInt32U26_t2197289955_Il2CppObject_DecoderFallbackBufferU26_t3597875002_ByteU5BU5DU26_t790777611_SByte_t454417549PK10MethodInfoPvPS2_
QBi:_UnityString_Format_m2949645127
Zmd:_Comparer_GetObjectData_m3370677985
aJi:_UnityEvent_4_GetDelegate_m2704961864_gshared
HLa:__ZNK12HandlerChain6TargetERK13FileEntryDataR15FileSystemEntry
oad:_Encoding__ctor_m3985582722
ymg:_ObjectManager_RaiseOnDeserializingEvent_m1841526046
Z9c:_String_CreateString_m560359261
VDc:_UNITY_FT_Init_Class_tt_service_get_cmap_info
xqg:_DSA_ToXmlString_m1014346120
LBj:___shlim
x2c:_SHA256Managed__ctor_m1410575277
XDd:_CompareInfo_internal_index_managed_m859405335
Tfd:_Boolean_System_IConvertible_ToDateTime_m2613818037_AdjustorThunk
hZi:__ZNSt3__211__tree_nextIPNS_16__tree_node_baseIPvEEEET_S5_
REe:_ReadOnlyCollection_1_System_Collections_IList_Clear_m2240307498_gshared
Fjj:__ZN15dense_hashtableI10KeyWrapperIP18Il2CppGenericClassES3_N6il2cpp8metadata22Il2CppGenericClassHashEN14dense_hash_setIS3_S6_NS3_14EqualsComparerINS5_25Il2CppGenericClassCompareEEENSt3__29allocatorIS3_EEE8IdentityESA_SD_E14squash_deletedEv
bla:__ZN6prcoreL17RemapGenericFloatI17TexFormatRGBAHalf17TexFormatRGBFloatEEvPKNS_9InnerInfoE
Qlg:_BinaryFormatter_NoCheckDeserialize_m1968202401
IRd:_Graphic_CrossFadeAlpha_m4067047552
shc:__Z35Sprite_Get_Custom_PropPixelsPerUnitP12Il2CppObject
$Nj:_pthread_cond_wait__wrapper
awc:__ZN9rapidjson12PrettyWriterI16TempBufferWriterNS_4UTF8IcEES3_13JSONAllocatorE10StartArrayEv
XVi:__ZNSt3__26__sortIRN6il2cpp5utils11collections13ArrayValueMapIPK10Il2CppType17Il2CppInteropData26InteropDataToTypeConverterNS1_8metadata14Il2CppTypeLessENSA_26Il2CppTypeEqualityComparerEE12SortComparerEPS8_EEvT0_SH_T_
aFb:__ZN11PreloadDataD2Ev
Zb:invoke_iifi
wEf:__ZL79Hashtable_t909839986_CustomAttributesCacheGenerator_Hashtable__ctor_m3742489710P21CustomAttributesCache
bkc:__ZN18CrashReportHandler10SendReportER16CrashReportEvent
FYg:_Mesh__ctor_m2975981674
Mbh:_VertexHelper_AddUIVertexStream_m3599763288
bYg:_Mathf_Abs_m1942863256
blh:_EqualityComparer_1_System_Collections_IEqualityComparer_Equals_m1565968086_gshared
Y5d:_Array_InternalArray__set_Item_TisSlot_t2022531261_m3811041838_gshared
Slb:__ZN15SharedLightData15UpdateTransformERK9Transform
u0c:_RijndaelTransform__cctor_m1393306207
dRd:_Graphic_get_defaultMaterial_m1022773737
yHc:_UNITY_FT_Init_Class_pscmaps_interface
z9g:_Slider_OnDidApplyAnimationProperties_m3202463395
$E:__Z109Register_UnityEngine_Experimental_Director_AnimatorControllerPlayable_INTERNAL_CALL_GetParameterCountInternalv
Bdc:__Z44Register_UnityEngine_RectOffset_get_verticalv
xyg:_Type_MakeGenericType_m973683242
Zzj:__ZN6il2cpp2vm9LastError31InitializeLastErrorThreadStaticEv
p0b:__ZN13ProduceHelperI13RenderTextureLb0EE7ProduceE18MemLabelIdentifier18ObjectCreationMode
XQe:_Int64_ToString_m2785525583
zK:__ZN4FMOD6System17setSoftwareFormatEi17FMOD_SOUND_FORMATii18FMOD_DSP_RESAMPLER
bI:__ZN11AudioSource31UpdateEffectVirtualizationStateEb
ANg:_MonoGenericCMethod__ctor_m2520666358
gh:_JS_SystemInfo_GetCurrentCanvasHeight
kig:_ReturnMessage_get_OutArgs_m299904174
Snc:__Z34GUIStyle_Get_Custom_PropFixedWidthP12Il2CppObject
$6e:_RSAManaged_get_PublicOnly_m2603845138
xyd:_Decimal_System_IConvertible_ToSByte_m3745141000_AdjustorThunk
Fqj:__ZN6il2cpp2gc16GarbageCollector11GetWeakLinkEPPv
i_e:_MonoType_GetMethods_m353342170
oU:__ZN13EmscriptenWWW23HasDownloadedOrMayBlockEv
Noj:__GLOBAL__sub_I_Console_cpp
Tka:__ZN6prcoreL17RemapGenericFloatI14TexFormatRHalf17TexFormatRGBAHalfEEvPKNS_9InnerInfoE
h0i:__ZN6il2cpp2vm7Runtime11InvokeArrayEPK10MethodInfoPvP11Il2CppArrayPP15Il2CppException
p4b:__ZNK10GameObject23QueryComponentTransformEv
rE:__Z71AnimatorControllerPlayable_CUSTOM_INTERNAL_CALL_PlayInFixedTimeInternalR9HPlayableiif
uLe:_GregorianCalendar_get_Eras_m4010603022
VBd:_Enum_System_IConvertible_ToUInt16_m1001858842
Wgh:_Dictionary_2_make_pair_m394533803_gshared
ELc:_Dual_Project
_Y:__GLOBAL__sub_I_runtime_utilities3_lump_cpp
bG:__ZN9AudioClip23VirtualRedirectTransferER14SafeBinaryRead
nEa:__ZN4gles20EnsureTextureCreatedEP7ApiGLESP17RenderSurfaceGLES
wYd:_LayoutRebuilder_U3CRebuildU3Em__2_m3239837417
rVa:__ZN15ReplacementPass13PrepareSubsetEjRK10RenderNodeifRK17ShaderReplaceData
yyd:_Decimal_System_IConvertible_ToSingle_m1736019752
eL:__Z32AudioMeasurement_GetTimeConstantff
rPa:_UNITY_png_compress_IDAT
krj:__ZN6il2cpp8metadata11FieldLayout12LayoutFieldsEjjjRKNSt3__26vectorIPK10Il2CppTypeNS2_9allocatorIS6_EEEERNS1_15FieldLayoutDataE
q6f:__ZL54ContextMenu_t2283362202_CustomAttributesCacheGeneratorP21CustomAttributesCache
i1a:__ZL27PrepareSceneNodesJobCombineP25ScheduleSceneNodesJobData
uUe:_Stream_EndWrite_m263497992
ajd:_Char_Parse_m2121403806
iif:_ClientSessionCache_SetContextInCache_m907788136
q8:__ZN18AsyncUploadManager13StaticDestroyEPv
zHg:_EnumBuilder_GetConstructorImpl_m331611313
gSb:__ZN6Shader7SetNameEPKc
lOd:_DefaultControls_SetParentAndAlign_m3048898502
ws:__ZN11UnityEngine9Animation35SetTransformPropertyApplyMainThreadER9TransformRKNS0_30AnimatorGenericBindingConstantERKNS0_21AvatarBindingConstantEb
M6a:__ZN19CustomRenderTexture22HandleBoundaryWrappingERKNS_14UpdateZoneInfoEj
dZi:__ZN6il2cpp2vm13MetadataCache32GenerateCustomAttributeTypeCacheEi
Ovf:_X509Chain__cctor_m826131835
oye:_Collection_1_InsertItem_m1073626529_gshared
iw:__ZNK11UnityEngine9Animation30GenericBindingValueArrayUniqueclERKNS0_14GenericBindingES4_
Med:_ArrayTypeMismatchException__ctor_m1923871345
Upg:_CspParameters__ctor_m3051314030
JLc:_Direct_Move_Y
HLc:_Direct_Move_X
Xuf:_X509ChainElement_Set_m2634474339
Vbi:_Event_get_isKey_m1145918225
Pfd:_Boolean_System_IConvertible_ToByte_m1443044213_AdjustorThunk
Hkc:__ZN18CrashReportHandlerC2ERKN4core12basic_stringIcNS0_20StringStorageDefaultIcEEEES6_y
Bi:_glClearDepthf
c0b:__ZN19SkinnedMeshRenderer7GetMeshEv
oYb:__ZN19RuntimeSceneManager14GetActiveSceneEv
I1i:__ZN6il2cpp6icalls8mscorlib6SystemL8IsStaticEPK9EventInfo
kdc:__Z29RectOffset_Set_Custom_PropTopP12Il2CppObjecti
osf:_WebRequest__ctor_m1537196628
Lrf:_ServicePointManager_get_CertificatePolicy_m345233313
K2e:_BigInteger_op_Equality_m366854173
smb:__ZN14SafeBinaryRead21TransferSTLStyleArrayI13dynamic_arrayI19LightProbeOcclusionLj4EEEEvRT_17TransferMetaFlags
YTc:__Z55Register_UnityEngine_Analytics_CustomEventData_AddInt16v
n3g:_MaskableGraphic_Cull_m3130802047
f9h:_CanvasRenderer_Clear_m2419751129
wlf:_RecordProtocol_MapV2CipherCode_m4064211604
EIh:__Z63RuntimeInvoker_Int16_t4041245914_Il2CppObject_Int32_t2071877448PK10MethodInfoPvPS2_
Pad:_ASCIIEncoding_GetByteCount_m2696039881
jlf:_ReceiveRecordAsyncResult_SetComplete_m2441107665
bnb:__ZN20SphericalHarmonicsL28TransferI19StreamedBinaryWriteILb0EEEEvRT_
xMd:_CanvasUpdateRegistry_InternalUnRegisterCanvasElementForLayoutRebuild_m3740187734
k$b:__ZNK28RectTransformPropertyBinding9BindValueER6ObjectRKN11UnityEngine9Animation14GenericBindingERNS3_10BoundCurveE
VGg:_DerivedType_get_AssemblyQualifiedName_m2010127631
jz:__ZN26AnimatorControllerPlayable11DerivesFromE17ScriptingClassPtr
lTg:_GUISkin_set_button_m412653849
zwb:__ZN4Mesh14UploadMeshDataEb
Suh:_InternalEnumerator_1_System_Collections_IEnumerator_get_Current_m4023948615_AdjustorThunk
Z$a:__ZN14qsort_internal5QSortIP16RenderObjectDatai25RenderPrePassObjectSorterEEvT_S4_T0_T1_
Daf:_ArgIterator_Equals_m2415994310
t0b:__ZN14RenderSettings12CleanupClassEv
Ahc:__Z43DataUtility_CUSTOM_INTERNAL_CALL_GetPaddingP12Il2CppObjectR8Vector4f
nwa:__ZN9GfxDevice15ImmediateNormalEfff
icd:_EncoderReplacementFallbackBuffer_GetNextChar_m1811006007
SRh:__Z69RuntimeInvoker_Void_t1841601450_Single_t2076509932_Single_t2076509932PK10MethodInfoPvPS2_
RBi:_Vector2__ctor_m3067419446
s5a:__ZN15SerializeTraitsI13dynamic_arrayIN10GameObject13ComponentPairELj4EEE19ResizeSTLStyleArrayERS3_i18MemLabelIdentifier
sLb:__ZN13GUIStyleState8TransferI24GenerateTypeTreeTransferEEvRT_
v4:__ZN20dynamic_block_vectorI14FileIdentifierE22push_back_no_constructEv
Uoa:__ZN9Texture3D23VirtualRedirectTransferER14SafeBinaryRead
Mrg:_StringBuilder_Append_m1462406979
KTb:__ZNSt3__26vectorIN9ShaderLab20SerializedSubProgram16TextureParameterENS_9allocatorIS3_EEE8__appendEj
sqb:__ZN9Texture2D13UploadTextureEi
Pxg:_Type_GetType_m773255995
nKc:_cff_get_cid_from_glyph_index
s4g:_RawImage__ctor_m527845386
AK:__ZN4FMOD6System19setSoftwareChannelsEi
m6d:_Array_InternalArray__set_Item_TisResourceCacheItem_t333236149_m2074358118_gshared
hch:_Enumerator_MoveNext_m3349738440_gshared
ztf:_X500DistinguishedName_DecodeRawData_m3640767187
ugd:_Boolean_System_IConvertible_ToUInt64_m3594533761
afc:__Z60Register_UnityEngine_Input_INTERNAL_set_compositionCursorPosv
EM:__ZN11AudioSource7SetLoopEb
q$f:__ZL51Collider_t3497673348_CustomAttributesCacheGeneratorP21CustomAttributesCache
JSg:_GUISettings_Internal_GetCursorFlashSpeed_m3799968572
o2e:_BigInteger_get_Rng_m1268152318
FCi:_Vector3_op_Division_m3315615850
_Mg:_MonoEvent_IsDefined_m3151861274
FGc:_Cubic_To
bbc:__Z37Register_UnityEngine_Application_Quitv
qhf:_TlsStream_WriteInt24_m1660453494
icc:__Z44Register_UnityEngine_Camera_get_farClipPlanev
dfi:_AnimatorControllerPlayable_INTERNAL_CALL_GetLayerNameInternal_m2049776925
BBb:__ZNK17IAnimationBinding30CurveAttributeToSerializedPathERKN11UnityEngine9Animation10BoundCurveE
elj:__ZN6il2cpp2gc16GarbageCollector14GetOrCreateCCWEP12Il2CppObjectRK10Il2CppGuid
Mmj:__ZN6il2cpp2vm5Image21FromTypeNameParseInfoEPK11Il2CppImageRKNS0_17TypeNameParseInfoEb
Eza:__ZN17BufferManagerGLES13AcquireBufferEjN14DataBufferGLES11BufferUsageEb
fqd:_Console_OpenStandardError_m3676373108
mYe:_UnmanagedMemoryStream_SetLength_m1805321486
N0i:__ZNK6il2cpp5utils10functional6FilterINSt3__212basic_stringIcNS3_11char_traitsIcEENS3_9allocatorIcEEEENS0_11StringUtils23CaseInsensitiveComparerEEclIPKcEEbRKT_
uif:_Context_get_ProtocolNegotiated_m624488778
Iie:_List_1_System_Collections_IList_IndexOf_m1671340024_gshared
Ged:_SimpleEnumerator_MoveNext_m1696906961
AXc:__ZN16UnityAdsSettingsD0Ev
hjf:_Context_StartSwitchingSecurityParameters_m373522596
zAa:__ZNK7ApiGLES10DebugLabelEN2gl10ObjectTypeEjPKc
R1d:_Array_InternalArray__IndexOf_TisInt16_t4041245914_m1619355230_gshared
TFj:__ZNK10__cxxabiv121__vmi_class_type_info16search_below_dstEPNS_19__dynamic_cast_infoEPKvib
cQe:_Int64_System_IConvertible_ToDateTime_m1002280174
$qd:_Convert_ToByte_m9159597
Bhc:__Z38DataUtility_CUSTOM_Internal_GetMinSizeP12Il2CppObjectP13Vector2fIcall
R4b:__ZN8PlayableC2E17ScriptingClassPtr18DirectorPlayerType
xKg:_OpCode_Equals_m3738130494
Ohi:_ResourceEnumerator_get_Key_m1012797265
_Je:_NumberFormatter_FormatPercent_m776769918
b3i:_il2cpp_class_has_attribute
GSg:_GUISettings__ctor_m2453724887
Cvg:_Scheduler_ShrinkIfNeeded_m2186823111
jff:_Alert_get_IsCloseNotify_m577852330
$2:__Z27FindOrCreateMonoScriptCache17ScriptingClassPtr22InitScriptingCacheTypeP6Objecti
ZPb:__Z18Transfer_BlittableI18StreamedBinaryReadILb0EELb1E8Vector3fEvRK29SerializationCommandArgumentsR31RuntimeSerializationCommandInfo
BWg:_GUIUtility__cctor_m46116445
vPc:__ZN2UI14CanvasRenderer13SyncVertexPtrER8JobFenceNS0_8SyncFlagE
p3:__Z35scripting_method_get_argument_count18ScriptingMethodPtr
Bra:__ZN18AssetBundleManager18SortPreloadObjectsER13dynamic_arrayIiLj4EEb
Tyg:_UInt16_System_IConvertible_ToChar_m4055364664_AdjustorThunk
fec:__Z20Gradient_CUSTOM_InitP12Il2CppObject
ahb:__ZN21ArchiveStorageCreator11StoreStreamEb
tmg:_ObjectReader_BlockRead_m2374879830
Qpc:__Z48Register_UnityEngine_GUIUtility_Internal_ExitGUIv
tcj:__ZN14dense_hash_mapI10KeyWrapperINSt3__24pairIPK9FieldInfoP11Il2CppClassEEEj17ReflectionMapHashIS8_ENS9_14EqualsComparerINS1_8equal_toIS8_EEEENS1_9allocatorINS2_IKS9_jEEEEE15set_deleted_keyERSH_
Llb:__ZN5Light23VirtualRedirectTransferER19StreamedBinaryWriteILb0EE
dhd:_Byte_System_IConvertible_ToDouble_m4224320007
m1a:__ZL21CullDynamicObjectsJobP14CullingJobDataj
SNc:__ZN2UI15ClearCanvasDataER8JobFenceRNS_10CanvasDataE
hrf:_IPAddress_ToString_m1462985652
krd:_Convert_ToDateTime_m261774113
eDe:_ReadOnlyCollection_1_System_Collections_ICollection_CopyTo_m318855319_gshared
OLg:_MethodBase_GetMethodFromHandleNoGenericCheck_m4274264088
OCh:_Enumerator_get_CurrentKey_m1408186928_AdjustorThunk
x7a:__ZN14ManagerContext17InitializeClassesEv
J3g:_MaskUtilities_GetRectMasksForClip_m1540508301
Ydb:__ZN19StreamedBinaryWriteILb0EE21TransferSTLStyleArrayINSt3__26vectorI14ConstantStringNS2_9allocatorIS4_EEEEEEvRT_17TransferMetaFlags
Fu:__ZN7mecanim5human20MaskHasRightFootGoalERKNS_6bitsetILj70EEE
FOb:__ZN18StreamedBinaryReadILb1EE21TransferSTLStyleArrayI31ArrayOfManagedObjectsTransfererEEvRT_17TransferMetaFlags
Sfe:_List_1_System_Collections_IList_IndexOf_m406088260_gshared
TCg:_WeakReference_get_Target_m1672141897
V2e:_Kernel_DwordDivMod_m4066997639
kHc:_t1_hints_open
zDj:_access
h4c:_X509Certificate_GetCertHash_m2299453268
y$c:_MD5CryptoServiceProvider__ctor_m457716966
dBi:_Transform_get_rotation_m1033555130
ftd:_Decimal_s64_m2965457432
c7b:__Z18TransformPoints3x4RK10Matrix4x4fPK8Vector3fjPS2_ji
DZc:__ZN22UnityWebRequestManager21CreateUnityWebRequestEv
Doc:__Z38Register_UnityEngine_GUIStyle_InitCopyv
tJ:__ZN4FMOD7Channel11getUserDataEPPv
kEc:_UNITY_tt_face_load_gasp
qEe:_ReadOnlyCollection_1_System_Collections_IList_Insert_m3650067527_gshared
_Ac:_ft_ansi_stream_close
cm:_JS_Sound_SetPitch
xcg:__ZL69InputField_t1631627530_CustomAttributesCacheGenerator_m_TextComponentP21CustomAttributesCache
Q3i:_il2cpp_runtime_invoke_convert_args
Quc:__Z19TransferField_ArrayI8JSONRead27Converter_SimpleNativeClassI10RectOffsetEEvRK23StaticTransferFieldInfoR31RuntimeSerializationCommandInfoRT0_
MBh:_Enumerator_get_CurrentKey_m447338908_AdjustorThunk
rhf:_Context_get_SecurityProtocol_m1600902905
Vhj:__ZN6il2cpp6icalls8mscorlib6System2IO6MonoIO11GetFileStatEP12Il2CppStringPNS3_8FileStatEPi
tVa:__ZNK9ShaderLab9IntShader6GetTagE11ShaderTagIDb
M_a:__Z25CalculateShadowCasterCullbPK5PlaneRK10Matrix4x4fRK8Vector3fff9LightTypeS7_R16ShadowCasterCullPKb
x2i:_il2cpp_get_corlib
K_c:_HMAC_HashCore_m1869699062
CDg:_Assembly_GetTypes_m1317253146
fnb:__ZN11Tetrahedron8TransferI19StreamedBinaryWriteILb0EEEEvRT_
nOe:_Int16_System_IConvertible_ToType_m2901377575_AdjustorThunk
pQe:_Int64_System_IConvertible_ToSByte_m253213816_AdjustorThunk
pQc:__ZN2UI14CanvasRenderer11SetMaterialEP8Materiali
WId:_MouseState_SetButtonState_m2329922363
gTe:_FileStream__ctor_m3815606687
ouj:_GC_freehblk
EJe:_NumberFormatter_NumberToString_m668979517
JHe:_ReadOnlyCollection_1_System_Collections_IList_Remove_m2507730234_gshared
gJa:__Z36GiveDebuggerChanceToAttachIfRequiredv
yeh:_Enumerator_System_Collections_IEnumerator_Reset_m2482663638_gshared
C9b:__ZN9Scripting35DestroyObjectFromScriptingImmediateEP6Objectb
FPh:__Z93RuntimeInvoker_Il2CppObject_Byte_t3683104436_Il2CppObject_Int32_t2071877448_Int32_t2071877448PK10MethodInfoPvPS2_
t$f:__ZL53Rigidbody2D_t502193897_CustomAttributesCacheGeneratorP21CustomAttributesCache
wjg:_RemotingServices_GetRemoteObject_m3663391550
FMc:__ZN20TextRenderingPrivate22ScriptingTextGenerator9InitVertsEi
_Ub:__ZN24GenerateTypeTreeTransfer8TransferINSt3__26vectorIN9ShaderLab20SerializedSubProgram12UAVParameterENS1_9allocatorIS5_EEEEEEvRT_PKc17TransferMetaFlags
sc:invoke_iiiiiiiiiiiiiii
npj:__ZN6il2cpp2os6Thread33UnregisterCurrentThreadForCleanupEv
RQj:_emscripten_glIsRenderbuffer__wrapper
SAd:_Double_System_IConvertible_ToInt32_m549769450_AdjustorThunk
gOc:__ZN2UI11CanvasGroup8TransferI19StreamedBinaryWriteILb0EEEEvRT_
glb:__ZNK20IntermediateRenderer8GetLayerEv
_$i:__ZN6il2cpp5utils9PathUtils7CombineIcEENSt3__212basic_stringIT_NS3_11char_traitsIS5_EENS3_9allocatorIS5_EEEERKSA_RKNS0_10StringViewIS5_EE
Vsb:__ZN15QualitySettings8TransferI14SafeBinaryReadEEvRT_
HTi:__ZN14dense_hash_mapI10KeyWrapperIPK11Il2CppClassEPKcN6il2cpp5utils11PointerHashIS1_EENS4_14EqualsComparerINSt3__28equal_toIS3_EEEENSC_9allocatorINSC_4pairIKS4_S6_EEEEE13set_empty_keyERSI_
LMe:_TextInfo__ctor_m2782608694
yT:__ZN11UnityEngine15CloudWebService17WebFileDownloaderINS0_13WWWRestClientENS0_16WWWRestHeaderMapEE10InitializeERKN4core12basic_stringIcNS5_20StringStorageDefaultIcEEEESB_SB_
gxi:_X509Store_LoadCertificate_m1082475046
ZWe:_StringReader_CheckObjectDisposedException_m3099453260
Lof:_ListDictionary_System_Collections_IEnumerable_GetEnumerator_m2244736244
Xmj:__ZNSt3__26vectorIN6il2cpp2vm5Image20EmbeddedResourceDataENS_9allocatorIS4_EEE21__push_back_slow_pathIS4_EEvOT_
Fzj:__ZN6il2cpp2os9FastMutexD2Ev
p1d:_Array_IndexOf_TisCustomAttributeTypedArgument_t1498197914_m3666284377_gshared
v3e:_Kernel_AddSameSign_m2332657679
l2:__ZN14SerializedFile10ReadObjectEx18ObjectCreationModebPPK8TypeTreePbR6Object
kse:_Collection_1_System_Collections_IList_IndexOf_m3460849589_gshared
a7b:__ZN4Mesh12SetIndexDataEiiPKv16GfxPrimitiveTypei
Psa:__ZN14dynamic_bitset6resizeEjb
HFd:_BaseInputModule_FindCommonRoot_m2696088443
jt:__ZN7mecanim8skeleton16SkeletonPoseCopyIN4math4trsXES3_EEvPKNS0_13SkeletonPoseTIT_EEPNS4_IT0_EE
ITi:__ZN14dense_hash_mapI10KeyWrapperIPK11Il2CppClassEPKcN6il2cpp5utils11PointerHashIS1_EENS4_14EqualsComparerINSt3__28equal_toIS3_EEEENSC_9allocatorINSC_4pairIKS4_S6_EEEEE15set_deleted_keyERSI_
$ta:__ZN9GfxDevice34SetStencilRefWhenStencilWasSkippedEi
PVc:__ZN11UnityEngine7Connect13ConnectConfig20RestoreTimeoutConfigERK13dynamic_arrayIiLj4EEjRS3_
rc:invoke_fi
Aae:_Array_InternalArray__get_Item_TisDecimal_t724701077_m4156246600_gshared
EV:__ZL21InternalAssertConsolePKcz
pc:invoke_ff
Bd:_emscripten_glVertexAttrib3f
O8i:__ZN30dense_hashtable_const_iteratorINSt3__24pairIK10KeyWrapperINS1_IPK11Il2CppImageP11Il2CppClassEEEjEES9_17ReflectionMapHashIS8_EN14dense_hash_mapIS9_jSD_NS9_14EqualsComparerINS0_8equal_toIS8_EEEENS0_9allocatorISB_EEE9SelectKeyESI_SK_EppEv
Jid:_Char_CompareTo_m3044885427
zle:_List_1_System_Collections_IList_IndexOf_m2887559165_gshared
Teh:_ValueCollection__ctor_m1825701219_gshared
gzc:__ZN20TextRenderingPrivate8TextMesh11ApplyToMeshEv
hKj:_emscripten_glDrawRangeElements__wrapper
BXi:__ZN15dense_hashtableINSt3__24pairIK10KeyWrapperIPK11Il2CppClassEPKcEES6_N6il2cpp5utils11PointerHashIS3_EEN14dense_hash_mapIS6_S9_SE_NS6_14EqualsComparerINS0_8equal_toIS5_EEEENS0_9allocatorISA_EEE9SelectKeyESJ_SL_E15insert_noresizeERKSA_
rEb:__Z28scripting_class_is_valuetype17ScriptingClassPtr
_ab:__ZNSt3__25dequeI10InputEventNS_9allocatorIS1_EEE19__add_back_capacityEv
ude:_Enumerator_System_Collections_IEnumerator_Reset_m336811426_AdjustorThunk
VRa:__ZN13ComputeShader13SetValueParamERKN9ShaderLab16FastPropertyNameEiPKv
Gwb:__ZN14BlendShapeDataD2Ev
_Yi:__ZN6il2cpp2vm13MetadataCache25GetIndexForTypeDefinitionEPK11Il2CppClass
DCa:__ZL18ProgramUniform3uivPK7ApiGLESjiihPKv
cfd:_Attribute_IsDefined_m1350918959
_Qc:__Z47CanvasRenderer_Set_Custom_PropHasPopInstructionP12Il2CppObjecth
tOg:_MonoProperty_get_DeclaringType_m4236036432
fTc:__ZN21UnityAnalyticsManager15ThreadedCleanupEv
hCa:__ZN5Image8SetImageEii13TextureFormatb
aEb:__ZN17MessageIdentifier21GetRegisteredMessagesEv
poh:_U3CGetEnumeratorU3Ec__Iterator0_System_Collections_IEnumerator_get_Current_m480171694_gshared
HZd:_Array_InternalArray__ICollection_Contains_TisContentType_t1028629049_m2321684690_gshared
UT:__Z13RegisterClassI23CloudWebServicesManagerEvv
bqj:__ZN6il2cpp2vm5Array3NewEP11Il2CppClassi
Plj:__GLOBAL__sub_I_Image_cpp
FYe:_Math_Sin_m2320256962
UGe:_ReadOnlyCollection_1_System_Collections_Generic_IListU3CTU3E_Insert_m2409570138_gshared
Mke:_List_1_Add_m2123823603_gshared
nia:__ZNSt3__27__sort5IRPFbRKNS_4pairIN9ShaderLab16FastPropertyNameEfEES6_EPS4_EEjT0_SB_SB_SB_SB_T_
bp:establishStackSpace
eLd:_CanvasUpdateRegistry__ctor_m4037208045
tac:__ZN8Material25DidModifyShaderKeywordSetEv
urj:__ZN14dense_hash_mapI10KeyWrapperIPK19Il2CppGenericMethodEP10MethodInfoN6il2cpp8metadata23Il2CppGenericMethodHashENS4_14EqualsComparerINS8_26Il2CppGenericMethodCompareEEENSt3__29allocatorINSD_4pairIKS4_S6_EEEEE15set_deleted_keyERSG_
vIb:__Z29Transfer_Blittable_ArrayFieldI14SafeBinaryRead4AABBEvRT_R9ArrayInfoRK23StaticTransferFieldInfo
sEe:_ReadOnlyCollection_1_System_Collections_IList_RemoveAt_m2396335261_gshared
FVg:_GUIStyle_CalcHeight_m1685124037
WOd:_Dropdown_set_captionImage_m1952025570
B8f:__ZL56g_UnityEngine_UI_Assembly_CustomAttributesCacheGeneratorP21CustomAttributesCache
W6e:_RSAManaged_remove_KeyGenerated_m452989252
Adc:__Z46Register_UnityEngine_RectOffset_get_horizontalv
Fob:__ZN18DelayedCallManager8ClearAllEv
X_:__ZZN15DirectorManager15InitializeClassEvEN47FixedUpdateDirectorFixedUpdatePostPhysicsstruct7ForwardEv
f0a:__ZNK25RenderPrePassObjectSorterclERK16RenderObjectDataS2_
QOb:__Z22TransferField_NonArrayI18StreamedBinaryReadILb1EE27Converter_SimpleNativeClassI8GUIStyleEEvRK23StaticTransferFieldInfoR31RuntimeSerializationCommandInfoRT0_
oe:_Mix_LoadWAV_RW
Q4b:__ZN15DirectorManager14ConnectionPool8AllocateEi
EBi:_Enumerator__ctor_m147705785
Uq:__ZNSt3__27__sort4IRNS_6__lessIN11UnityEngine9Animation13CachedBindingES4_EEPS4_EEjT0_S8_S8_S8_T_
okj:__ZN6il2cpp2gcL12alloc_handleEPNS0_10HandleDataEP12Il2CppObjectb
cOj:_emscripten_glGetAttribLocation__wrapper
hMd:_CanvasScaler_HandleConstantPhysicalSize_m687057631
L3i:_il2cpp_object_get_virtual_method
zQj:b98
sPa:_UNITY_png_write_flush
Q8e:_PKCS12_Encrypt_m1401341763
D4:__ZL16ReadTypeTreeImplILb1EEbR8TypeTreeRK16TypeTreeIteratorRPKhS6_i
APj:b96
Ge:_glBlendEquationSeparate
F2c:_SHA384_Create_m1970724783
mm:_emscripten_glDeleteVertexArrays
pxa:__ZN13GfxDeviceGLES17SetComputeUniformE12ObjectHandleI18ComputeProgram_TagPvER18ComputeShaderParamjPKv
Mhj:__ZN6il2cpp6icalls8mscorlib6System2IO6MonoIO5CloseE12Il2CppIntPtrPi
eQj:_emscripten_glValidateProgram__wrapper
U5e:_SmallXmlParser_ReadComment_m1117342068
Ne:_emscripten_glUniform3fv
wCb:__ZN20ArchiveStorageHeader41GetSizeRequiredToParseHeaderAndBlocksInfoERKNS_6HeaderE
Peb:__Z39GetDefaultApplicationIdentifierForCachev
Wfc:__Z35MonoBehaviour_CUSTOM_StartCoroutineP12Il2CppObjectP12Il2CppStringS0_
$fa:__ZN9ShaderLab7Program14RemoveVariantsERK13dynamic_arrayI16ShaderKeywordSetLj4EE
Egj:__ZN6il2cpp2vm9Exception20GetArgumentExceptionEPKcS3_
Qvc:__Z29Transfer_Blittable_ArrayFieldI8JSONReadiEvRT_R9ArrayInfoRK23StaticTransferFieldInfo
MWh:__Z114RuntimeInvoker_Boolean_t3825574718_Il2CppObject_Il2CppObject_Single_t2076509932_SByte_t454417549_Int32_t2071877448PK10MethodInfoPvPS2_
oOj:_glDrawArrays__wrapper
aO:__ZN9AudioClip27IsFormatSupportedByPlatformERKN4core12basic_stringIcNS0_20StringStorageDefaultIcEEEE
OUb:__ZN9ShaderLab26SerializedShaderDependency8TransferI24GenerateTypeTreeTransferEEvRT_
EEc:_UNITY_FT_Match_Size
YMd:_ColorBlock_Equals_m738243050
Hv:__ZN7mecanim20CreateValueArrayMaskEPKNS_18ValueArrayConstantERNS_6memory9AllocatorE
sEj:_free
opf:_NameObjectCollectionBase_GetEnumerator_m646294968
KUc:__ZN11UnityEngine7Connect14AppUpdateEventC2Ev
f5a:__ZNK10GameObject26GetTypeInfoVirtualInternalEv
ujb:__ZN12ImageFilters17RemoveImageFilterERK11ImageFilter
kWi:__ZN15dense_hashtableINSt3__24pairIK10KeyWrapperI13dynamic_arrayIPK10Il2CppTypeLj4EEEPFvvEEES8_N6il2cpp8metadata19Il2CppSignatureHashEN14dense_hash_mapIS8_SB_SF_NS8_14EqualsComparerINSE_22Il2CppSignatureCompareEEENS0_9allocatorISC_EEE9SelectKeyESJ_SL_E4findERS9_
jJa:__Z32AddPathRemapsForBuiltinResourcesRKN4core12basic_stringIcNS_20StringStorageDefaultIcEEEE
JWg:_IL2CPPStructAlignmentAttribute__ctor_m2555798229
Lzi:_TextGenerator_GetCharacters_m2554471692
CBb:__ZN3WWW6CreateEPKcS1_iRKNSt3__23mapIN4core12basic_stringIcNS4_20StringStorageDefaultIcEEEES8_NS2_4lessIS8_EENS2_9allocatorINS2_4pairIKS8_S8_EEEEEEb7Hash128j
P4e:_DSAManaged_remove_KeyGenerated_m61544860
$_:__ZZN15DirectorManager15InitializeClassEvEN39PostLateUpdateDirectorRenderImagestruct7ForwardEv
wJb:__ZL26Transfer_SimpleNativeClassI17RemapPPtrTransfer17AnimationCurveTplIfELb0EEvRK29SerializationCommandArgumentsR31RuntimeSerializationCommandInfo
Sui:_KeyUsageExtension_Decode_m4115739726
om:_glDeleteTransformFeedbacks
sf:_JS_WebRequest_Send
stj:__ZN6il2cpp2os4Time31GetTicks100NanosecondsMonotonicEv
pqj:__ZNSt3__26__treeINS_12basic_stringIcNS_11char_traitsIcEENS_9allocatorIcEEEENS_4lessIS6_EENS4_IS6_EEE16__construct_nodeIJRKS6_EEENS_10unique_ptrINS_11__tree_nodeIS6_PvEENS_22__tree_node_destructorINS4_ISH_EEEEEEDpOT_
Tpd:_Stack_Clear_m771767447
uQe:_Int64_System_IConvertible_ToUInt16_m2638682734
pJf:__ZL102ChannelServices_t2007814595_CustomAttributesCacheGenerator_ChannelServices_RegisterChannel_m3832858065P21CustomAttributesCache
OMj:_emscripten_glGenRenderbuffers__wrapper
uFj:__ZNK10__cxxabiv117__class_type_info24process_found_base_classEPNS_19__dynamic_cast_infoEPvi
aFi:_Nullable_1_Equals_m1889119397_AdjustorThunk
ZUg:_GUIStyle_Draw_m3134455812
fZi:__ZN6il2cpp2vm13MetadataCache21GetFieldInfoFromIndexEj
AYh:__Z98RuntimeInvoker_Void_t1841601450_Int32_t2071877448_Int32_t2071877448_Int32_t2071877448_Il2CppObjectPK10MethodInfoPvPS2_
X4g:_Raycast2DCallback_BeginInvoke_m4219004388
iLh:__Z57RuntimeInvoker_Il2CppObject_Int64_t909078037_Il2CppObjectPK10MethodInfoPvPS2_
kQa:_UNITY_png_write_PLTE
dsj:__GLOBAL__sub_I_String_cpp
Qof:_ListDictionary_FindEntry_m432748847
uq:__ZNSt3__26vectorIN4core12basic_stringIcNS1_20StringStorageDefaultIcEEEENS_9allocatorIS5_EEE6assignINS_11__wrap_iterIPS5_EEEENS_9enable_ifIXaasr21__is_forward_iteratorIT_EE5valuesr16is_constructibleIS5_NS_15iterator_traitsISE_E9referenceEEE5valueEvE4typeESE_SE_
U6h:_AudioSettings_InvokeOnAudioConfigurationChanged_m3225073778
t2i:_il2cpp_init
wNc:__ZNSt3__26__treeIPN2UI14CanvasRendererENS_4lessIS3_EENS_9allocatorIS3_EEE7destroyEPNS_11__tree_nodeIS3_PvEE
F3:__ZNK15dense_hashtableINSt3__24pairIKPKcPK4RTTIEES3_N11TypeManager23ConstCharPtrHashFunctorEN14dense_hash_mapIS3_S7_SA_NS9_19ConstCharPtrEqualToE13stl_allocatorIS8_L18MemLabelIdentifier6ELi16EEE9SelectKeyESC_SF_E23find_position_with_hashERS4_j
uec:__Z35Register_UnityEngine_Screen_get_dpiv
cZg:_Mesh_get_normals_m1837187359
tuc:__ZN8JSONRead8TransferIxEEvRT_PKc17TransferMetaFlagsb
o0:__ZN13SpeedTreeWind7AdvanceEbd
PPe:_Int32_TryParse_m2941352213
mza:__ZN18GlslGpuProgramGLES19ApplyGpuProgramGLESERK20GpuProgramParametersPKh
Dac:__ZN9Transform16SetLocalPositionERK8Vector3f
aTd:_LayoutGroup_GetTotalMinSize_m2600700952
WPb:__Z15Transfer_StringI18StreamedBinaryReadILb0EELb0EEvRK29SerializationCommandArgumentsR31RuntimeSerializationCommandInfo
hK:__ZN12SoundManagerC2Ev
iEc:_UNITY_tt_face_free_name
yRj:_emscripten_glSampleCoverage__wrapper
p8d:_Array_Sort_TisUICharInfo_t3056636800_m37864585_gshared
Kdi:_AnimationOffsetPlayable_get_position_m1047192220
WOj:_emscripten_glGetUniformfv__wrapper
wDa:__ZN14DataBufferGLES3MapEjjj
ywh:_InternalEnumerator_1_System_Collections_IEnumerator_get_Current_m771161214_gshared
Eo:FUNCTION_TABLE_fidi
l_b:__Z13RegisterClassI9TransformEvv
YXh:__Z132RuntimeInvoker_Il2CppObject_Ray_t2469606224_RaycastHitU26_t1969197280_Single_t2076509932_Int32_t2071877448_Il2CppObject_Il2CppObjectPK10MethodInfoPvPS2_
_ha:__ZN18UnityPropertySheet11UnityTexEnv8TransferI19StreamedBinaryWriteILb0EEEEvRT_
Uhi:_ResourceInfo_t3933049236_marshal_pinvoke_back
Hwj:_GC_make_descriptor
M8i:__ZNK15dense_hashtableINSt3__24pairIK10KeyWrapperINS1_IPK11Il2CppImageP11Il2CppClassEEEjEES9_17ReflectionMapHashIS8_EN14dense_hash_mapIS9_jSD_NS9_14EqualsComparerINS0_8equal_toIS8_EEEENS0_9allocatorISB_EEE9SelectKeyESI_SK_E5beginEv
C2i:_il2cpp_array_new
R2d:_Array_InternalArray__ICollection_Add_TisDictionaryEntry_t3048875398_m279246399_gshared
fki:_ChannelServices_GetCurrentChannelInfo_m4080942430
yI:__ZN4FMOD3DSP8getInputEiPPS0_PPNS_13DSPConnectionE
b4:__ZN20dynamic_block_vectorI14FileIdentifierE5clearEv
z2b:__ZZN5Light15InitializeClassEvEN31FunctorImpl_36kTransformChanged4CallEPviR11MessageData
Owb:__ZN10MeshFilter23VirtualRedirectTransferER17RemapPPtrTransfer
fDc:_ft_outline_glyph_bbox
vJi:_IndexedSet_1_RemoveAll_m2736534958_gshared
$Bc:_UNITY_FT_Done_Library
Nbh:_VertexHelper__cctor_m1150948588
LPc:__ZN2UI13CanvasManager17EmitDataForCameraEP6Camera
knj:__ZN6il2cpp2vm6Object16GetVirtualMethodEP12Il2CppObjectPK10MethodInfo
SXh:__Z70RuntimeInvoker_Single_t2076509932_Int32_t2071877448_Single_t2076509932PK10MethodInfoPvPS2_
S6h:_PCMSetPositionCallback_BeginInvoke_m2507142524
jhc:__Z44Register_UnityEngine_Material_GetTextureImplv
azc:__ZN13sorted_vectorIN20TextRenderingPrivate8FontImpl13CharacterInfoENSt3__24lessIS2_EE13stl_allocatorIS2_L18MemLabelIdentifier34ELi16EEE10insert_oneERKS2_
bBi:_Transform_INTERNAL_set_localPosition_m432504087
EOj:_glUniform3uiv__wrapper
waa:__ZL8MainLoopv
yEg:_Binder_ConvertArgs_m2999223281
eIg:_TypeBuilder_IsDefined_m3186251655
wRc:__Z47Register_UnityEngine_CanvasRenderer_SetMaterialv
Rki:_ConfigHandler_ValidatePath_m3188987489
Xwc:__ZN11UnityEngine9Analytics16StartupTimeEvent23SetAssembliesTimingInfoEyy
RBc:__Z26CleanupTextRenderingModulev
q$e:_NumberFormatter_get_IntegerDigits_m3972411141
jxb:__ZThn32_N12MeshRendererD1Ev
Tca:__ZN13RenderTexture23VirtualRedirectTransferER19StreamedBinaryWriteILb0EE
Fch:_ShimEnumerator_MoveNext_m2728191736_gshared
TAg:_UInt64_System_IConvertible_ToInt32_m930227577_AdjustorThunk
Asj:__ZN6il2cpp2vm13ComObjectBase17GetMarshalSizeMaxERK10Il2CppGuidPvjS5_jPj
w1b:__ZN9TransformC2E18MemLabelIdentifier18ObjectCreationMode
qEj:_truncate
yVb:__ZN9ShaderLab27SerializedShaderVectorValue8TransferI18StreamedBinaryReadILb0EEEEvRT_
Mrb:__ZN8Renderer21RendererBecameVisibleEv
NFe:_ReadOnlyCollection_1_System_Collections_Generic_ICollectionU3CTU3E_Clear_m2503787861_gshared
NDj:___stpncpy
bve:_Collection_1_System_Collections_IList_Add_m669232520_gshared
Zne:_List_1_RemoveAt_m1843849279_gshared
O$:__ZN10MemoryPool16StaticInitializeEPv
i9:__ZN11TypeManager21CleanupGlobalInstanceEv
Iyg:_TypedReference_GetHashCode_m3498861551_AdjustorThunk
LSc:__ZN11UnityEngine9Analytics15UserCustomEvent3AddEPKcRKN4core12basic_stringIcNS4_20StringStorageDefaultIcEEEE
N:Math_atan
y5i:__ZNSt3__212basic_stringIcNS_11char_traitsIcEENS_9allocatorIcEEE6__initIPKcEENS_9enable_ifIXsr21__is_forward_iteratorIT_EE5valueEvE4typeESA_SA_
fH:__ZNK10SampleClip11GetResourceEv
cKa:__ZN4core12basic_stringIcNS_20StringStorageDefaultIcEEE6resizeEj
inc:__Z43Register_UnityEngine_Event_set_displayIndexv
Cyh:_InternalEnumerator_1_System_Collections_IEnumerator_get_Current_m2821735692_AdjustorThunk
lxc:__GLOBAL__sub_I_CmEventProfiler_cpp
scf:_PrimalityTests_GetSPPRounds_m873706010
wHe:_ReadOnlyCollection_1_System_Collections_Generic_IListU3CTU3E_Insert_m584948331_gshared
deh:_Enumerator_Dispose_m1323464986_AdjustorThunk
Phb:__ZN17GlobalGameManager23VirtualRedirectTransferER24GenerateTypeTreeTransfer
lVe:_MemoryStream_ToArray_m547789004
AWc:__ZN19UnityConnectServiceD0Ev
yUe:_MonoIO_SetLength_m1019790894
MBg:_UIntPtr_ToString_m387842486
Rjb:__ZNSt3__26vectorIfNS_9allocatorIfEEE8__appendEjRKf
tVc:__ZN11UnityEngine15PlatformWrapper21GetCopyTextureSupportEv
bRd:_Graphic_get_depth_m3526566553
RO:__ZN11AudioModule27IsFormatSupportedByPlatformEPKc
umd:_CollectionBase_get_InnerList_m44314156
WBd:_Enum_System_IConvertible_ToUInt32_m3575456858
rcg:__ZL61Image_t2042527209_CustomAttributesCacheGenerator_m_FillAmountP21CustomAttributesCache
bRg:_WindowFunction_BeginInvoke_m322627481
lib:__ZNSt3__26vectorI17SortingLayerEntryNS_9allocatorIS1_EEE6assignINS_11__wrap_iterIPS1_EEEENS_9enable_ifIXaasr21__is_forward_iteratorIT_EE5valuesr16is_constructibleIS1_NS_15iterator_traitsISA_E9referenceEEE5valueEvE4typeESA_SA_
zbc:__Z48Register_UnityEngine_AsyncOperation_set_priorityv
npb:__ZN9Texture2D5ResetEv
Jvc:__Z19TransferField_ArrayI8JSONRead16Converter_StringEvRK23StaticTransferFieldInfoR31RuntimeSerializationCommandInfoRT0_
Vbb:__ZNK25ThreadsafeLinearAllocator22GetAllocatedMemorySizeEv
UHc:_cff_size_request
nob:__ZN15DirectorManager14ConnectionPool12SwitchBucketEP14ConnectionList
Mxg:_Type_EqualsInternal_m266086934
KNc:__ZN2UI11CompareFuncEPNS_6CanvasES1_
mJ:__ZN4FMOD7Channel11set3DSpreadEf
Uzj:__ZN6il2cpp2os6Memory14AlignedReAllocEPvjj
W:Math_fround
tHc:_pshinter_get_t1_funcs
Rpa:__ZN24GenerateTypeTreeTransfer16TransferTypelessEPjPKc17TransferMetaFlags
pwg:_TimeSpan_get_TotalMinutes_m1645177229
z7e:_SymmetricTransform_InternalTransformBlock_m55428483
ECa:__ZL18ProgramUniform4uivPK7ApiGLESjiihPKv
OZe:_LongComparer_Compare_m398047722
vlh:_EqualityComparer_1_System_Collections_IEqualityComparer_Equals_m2170611288_gshared
Xed:_Attribute_CheckParameters_m1754681684
$rg:_UnicodeEncoding_GetByteCount_m2761661599
LYa:__ZN10builtintex21GetAttenuationTextureEv
Om:FUNCTION_TABLE_viiiiiiiiiiiiiii
I8g:_Selectable_TriggerAnimation_m3096883407
v7b:__ZNK4Mesh19CanAccessFromScriptEv
uW:__Z15GetGraphicsCapsv
dya:__ZN7ApiGLES15BindVertexArrayEN2gl6HandleILNS0_10ObjectTypeE3EEE
L2b:__ZZL23RegisterLightPropertiesR22GenericPropertyBindingEN21Wrapper_LightDrawHalo13GetFloatValueEPv
Tx:__ZN17AnimationPlayable17GetAnimationClipsER13dynamic_arrayIP13AnimationClipLj4EE
ONh:__Z153RuntimeInvoker_Int32_t2071877448_Il2CppObject_Int32_t2071877448_Int32_t2071877448_Int32_t2071877448_SByte_t454417549_SByte_t454417549_Int32U26_t455636984PK10MethodInfoPvPS2_
uZa:__Z20IntersectionAABBAABBRK10MinMaxAABBS1_PS_
_9i:__ZN30dense_hashtable_const_iteratorINSt3__24pairIK10KeyWrapperINS1_IPK9EventInfoP11Il2CppClassEEEjEES9_17ReflectionMapHashIS8_EN14dense_hash_mapIS9_jSD_NS9_14EqualsComparerINS0_8equal_toIS8_EEEENS0_9allocatorISB_EEE9SelectKeyESI_SK_EppEv
Vwg:_TimeSpan_op_GreaterThan_m2202243191
jZb:__ZN18BackgroundJobQueue29ScheduleMainThreadJobInternalEPFvPvES0_
zuf:_X509Chain_IsSelfIssued_m2009755967
$Nc:__ZN2UI11CanvasGroup23VirtualRedirectTransferER24GenerateTypeTreeTransfer
PFb:__Z18Transfer_BlittableI14SafeBinaryReadLb1EhEvRK29SerializationCommandArgumentsR31RuntimeSerializationCommandInfo
lwd:_DateTime_GetTimeMonotonic_m4135038456
Grg:_StringBuilder_Append_m3636508479
dc:invoke_viifff
G1:__Z22DestroyObjectHighLevelP6Objectb
HWa:__Z26BeginRenderQueueExtractionR15RenderNodeQueuePK16RendererCullDataRK13CullingOutputPK12LODDataArray15ExtractionFlagsP18JobBatchDispatcher
Ufi:_AnimatorControllerPlayable_GetParametersArrayInternal_m851504719
$yc:__ZNK13TextRendering4Font10GetTextureEv
U$c:_SymmetricAlgorithm_set_KeySize_m270664177
lj:_emscripten_glVertexAttrib3fv
zgg:__ZL49Shadow_t4269599528_CustomAttributesCacheGeneratorP21CustomAttributesCache
ufj:__ZN6il2cpp6icalls8mscorlib6System9Threading6Thread16SetName_internalEP12Il2CppThreadP12Il2CppString
pj:_glBeginTransformFeedback
$if:_Context_ClearKeyInfo_m205678623
Kqa:__ZN18JobBatchDispatcherC2E11JobPriorityi
blc:__ZN8GUIStyle14GetBuiltinFontEv
Dwa:__ZN9GfxDevice13EndFrameStatsEv
U0b:__Z7Empty2DP9Texture2DPhiiii
uRe:_IntPtr_ToString_m1500137303_AdjustorThunk
nJd:_RaycasterManager__cctor_m3713028899
gke:_List_1_CheckCollection_m1228076404_gshared
k9h:_CanvasRenderer_CreateUIVertexStreamInternal_m2886336395
hEi:_SymmetricTransform_ThrowBadPaddingException_m2553969731
KL:__ZL34StaticDestroyAudioCustomFilterRootPv
DSa:__ZN19ComputeShaderKernelD2Ev
ZYb:__ZN10systeminfo21GetTemporaryCachePathEv
x1b:__ZZN8Renderer15InitializeClassEvEN28FunctorImpl_138kLayerChanged4CallEPviR11MessageData
Mxe:_Collection_1_IsValidItem_m2164075061_gshared
Jld:_SynchronizedArrayListWrapper_Sort_m494386848
Wvc:__ZN9rapidjson12PrettyWriterI16TempBufferWriterNS_4UTF8IcEES3_13JSONAllocatorE12PrettyPrefixENS_4TypeE
MMa:__ZN15ArchiveReadFile4ReadEyyPvPy
zOh:__Z81RuntimeInvoker_Void_t1841601450_Il2CppObject_Double_t4078015681_Int32_t2071877448PK10MethodInfoPvPS2_
lXb:__ZN12ScriptMapper8TransferI14SafeBinaryReadEEvRT_
Uif:_Context_set_ClientWriteKey_m1137238126
LKb:__Z18Transfer_BlittableI24GenerateTypeTreeTransferLb1E10Matrix4x4fEvRK29SerializationCommandArgumentsR31RuntimeSerializationCommandInfo
esi:_Expression_GetFixedWidth_m2900825908
kD:__Z10SetLocalTR15TransformAccessRKN4math7_float3ERKNS0_7_float4E
TKi:_GenericEqualityComparer_1_Equals_m1663005117_gshared
C9h:_Color_ToString_m4028093047_AdjustorThunk
tGg:_ILGenerator_Mono_GetCurrentOffset_m3553856682
Psc:__ZN9JSONWrite8TransferI10Matrix4x4fEEvRT_PKc17TransferMetaFlags
yAf:__ZL58Decimal_t724701077_CustomAttributesCacheGenerator_MinValueP21CustomAttributesCache
mJc:_cf2_hintmap_map
zee:_Enumerator_VerifyState_m3639069574_AdjustorThunk
cJf:__ZL50_Module_t2144668161_CustomAttributesCacheGeneratorP21CustomAttributesCache
lIb:__ZN15SerializeTraitsI5RectTIfEE8TransferI14SafeBinaryReadEEvRS1_RT_
hYg:_Mathf_CeilToInt_m2672598779
Lra:__ZNK14SerializedFile15GetTypeIfExistsEx
Xhc:__Z41Register_UnityEngine_Texture_get_wrapModev
NAc:_UNITY_FT_Raccess_Get_DataOffsets
rwf:_X509Extension_CopyFrom_m2644634650
f5b:__ZN14PlayableOutputC2EjP13PlayableGraph
Yrb:__ZThn32_NK8Renderer11GetMaterialEi
JVb:__ZN9ShaderLab20SerializedSubProgram8TransferI19StreamedBinaryWriteILb0EEEEvRT_
vTc:__Z13RegisterClassI21UnityAnalyticsManagerEvv
fNf:__ZL118SecurityManager_t3191249573_CustomAttributesCacheGenerator_SecurityManager_t3191249573____SecurityEnabled_PropertyInfoP21CustomAttributesCache
Mhe:_List_1_System_Collections_IList_Insert_m813883425_gshared
wji:_SafeHandle_Dispose_m3871883741
ik:_unsetenv
Sta:__ZN9GfxDevice29GetMinimumNodesPerGraphicsJobEv
Xvb:__ZN17BlendShapeChannel8TransferI24GenerateTypeTreeTransferEEvRT_
eQg:_GameObject_SendMessage_m71956653
s0g:_Rect_set_yMin_m734445288_AdjustorThunk
bwj:_GC_init_size_map
ZHh:__Z131RuntimeInvoker_Void_t1841601450_Int32_t2071877448_Il2CppObject_Il2CppObject_Il2CppObject_Il2CppObject_Il2CppObject_SByte_t454417549PK10MethodInfoPvPS2_
v$:__ZN15DirectorManager17OnSampleFixedTimeEv
E1a:__ZNK13RendererScene21GetDynamicObjectCountEv
leh:_Enumerator_System_Collections_IEnumerator_get_Current_m1805365227_AdjustorThunk
Vtj:_GC_is_black_listed
uVd:_InputField_set_caretSelectPositionInternal_m2063243072
nLb:__ZN24GenerateTypeTreeTransfer32TransferSTLStyleArrayWithElementI23ManagedObjectTransfererEEvRT_17TransferMetaFlags
Gxh:_InternalEnumerator_1_System_Collections_IEnumerator_get_Current_m3043347404_AdjustorThunk
qUe:_WriteDelegate_BeginInvoke_m2985235908
yxd:_DateTimeOffset_get_Offset_m2335492074_AdjustorThunk
vei:_AnimatorControllerPlayable_INTERNAL_CALL_SetBoolID_m2987425503
Q0g:_RectOffset_Cleanup_m3198970074
Qoc:__Z42Register_UnityEngine_GUIStyle_set_wordWrapv
eCc:_UNITY_FT_Destroy_Class_tt_driver_class
fKh:__Z56RuntimeInvoker_Il2CppObject_StreamingContext_t1417235061PK10MethodInfoPvPS2_
dPe:_Int32_System_IConvertible_ToChar_m719315943_AdjustorThunk
eAj:__ZN6il2cpp6icalls8mscorlib6System7Runtime8Remoting16RemotingServices16GetVirtualMethodEP20Il2CppReflectionTypeP22Il2CppReflectionMethod
yoi:_Match__ctor_m478172746
Pbc:__Z42Register_UnityEngine_Behaviour_get_enabledv
IYe:_Math_Pow_m3099781906
A4i:__ZN6il2cpp2vm14TypeNameParser23ParseNestedTypeOptionalERi
t_e:_MonoType_ReorderParamArrayArguments_m979187413
lbf:_BigInteger_ToString_m1842353154
Ezj:__ZN6il2cpp2os13FastMutexImplC2Ev
qUc:__ZN22BaseUnityConnectClient14QueueCoreEventERN11UnityEngine15CloudWebService17CloudServiceEventEb
frh:_InternalEnumerator_1_get_Current_m2882946014_gshared
_Ab:__ZN30RuntimeInitializeOnLoadManager9ClassInfo8TransferI14SafeBinaryReadEEvRT_
$ii:_GCHandle_Equals_m170815541_AdjustorThunk
UZa:__ZL13RenderCastersiRK8Vector3fS1_RK13ShadowJobDataR17ShaderPassContextRKNSt3__26vectorI16ShadowCasterData13stl_allocatorIS9_L18MemLabelIdentifier2ELi16EEEERKNS8_I20ShadowCasterPartDataSA_ISG_LSB_2ELi16EEEERK15RenderNodeQueuebPKj
hl:_emscripten_glGetShaderInfoLog
m5i:__ZNSt3__26vectorIiNS_9allocatorIiEEE8allocateEj
_Nf:__ZL100CompressedStack_t1568001503_CustomAttributesCacheGenerator_CompressedStack_GetObjectData_m2387204186P21CustomAttributesCache
H0c:_RIPEMD160Managed_Compress_m3844168032
Kxd:_DBNull_System_IConvertible_ToInt32_m3596596664
SOe:_Int16_ToString_m1247017262_AdjustorThunk
Z0g:_RectTransform_get_anchorMax_m3816015142
MEc:_UNITY_ft_glyphslot_set_bitmap
D2:__ZN24GenerateTypeTreeTransfer18SetScriptingObjectE18ScriptingObjectPtri
k1g:_RectTransform_INTERNAL_get_pivot_m3003734630
uPe:_Int32_System_IConvertible_ToType_m573330549_AdjustorThunk
fFg:_CustomAttributeTypedArgument_Equals_m1555989603
Woj:__ZN6il2cpp2os6ThreadC2EPNS0_10ThreadImplE
UMe:_TextInfo_ToUpper_m299550697
Oib:__Z29FindReflectionProbeFromAnchorP9TransformRK4AABBRS1_RsS5_
KEd:_CultureInfo_insert_into_shared_tables_m348522444
Qyf:_Interval_Merge_m1170166798
mvb:__ZN14SafeBinaryRead21TransferSTLStyleArrayI13dynamic_arrayI13BoneInfluenceLj16EEEEvRT_17TransferMetaFlags
iLc:_Read_CVT_Stretched
g1i:__ZN6il2cpp6icalls8mscorlib6System18CollectTypeMethodsINS_5utils10functional10TrueFilterEEEvP11Il2CppClassPKS7_jRKT_RNSt3__26vectorIPK10MethodInfoNSE_9allocatorISI_EEEERA65535_b
Gaa:__Z14SetPlayerPause11PlayerPauseb
XCi:_Vector3_op_Equality_m305888255
cQd:_FontData_get_defaultFontData_m3296571046
jmb:__ZNK11LightProbes26GetTypeInfoVirtualInternalEv
OVd:_InputField_InPlaceEditing_m1040314765
d_:__Z30scripting_stack_trace_info_for21ScriptingExceptionPtrR14StackTraceInfo
fJj:_glCompressedTexSubImage3D__wrapper
twg:_TimeSpan_Add_m3228293154_AdjustorThunk
k9i:__ZN15dense_hashtableINSt3__24pairIK10KeyWrapperINS1_IPK12PropertyInfoP11Il2CppClassEEEjEES9_17ReflectionMapHashIS8_EN14dense_hash_mapIS9_jSD_NS9_14EqualsComparerINS0_8equal_toIS8_EEEENS0_9allocatorISB_EEE9SelectKeyESI_SK_EC2ERKSN_j
HI:__ZN15AudioReverbZone7CleanupEv
zGa:__ZN10BufferGLESD0Ev
uxh:_InternalEnumerator_1_System_Collections_IEnumerator_get_Current_m790514740_gshared
b6c:__Z9NullCheckPv
eXc:__ZN22UnityAnalyticsSettings8TransferI14SafeBinaryReadEEvRT_
CEb:__ZN9Scripting35ErrorMessageForUnsupportedEnumFieldE17ScriptingFieldPtr
uJc:_cf2_hintmask_isNew
mQa:_UNITY_png_write_bKGD
e5d:_Array_InternalArray__Insert_TisIntPtr_t_m3232864760_gshared
Bla:__ZN6prcoreL26RemapGenericIntegerToFloatI17TexFormatARGB888818TexFormatARGBFloatEEvPKNS_9InnerInfoE
KOa:__ZN15TextureSettings14GetAnisoLimitsERiS0_
iPi:__ZL24UnresolvedVirtualCall_10P12Il2CppObjectPK10MethodInfo
SNj:_emscripten_glCompressedTexSubImage2D__wrapper
wqg:_DSA_FromXmlString_m2141326025
BVg:_GUIStyle_CalcSizeWithConstraints_m4117833199
nBi:_Transform_INTERNAL_set_localScale_m3680777866
K$i:__ZN6il2cpp2vmL29SocketPollingThreadEntryPointEPv
mwd:_DateTime_GetNow_m1004310079
$vb:__ZN10Matrix4x4f8TransferI18StreamedBinaryReadILb0EEEEvRT_
Qnf:_SslStreamBase_get_Length_m763159069
qIe:_Comparison_1_Invoke_m4190993814_gshared
uM:__ZN4FMOD7Channel19getReverbPropertiesEP29FMOD_REVERB_CHANNELPROPERTIES
hAd:_StackFrame_GetSecureFileName_m389986943
Alg:_FormatterConverter_ToInt16_m2774942580
fMd:_CanvasScaler_HandleConstantPixelSize_m229625308
kMd:_CanvasUpdateRegistry_PerformUpdate_m2200492017
SLh:__Z88RuntimeInvoker_Boolean_t3825574718_Int16_t4041245914_Int16_t4041245914_Int32_t2071877448PK10MethodInfoPvPS2_
Ryg:_UInt16_System_IConvertible_ToByte_m806893944_AdjustorThunk
xsg:_UTF32Encoding_GetCharCount_m3319809517
a9b:__Z12CancelInvokeR13MonoBehaviourR11ICallString
EQg:_GUILayout_Height_m607115982
Y0i:__ZN6il2cpp6icalls8mscorlib6System8MonoType13GetInterfacesEP20Il2CppReflectionType
nhb:__ZN5Cache32GetCachingDiskSpaceFreeAndUsableEv
XN:__ZN9AudioClip16EnableLegacyModeEv
PAb:__ZN14SafeBinaryRead21TransferSTLStyleArrayINSt3__26vectorIi13stl_allocatorIiL18MemLabelIdentifier12ELi16EEEEEEvRT_17TransferMetaFlags
Ilf:_RecordProtocol_InternalSendRecordCallback_m3984764857
Hde:_Enumerator_System_Collections_IEnumerator_get_Current_m3461301268_AdjustorThunk
$ei:_AnimatorControllerPlayable_get_layerCount_m3541790599
lpj:__ZN6il2cpp2os6Thread22SetNativeThreadCleanupEPFvPvE
H2i:_il2cpp_class_from_system_type
fS:__ZN11UnityEngine15CloudWebService13WWWRestClient6IsDoneEv
DPa:_unity_z_crc32
Aka:__ZN6prcoreL17RemapGenericFloatI18TexFormatRGBAFloat16TexFormatRGFloatEEvPKNS_9InnerInfoE
N0e:_MSCompatUnicodeTable_FillCJKCore_m1100372933
x0i:__ZN6il2cpp6icalls8mscorlib6System8MonoType8get_NameEP20Il2CppReflectionType
GHb:__ZNSt3__26vectorI10RectOffset13stl_allocatorIS1_L18MemLabelIdentifier1ELi16EEE8__appendEj
Hrd:_DateTime_op_Inequality_m1607380213
Yw:__ZN21AnimationClipPlayable22PrepareAnimationEventsEfR13dynamic_arrayI22AnimationClipEventInfoLj4EE
QOi:__ZN6il2cpp2vm5Class12HasAttributeEP11Il2CppClassS3_
oZd:_Array_InternalArray__ICollection_Contains_TisResourceCacheItem_t333236149_m1769941464_gshared
zai:_ContextMenu__ctor_m3931483141
Ro:FUNCTION_TABLE_ff
To:FUNCTION_TABLE_fi
aFd:_BaseEventData_set_selectedObject_m2198139983
ww:__ZNSt3__227__insertion_sort_incompleteIRN11UnityEngine9Animation11BindingSortEPNS_4pairINS2_14GenericBindingEPNS2_10BoundIndexEEEEEbT0_SB_T_
HAj:__ZN6il2cpp2vm16GenericContainer19GetGenericParameterEPK22Il2CppGenericContainert
zid:_Char_System_IConvertible_ToSingle_m2547558725_AdjustorThunk
NRg:_GUILayoutEntry_ApplyOptions_m115321759
yAb:__ZN18StreamedBinaryReadILb0EE21TransferSTLStyleArrayINSt3__26vectorIN15ResourceManager10DependencyE13stl_allocatorIS5_L18MemLabelIdentifier51ELi16EEEEEEvRT_17TransferMetaFlags
ud:_emscripten_glGetAttribLocation
_3:__ZNSt3__26vectorINS_4pairIiiEE13stl_allocatorIS2_L18MemLabelIdentifier37ELi16EEE6insertENS_11__wrap_iterIPKS2_EERS8_
bL:__ZN4FMOD12ChannelGroup14getParentGroupEPPS0_
emf:_SslClientStream_add_ServerCertValidation_m684653638
yd:_emscripten_set_blur_callback
Kzi:_TextGenerator_Invalidate_m3217235344
Gdi:_AnimationClipPlayable_SetRemoveStartOffset_m495055486
pKj:___cxa_pure_virtual__wrapper
YBa:__ZNK14ImageReference9ClipImageEiiii
H_a:__ZN10Matrix4x4f30SetPositionAndOrthoNormalBasisERK8Vector3fS2_S2_S2_
ijb:__ZN5RectTIfE8TransferI24GenerateTypeTreeTransferEEvRT_
Eki:_CrossAppDomainSink__cctor_m1547233779
j0e:_TableRange__ctor_m1944319286_AdjustorThunk
pUa:__ZN12FlareManager6UpdateEv
NKj:_glColorMask__wrapper
VIf:__ZL59_ConstructorInfo_t3269099341_CustomAttributesCacheGeneratorP21CustomAttributesCache
t4g:_RawImage_get_mainTexture_m3865646934
A8e:_X509CertificateEnumerator_MoveNext_m1031936092
ehj:__ZN6il2cpp6icalls8mscorlib6System4Type29GetGenericTypeDefinition_implEP20Il2CppReflectionType
Sra:__ZN13LoadOperation7PerformEv
thf:_TlsStream__ctor_m2982031560
Wsf:_X509EnhancedKeyUsageExtension__ctor_m4050164330
Pui:_GeneralNames_get_IPAddresses_m1712556836
BPb:__ZN18StreamedBinaryReadILb1EE8TransferI8Vector3fEEvRT_PKc17TransferMetaFlags
uwh:_InternalEnumerator_1_get_Current_m2198364332_AdjustorThunk
Tma:__ZN27GenericSlowGarbageCollector16ProcessReferenceEi
Sjg:_RealProxy_InternalGetProxyType_m858618403
_Cd:_FieldAccessException__ctor_m1240495912
nui:_Uri_HexUnescapeMultiByte_m25670899
ZLd:_CanvasScaler_set_dynamicPixelsPerUnit_m742632820
gDj:_fopen
wBc:__ZN20TextRenderingPrivate8FontImplD2Ev
NT:__ZN19CloudServiceHandler8SaveFileERKN4core12basic_stringIcNS0_20StringStorageDefaultIcEEEEPKvj
jtd:_Convert_ToInt16_m2211588645
pwf:_X509EnhancedKeyUsageExtension_CopyFrom_m1426370958
Eqc:__ZN9rapidjson13GenericReaderINS_4UTF8IcEES2_13JSONAllocatorE10ParseValueILj1ENS_25GenericInsituStringStreamIS2_EENS_15GenericDocumentIS2_S3_S3_EEEEvRT0_RT1_
HLj:_glFramebufferTexture2D__wrapper
KAj:__ZN6il2cpp6icalls8mscorlib6System7Runtime8Remoting7Proxies9RealProxy27InternalGetTransparentProxyEP12Il2CppObjectP12Il2CppString
Hne:_List_1_AddEnumerable_m1000825969_gshared
Qpj:__ZN6il2cpp2vm6Method10IsInflatedEPK10MethodInfo
suj:_GC_remove_header
AMe:_RegionInfo_GetHashCode_m1038358761
LTi:__ZN15dense_hashtableINSt3__24pairIK10KeyWrapperIPK11Il2CppClassEPKcEES6_N6il2cpp5utils11PointerHashIS3_EEN14dense_hash_mapIS6_S9_SE_NS6_14EqualsComparerINS0_8equal_toIS5_EEEENS0_9allocatorISA_EEE9SelectKeyESJ_SL_E14squash_deletedEv
kib:__ZNSt3__26vectorI17SortingLayerEntryNS_9allocatorIS1_EEE7reserveEj
pif:_Context_set_MasterSecret_m1422386411
Kmb:__ZN11Tetrahedron8TransferI14SafeBinaryReadEEvRT_
_Mb:__Z19TransferField_ArrayI19StreamedBinaryWriteILb0EE27Converter_UnityEngineObjectEvRK23StaticTransferFieldInfoR31RuntimeSerializationCommandInfoRT0_
j7i:__ZN15dense_hashtableINSt3__24pairIK10KeyWrapperIPK10Il2CppTypeEjEES6_N6il2cpp8metadata14Il2CppTypeHashEN14dense_hash_mapIS6_jSB_NS6_14EqualsComparerINSA_26Il2CppTypeEqualityComparerEEENS0_9allocatorIS8_EEE9SelectKeyESF_SH_E6insertERKS8_
Nef:_RSAManaged_ToXmlString_m2606223477
vqi:_CharacterClass__ctor_m1318163925
oEg:_AssemblyName_GetObjectData_m1221677827
IRa:__ZN8Renderer27EnsureTransformInfoUpToDateEv
I9:__ZN15dense_hashtableINSt3__24pairIKN4core12basic_stringIcNS2_20StringStorageDefaultIcEEEEP11AssetBundleEES6_20StringHash32FunctionIS6_EN14dense_hash_mapIS6_S9_SC_NS0_8equal_toIS6_EENS0_9allocatorISA_EEE9SelectKeyESF_SH_E9copy_fromERKSK_j
qQj:_emscripten_glFrontFace__wrapper
obi:_Display_GetRenderingExtImpl_m3739199112
La:invoke_fiffi
ezj:__ZN6il2cpp5utils6Memory6CallocEjj
s4:__ZN14SerializedFile14SerializedType8ReadTypeILb1EEEbibRPKhS3_Pi
PNh:__Z126RuntimeInvoker_Int32_t2071877448_Il2CppObject_Int32_t2071877448_Il2CppObject_Il2CppObject_SByte_t454417549_Int32U26_t455636984PK10MethodInfoPvPS2_
CLj:_emscripten_glRenderbufferStorage__wrapper
bob:__ZN8Playable7SetTimeEd
Y0:__ZN13RuntimeStaticI12GraphicsCapsLb0EE16StaticInitializeEPv
bpa:__ZN9Texture3D17UploadToGfxDeviceEv
Jtc:__Z18Transfer_BlittableI8JSONReadLb1E8Vector4fEvRK29SerializationCommandArgumentsR31RuntimeSerializationCommandInfo
kFc:_tt_cmap2_validate
Gca:__ZN13RenderTexture14SetColorFormatE19RenderTextureFormat
dKc:_cff_cmap_unicode_done
IKe:_NumberFormatter_Init_m1515770916
Lsi:_Literal_Compile_m3864266818
ncb:__ZN9Scripting20SendScriptingMessageER10GameObjectPKc18ScriptingObjectPtr
Caa:__Z26IsSplashScreenFadeCompletev
Dwb:__Z17SendMessageDirectR6ObjectRK17MessageIdentifierR11MessageData
Tc:_glGenSamplers
QVd:_InputField_LateUpdate_m1045279070
occ:__Z42Register_UnityEngine_Camera_get_clearFlagsv
_0i:__ZNSt3__26__treeIP11Il2CppClassNS_4lessIS2_EENS_9allocatorIS2_EEED2Ev
FSg:_GUIScrollGroup_SetVertical_m3540700730
Brg:_StringBuilder_set_Chars_m1019094834
fUi:__ZN14dense_hash_mapI10KeyWrapperIPKcEP11Il2CppClassN6il2cpp5utils11StringUtils12StringHasherIS2_EENS3_14EqualsComparerINS8_21CaseSensitiveComparerEEENSt3__29allocatorINSE_4pairIKS3_S5_EEEEE15set_deleted_keyERSH_
b7a:__ZN13RenderManager27UpdatePreviousFrameMatricesEv
h0a:__ZN6Camera10CustomCullERK23CameraCullingParametersR11CullResults
Bhd:_Byte_System_IConvertible_ToUInt64_m2667486567
g6:__Z22SetManagerPtrInContextiP6Object
Kfi:_AnimatorControllerPlayable_GetNextAnimatorClipInfo_m962214430
Jzb:__ZN14PlayerSettings8TransferI19StreamedBinaryWriteILb0EEEEvRT_
ytc:__Z18Transfer_BlittableI8JSONReadLb0E10ColorRGBAfEvRK29SerializationCommandArgumentsR31RuntimeSerializationCommandInfo
qye:_Collection_1_Remove_m2017992820_gshared
Zbe:_Object_FindObjectsOfType_TisIl2CppObject_m1140156812_gshared
b5d:_Array_InternalArray__Insert_TisInt16_t4041245914_m371511339_gshared
LFg:_ConstructorBuilder_get_next_table_index_m932085784
Dfh:_ValueCollection_System_Collections_ICollection_get_SyncRoot_m919209341_gshared
pQh:__Z83RuntimeInvoker_Void_t1841601450_UInt16_t986882611_SByte_t454417549_SByte_t454417549PK10MethodInfoPvPS2_
F9g:_Slider_UpdateDrag_m1963963631
Xog:_SByte_Equals_m755715567
yZ:__ZN15DirectorManagerD2Ev
m1e:_SortKeyBuffer_AppendNormal_m2554296431
$Uc:__ZN11UnityEngine15PlatformWrapper12GetInfoFlagsEv
ljj:__ZN6il2cpp6icalls8mscorlib6System13Globalization11CultureInfo45construct_internal_locale_from_current_localeEP17Il2CppCultureInfo
Ocg:__ZL70InputField_t1631627530_CustomAttributesCacheGenerator_m_CaretBlinkRateP21CustomAttributesCache
o1d:_Array_IndexOf_TisCustomAttributeNamedArgument_t94157543_m2205974312_gshared
r1d:_Array_IndexOf_TisAnimatorClipInfo_t3905751349_m4033344779_gshared
CFa:__ZN15TextureTFMethod16BindForRenderingEj
IZd:_Array_InternalArray__ICollection_Contains_TisUICharInfo_t3056636800_m2001435744_gshared
qjh:_DefaultComparer_GetHashCode_m3250641461_gshared
lxf:_Key_ToString_m1129871742
ted:_Array_Sort_m1417611156
Xlj:__ZN15dense_hashtableINSt3__24pairIK10KeyWrapperINS1_IPKcS4_EEEiEES6_24NamespaceAndNamePairHashN14dense_hash_mapIS6_iS9_NS6_14EqualsComparerI26NamespaceAndNamePairEqualsEENS0_9allocatorIS8_EEE9SelectKeyESD_SF_E4findERS7_
Vti:_Uri_Merge_m2181117222
E3h:_UnityAnalyticsHandler__ctor_m113083880
Xyc:__ZN20TextRenderingPrivate8FontImpl13CharacterInfo8TransferI19StreamedBinaryWriteILb0EEEEvRT_
QOh:__Z74RuntimeInvoker_Int32_t2071877448_TimeSpan_t3430258949_TimeSpan_t3430258949PK10MethodInfoPvPS2_
O_i:__ZN6il2cpp2os19SocketHandleWrapper7ReleaseEv
vOd:_DefaultControls_CreateRawImage_m2572997170
mwg:_TimeSpan_get_TotalDays_m3496775483_AdjustorThunk
FO:__ZZL31InitializeAudioManagerCallbacksvEN31PostLateUpdateUpdateAudiostruct7ForwardEv
Qyb:__ZNSt3__27__sort4IRNS_6__lessINS_4pairIPKN5Unity4TypeE7Hash128EES8_EEPS8_EEjT0_SC_SC_SC_T_
Xug:_Thread_Start_m1419497481
IGj:dynCall_fff
qae:_Array_InternalArray__get_Item_TisDictionaryEntry_t3048875398_m2371191320_gshared
Rbg:__ZL62FontData_t2614388407_CustomAttributesCacheGenerator_m_RichTextP21CustomAttributesCache
Ldi:_AnimationOffsetPlayable_GetPosition_m58420556
NPb:__ZN18StreamedBinaryReadILb1EE21TransferSTLStyleArrayI13dynamic_arrayIhLj1EEEEvRT_17TransferMetaFlags
tqh:_InternalEnumerator_1_get_Current_m2351441486_gshared
Lmc:__ZN11IMGUIModule21QueryGUIDisplayTargetE17ScriptingClassPtr
Uac:__ZN11UTF16StringC2ERKS_18MemLabelIdentifier
hTg:_GUISkin_set_textField_m1154803040
KGj:dynCall_vidi
aYc:__ZN11UnityEngine15PlatformWrapper14GetCloudUserIdEv
yRg:_GUIStyle_GetRectOffsetPtr_m4223228888
rEe:_ReadOnlyCollection_1_System_Collections_IList_Remove_m2350545199_gshared
RWg:_Input_get_mouseScrollDelta_m3430638853
vGj:___udivdi3
PYb:__ZN11PlayerPrefs9SetStringERKN4core12basic_stringIcNS0_20StringStorageDefaultIcEEEES6_
wxj:__ZN6il2cpp6icalls8mscorlib6System8Delegate18SetMulticastInvokeEP14Il2CppDelegate
OXd:_LayoutGroup_get_minHeight_m2270010946
yya:__ZN4gles16CreateBlendStateER15DeviceStateGLESRK13GfxBlendState
adf:_ARC4Managed_GenerateIV_m2815460576
F6c:_String_Substring_m2032624251
p2b:__ZN8Material12CleanupClassEv
hwd:_DateTime_get_DayOfWeek_m2345429939_AdjustorThunk
Txg:_Type_GetTypeCode_m1044483454
dii:_ResourceSet_GetObjectInternal_m3556256510
$Jb:__Z22TransferField_NonArrayI17RemapPPtrTransfer27Converter_SimpleNativeClassI10RectOffsetEEvRK23StaticTransferFieldInfoR31RuntimeSerializationCommandInfoRT0_
Jrd:_DateTimeOffset__ctor_m2870721395
wM:__ZN20SoundChannelInstance11set3DSpreadEf
jw:__ZNSt3__26__sortIRN11UnityEngine9Animation11BindingSortEPNS_4pairINS2_14GenericBindingEPNS2_10BoundIndexEEEEEvT0_SB_T_
B9c:_String_ReplaceFallback_m64616664
TNg:_MonoMethod_GetCustomAttributes_m2493833930
Bzb:__ZN24GenerateTypeTreeTransfer32TransferSTLStyleArrayWithElementI16SplashScreenLogoEEvRT_17TransferMetaFlags
F6i:__ZN15dense_hashtableINSt3__24pairIK10KeyWrapperINS1_IPK9FieldInfoP11Il2CppClassEEEjEES9_17ReflectionMapHashIS8_EN14dense_hash_mapIS9_jSD_NS9_14EqualsComparerINS0_8equal_toIS8_EEEENS0_9allocatorISB_EEE9SelectKeyESI_SK_E6insertERKSB_
jPe:_Int32_System_IConvertible_ToDouble_m3322226667_AdjustorThunk
nLi:_Enumerator_CheckState_m1761755727_AdjustorThunk
tGj:_memmove
Ubc:__Z27Camera_Get_Custom_PropDepthP12Il2CppObject
qpg:_CodeAccessPermission_ToString_m3345031296
onj:__ZN6il2cpp2vm6Object5UnboxEP12Il2CppObject
oqf:_FtpWebRequest__ctor_m3003551676
Kbc:__Z52Register_UnityEngine_ScriptableObject_CreateInstancev
G6e:_EncryptedPrivateKeyInfo__ctor_m832236482
C$:__ZN23DefaultMeshVertexFormatC2E17ShaderChannelMask
mOb:__ZL26Transfer_SimpleNativeClassI18StreamedBinaryReadILb1EE8GradientLb1EEvRK29SerializationCommandArgumentsR31RuntimeSerializationCommandInfo
O7c:_Single_Equals_m3359827399
Hug:_Thread_FreeLocalSlotValues_m2948667652
R7a:__ZNSt3__26vectorINS_4pairIN4core12basic_stringIcNS2_20StringStorageDefaultIcEEEES6_EE13stl_allocatorIS7_L18MemLabelIdentifier37ELi16EEE12__move_rangeEPS7_SC_SC_
P2b:__ZZL23RegisterLightPropertiesR22GenericPropertyBindingEN18Wrapper_LightRange13GetFloatValueEPv
K4:__ZN14FileCacherReadC2ERKN4core12basic_stringIcNS0_20StringStorageDefaultIcEEEEjj
Aya:__ZN7ApiGLES10InvalidateERK14GfxContextGLES
cHi:_InvokableCall_2_Invoke_m1071013389_gshared
n4e:_ASN1Convert_ToOid_m2695991795
tMc:_UNITY_FT_Init_Class_tt_service_truetype_glyf
Bzj:__ZN6il2cpp2os5Mutex7TryLockEjb
D$:__Z20IsVectorBuiltinParamPKcPi
Alj:__ZN6il2cpp2vm5Field8GetFlagsEP9FieldInfo
Ivh:_InternalEnumerator_1_get_Current_m727737343_AdjustorThunk
Ufj:__ZN6il2cpp6icalls8mscorlib6System10ReflectionL16LoadResourceFileEP24Il2CppReflectionAssembly
hY:__Z13IsFileCreatedRKN4core12basic_stringIcNS_20StringStorageDefaultIcEEEE
Dyj:__ZN6il2cpp6icalls8mscorlib6System21CurrentSystemTimeZone15GetTimeZoneDataEiPP11Il2CppArrayS6_
llj:__ZN15dense_hashtableINSt3__24pairIK10KeyWrapperIP12Il2CppObjectEN6il2cpp2gc9CachedCCWEEES5_NS7_5utils11PointerHashIS3_EEN14dense_hash_mapIS5_S9_SD_NS5_14EqualsComparerINS0_8equal_toIS4_EEEENS0_9allocatorISA_EEE9SelectKeyESI_SK_E5eraseE30dense_hashtable_const_iteratorISA_S5_SD_SM_SI_SK_E
LDg:_Assembly_UnprotectedGetName_m3014607408
d8c:_String__cctor_m710226597
FWh:__Z90RuntimeInvoker_Void_t1841601450_Il2CppObject_Il2CppObject_Vector2_t2243707579_Il2CppObjectPK10MethodInfoPvPS2_
Ozh:_DefaultComparer_Compare_m3953592365_gshared
Vze:_Collection_1_IsValidItem_m404831699_gshared
Owg:_TimeSpan_Negate_m4198463235_AdjustorThunk
Pjb:__ZN12FlareManager9AddCameraER6Camera
kN:__ZN11AudioSource8TransferI14SafeBinaryReadEEvRT_
$6b:__ZN4Mesh17SetIndicesComplexEPKvjj16GfxPrimitiveTypei
Tyj:__GLOBAL__sub_I_MemoryMappedFile_cpp
nye:_Collection_1_Insert_m4010554762_gshared
d0b:__ZNK9Transform22GetPositionAndRotationER8Vector3fR11Quaternionf
Qr:__ZN8Animator16TransformChangedEi
AYg:_Matrix4x4_GetColumn_m1367096730_AdjustorThunk
Asa:__ZN17ShaderPassContext8CopyFromERKS_
f1e:_SimpleCollator_GetSortKey_m540875593
_Vb:__ZN9ShaderLab9IntShader26CreateFromSerializedShaderERKNS_16SerializedShaderERNSt3__26vectorI4PPtrI6ShaderENS4_9allocatorIS8_EEEEbPS7_
kSa:__ZN19ShaderPropertySheet16SetComputeBufferEN9ShaderLab16FastPropertyNameE15ComputeBufferIDNS_8SetFlagsE
Erj:__ZNK15dense_hashtableINSt3__24pairIK10KeyWrapperIPK19Il2CppGenericMethodEP10MethodInfoEES6_N6il2cpp8metadata23Il2CppGenericMethodHashEN14dense_hash_mapIS6_S9_SD_NS6_14EqualsComparerINSC_26Il2CppGenericMethodCompareEEENS0_9allocatorISA_EEE9SelectKeyESH_SJ_E5beginEv
Kug:_Thread_GetCachedCurrentCulture_m450033007
T1a:__ZL12CullGroupJobP20CullingGroupsJobDataj
Quj:_GC_remove_dangling_disappearing_links
yS:__ZN11UnityEngine15CloudWebService14RestDownloader9IsAbortedEv
Rz:__ZN7mecanim12statemachine28DestroyStateMachineWorkspaceEPNS0_21StateMachineWorkspaceERNS_6memory9AllocatorE
Lk:_emscripten_glNormalPointer
poc:__Z30GUIStyle_CUSTOM_SetDefaultFontP12Il2CppObject
wyf:_Interval_t2354235237_marshal_pinvoke_back
go:FUNCTION_TABLE_f
Wo:FUNCTION_TABLE_i
gzd:_Decimal_ToString_m541380585_AdjustorThunk
n9:__ZN11TypeManager12RegisterTypeERK20TypeRegistrationDesc
yn:FUNCTION_TABLE_v
Lvb:__ZNSt3__26vectorI17BlendShapeChannelNS_9allocatorIS1_EEE8__appendEj
gTd:_Image_get_preserveAspect_m2161836851
cq:__ZN18StreamedBinaryReadILb0EE21TransferSTLStyleArrayI13dynamic_arrayI8Vector3fLj4EEEEvRT_17TransferMetaFlags
coa:__ZN21LightProbeProxyVolume13GetRenderDataER27LightProbeProxyVolumeSample
n0i:__ZN6il2cpp2vm7Runtime30CallUnhandledExceptionDelegateEP12Il2CppDomainP14Il2CppDelegateP15Il2CppException
MFi:_Predicate_1_Invoke_m577088274_gshared
Zjg:_RemotingProxy_get_TypeName_m1400928020
vyb:__ZN11TimeManager8TransferI24GenerateTypeTreeTransferEEvRT_
k1e:_SortKeyBuffer_GetResult_m962852575
T0e:_SimpleCollator_Category_m1504096908
WLi:_DisplayBuffer_Wrap_m137575239
Lq:__ZNK11UnityEngine9Animation28GenericAnimationBindingCache10BindCustomERKNS0_14GenericBindingER9TransformRNS0_10BoundCurveE
SWc:__ZN18UnityConnectClient17InitConnectClientEv
sph:_ArrayReadOnlyList_1_ReadOnlyError_m2158247090_gshared
VBj:_memcmp
zwd:_DateTime_CompareTo_m3372173896
L0g:_Rect_ToString_m2728794442
Fma:__ZN9Scripting32GetCachedPtrFromScriptingWrapperE18ScriptingObjectPtr
kPc:__ZN2UI29ScheduleUIJobsForInstructionsERNS_7BatchesEjPKNS_13UIInstructionEfjjPNS_13CanvasJobDataE
SK:__ZN5audio5mixer22CreateAudioMixerMemoryERKNS0_18AudioMixerConstantEPN4FMOD6SystemERN7mecanim6memory9AllocatorEib
PB:__ZZN8Animator15InitializeClassEvEN43FunctorImpl_425kDidModifyAnimatorController4CallEPviR11MessageData
Plf:_RSASslSignatureDeformatter_VerifySignature_m3138484348
$3d:_Array_InternalArray__ICollection_CopyTo_TisDecimal_t724701077_m1087621311_gshared
gch:_Enumerator_System_Collections_IDictionaryEnumerator_get_Value_m2325383168_AdjustorThunk
Ntd:_Convert_ToInt64_m4280008532
wfc:__Z28Mesh_CUSTOM_SetTrianglesImplP12Il2CppObjectiP11Il2CppArrayih
udg:__ZL61RawImage_t2749640213_CustomAttributesCacheGenerator_m_TextureP21CustomAttributesCache
ysa:__ZL20ShaderWarmupFuncImplP6ShaderiPN9ShaderLab4PassERK16ShaderKeywordSetP10DynamicVBOPvR17ShaderPassContext
D_c:_HMAC_set_Key_m1530357889
qzi:_Vector2_get_zero_m3966848876
RVi:__ZN15dense_hashtableI10KeyWrapperIPK17Il2CppGenericInstES4_N6il2cpp8metadata21Il2CppGenericInstHashEN14dense_hash_setIS4_S7_NS4_14EqualsComparerINS6_24Il2CppGenericInstCompareEEENSt3__29allocatorIS4_EEE8IdentityESB_SE_E6insertERKS4_
X5i:__ZN15dense_hashtableINSt3__24pairIK10KeyWrapperINS1_IPK14Il2CppAssemblyP11Il2CppClassEEEjEES9_17ReflectionMapHashIS8_EN14dense_hash_mapIS9_jSD_NS9_14EqualsComparerINS0_8equal_toIS8_EEEENS0_9allocatorISB_EEE9SelectKeyESI_SK_E3endEv
v5g:_Scrollbar_set_numberOfSteps_m579707524
dCj:_fmt_u
Dza:__ZN14DataBufferGLES12RecordUpdateEv
EJh:__Z92RuntimeInvoker_Void_t1841601450_Il2CppObject_Il2CppObject_SByte_t454417549_Int32_t2071877448PK10MethodInfoPvPS2_
rmb:__ZN14SafeBinaryRead21TransferSTLStyleArrayI13dynamic_arrayI20SphericalHarmonicsL2Lj4EEEEvRT_17TransferMetaFlags
rhi:_ResourceManager__cctor_m2190112652
lAc:__ZN20TextRenderingPrivate15DynamicFontData28GetFaceForFontRefFromOSFontsERKNS_7FontRefE
Zfc:__Z34MonoBehaviour_CUSTOM_StopCoroutineP12Il2CppObjectP12Il2CppString
a3a:__ZN10systeminfo19IsPlatformWebPlayerE15RuntimePlatform
qnj:__ZN6il2cpp2vm12GenericClass12SetupMethodsEP11Il2CppClass
jX:__ZNK20LocalFileSystemPosix18GetApplicationPathEv
tMi:_InputBuffer_ReceiveFrameInput_m576052007
lsd:_Decimal__ctor_m3876694886
oEb:__ZN9Scripting30IsSystemCollectionsGenericListE17ScriptingClassPtr
X2b:__ZZL23RegisterLightPropertiesR22GenericPropertyBindingEN28Wrapper_LightShadowNearPlane13GetFloatValueEPv
gZd:_Array_InternalArray__ICollection_Contains_TisIntPtr_t_m3256777387_gshared
nVe:_MemoryStream_WriteByte_m3737173846
CPc:__ZN2UI23InitializeCanvasManagerEv
d5a:__ZN10GameObject16CheckConsistencyEv
r0b:__ZN14RenderSettings15InitializeClassEv
Csf:_AsnEncodedData_set_Oid_m3568255745
_dc:__Z46Register_UnityEngine_GameObject_get_activeSelfv
pCb:__ZN20ArchiveStorageHeader11WriteHeaderER12FileAccessorRKNS_6HeaderE
Dmf:_SslClientStream_OnRemoteCertificateValidation2_m3416857045
qog:_RuntimeTypeHandle_Equals_m452760426_AdjustorThunk
K7h:_Camera_get_depth_m1329692468
P8c:_String_TrimStart_m710830036
ezh:_InternalEnumerator_1_System_Collections_IEnumerator_get_Current_m762846484_AdjustorThunk
Laj:__ZN14dense_hash_mapI10KeyWrapperIPK14Il2CppAssemblyEPK16MonoAssemblyNameN6il2cpp5utils11PointerHashIS2_EENS4_14EqualsComparerINSt3__28equal_toIS3_EEEENSD_9allocatorINSD_4pairIKS4_S7_EEEEE15set_deleted_keyERSJ_
$1i:_AnalyticsTracker_OnEnable_m1011291651
NOc:__ZN2UI16GetCanvasManagerEv
pmc:__ZNK8GUIStyle20GetCursorStringIndexERK5RectTIfER10GUIContentRK8Vector2f
z7b:__ZN15GUIEventManager8PopEventER10InputEvent
hdc:__Z31RectOffset_Get_Custom_PropRightP12Il2CppObject
aNc:__Z54Register_UnityEngine_TextGenerator_GetVerticesInternalv
Z$c:__Z3BoxP11Il2CppClassPv
sEd:_CultureInfo_Clone_m2970753766
Rxf:_IntStack_Push_m1259764820
GFa:__ZN21UniformBufferTFMethodD2Ev
kTe:_FileStream_InitBuffer_m2153931481
yyg:_Type_MakeGenericType_m2765875033
j9b:__ZL34GetComponentsImplementationRecurseILb1ELi1ELi2EEbR10GameObjectbRK17CompareParametersRK39GetComponentsImplementation_ReturnValue
xja:__ZN6prcoreL12RemapGenericI15TexFormatRGB56515TexFormatRGB888EEvPKNS_9InnerInfoE
aWd:_InputField_OnEndDrag_m1818224847
GJe:_NumberFormatter_GetInstance_m2421260460
PQc:__Z41CanvasGroup_Get_Custom_PropBlocksRaycastsP12Il2CppObject
BSb:__ZNSt3__26vectorIN9ShaderLab26SerializedShaderDependencyENS_9allocatorIS2_EEE8__appendEj
XXh:__Z113RuntimeInvoker_Boolean_t3825574718_Ray_t2469606224_RaycastHitU26_t1969197280_Single_t2076509932_Int32_t2071877448PK10MethodInfoPvPS2_
Uth:_InternalEnumerator_1_System_Collections_IEnumerator_get_Current_m4242639349_gshared
C5:__ZN32TransformHierarchyChangeDispatch26DispatchSelfAndAllChildrenE15TransformAccessNS_12InterestTypeE
tsg:_UTF32Encoding__ctor_m3199945978
W6:__ZN13RuntimeStaticI22VirtualJoystickManagerLb0EE13StaticDestroyEPv
FH:__ZN13AudioListener12ApplyFiltersEv
n9h:_CanvasRenderer_set_cull_m1437892490
JMe:_SortKey_GetHashCode_m2534654444
fZd:_Array_InternalArray__ICollection_Contains_TisInt64_t909078037_m1425723755_gshared
pjf:_HandshakeMessage_Update_m1733566706
CIj:dynCall_viiif
xzj:__ZN6il2cpp8metadata27Il2CppGenericContextCompare7CompareEPK20Il2CppGenericContextS4_
KHj:dynCall_viiii
Nkd:_ArrayListWrapper_ToArray_m235921330
Xcf:_ARC4Managed_set_Key_m663161993
LLg:_MemberInfoSerializationHolder_Serialize_m4243060728
A3g:_MaskableGraphic_OnDisable_m2605143092
a5i:__ZNSt3__214__split_bufferIN6il2cpp2vm17TypeNameParseInfoERNS_9allocatorIS3_EEED2Ev
pyg:_Type_GetConstructor_m663514781
hQe:_Int64_System_IConvertible_ToDouble_m638786774_AdjustorThunk
z$:__ZN15DirectorManager14ConnectionPool16GrowEmptyBucketsEv
ROe:_Int16_ToString_m1247017262
P1:__ZN17PersistentManager32CopyToAwakeFromLoadQueueInternalER18AwakeFromLoadQueue
Pzd:_Delegate_Combine_m1976351882
oXa:__ZNK6Camera16SetActiveVRUsageEv
hAg:_UInt32_System_IConvertible_ToUInt16_m2798641702
VLj:_emscripten_glDrawElementsInstanced__wrapper
gAi:_Texture_Internal_GetWidth_m56137242
Xtc:__ZL26Transfer_SimpleNativeClassI8JSONRead8GradientLb1EEvRK29SerializationCommandArgumentsR31RuntimeSerializationCommandInfo
xCj:_open
rsd:_Decimal_ThrowInvalidExp_m3430267638
bfj:__ZN6il2cpp6icalls8mscorlib6System5Array5CloneEP11Il2CppArray
i7a:__Z30GetPlayerShouldRunInBackgroundv
Vyh:_InternalEnumerator_1_get_Current_m2986222582_gshared
eCg:_UnitySerializationHolder__ctor_m2832165173
esg:_UnicodeEncoding_GetBytes_m4175529985
a$:__ZZN15DirectorManager15InitializeClassEvEN47PreLateUpdateDirectorUpdateAnimationBeginstruct7ForwardEv
G5g:_Selectable_OnDisable_m2660228016
rja:__ZN6prcoreL12RemapGenericI11TexFormatI815TexFormatRGB565EEvPKNS_9InnerInfoE
Cta:__ZNK13TranslateGLES17FramebufferTargetEN2gl17FramebufferTargetE
uqj:__ZL11on_gc_event11GCEventType
Xdj:__ZNSt3__214__split_bufferIN6il2cpp8metadata18GenericArrayMethodERNS_9allocatorIS3_EEED2Ev
c7c:_Single_System_IConvertible_ToBoolean_m2661548087_AdjustorThunk
Sqg:_DSASignatureDeformatter_VerifySignature_m4078616251
WLj:b62
GLj:b61
JKj:b60
kNj:b67
i2d:_Array_InternalArray__IndexOf_TisUInt16_t986882611_m390127593_gshared
iUd:_InputField_set_shouldHideMobileInput_m2478534110
N9c:_String_Concat_m3881798623
lNj:b68
qIg:_FieldBuilder_IsDefined_m2730324893
cRf:__ZL56FlagsAttribute_t859561169_CustomAttributesCacheGeneratorP21CustomAttributesCache
Mgb:__ZN21ArchiveStorageCreator10BeginBlockEb15CompressionType16CompressionLevelj
IHe:_ReadOnlyCollection_1_System_Collections_IList_Insert_m571902768_gshared
Fii:_ExternalException__ctor_m1618796018
MHj:dynCall_iifffi
Q7b:__Z9SetIIMGUIP6IIMGUI
eba:__Z28SetupPixelCorrectCoordinatesv
CFc:_tt_cmap10_get_info
lZg:_Mesh_SetTangents_m282399504
M5b:__ZNSt3__218__insertion_sort_3IRN10vector_mapIiiNS_4lessIiEE13stl_allocatorINS_4pairIiiEEL18MemLabelIdentifier1ELi16EEE13value_compareEPS6_EEvT0_SD_T_
fza:__Z5SplitRKN4core12basic_stringIcNS_20StringStorageDefaultIcEEEEcRNSt3__26vectorIS3_NS6_9allocatorIS3_EEEEi
GNi:__ZN6il2cpp2vmL10InitLockedEP11Il2CppClassRKNS_2os12FastAutoLockE
H1a:__ZN15LODGroupManager26CollectAllLODGroupManagersEPK6CameraR13dynamic_arrayIPS_Lj4EEb
VZ:__ZN17ScriptingGCHandle28ResolveBackendNativeGCHandleEj
c5b:__ZN13PlayableGraph16DestroyRecursiveEP8Playable
CAd:_Double_System_IConvertible_ToType_m4036266196_AdjustorThunk
MH:__ZN12AudioManagerD0Ev
bCj:___fwritex
Ozj:__ZN6il2cpp5utils35RegisterRuntimeInitializeAndCleanupC2EPFvvES3_i
gUe:_Stream_EndRead_m2148943753
vBb:__ZNK22GenericPropertyBinding13SetFloatValueERKN11UnityEngine9Animation10BoundCurveEf
tfb:__ZN17ArchiveFileSystem14UnmountArchiveEP20ArchiveStorageReader
i0b:__ZN6ShaderC2E18MemLabelIdentifier18ObjectCreationMode
MEh:__Z99RuntimeInvoker_Int32_t2071877448_Int32_t2071877448_Int32_t2071877448_Int32_t2071877448_Il2CppObjectPK10MethodInfoPvPS2_
MCc:_raccess_guess_darwin_ufs_export
jNa:__ZN11TypeManager18InitializeAllTypesEv
UF:__ZN9AudioClipD0Ev
V1g:_Renderer_get_sortingOrder_m1544525007
TRh:__Z93RuntimeInvoker_Vector3_t2243707580_Vector3_t2243707580_Vector3_t2243707580_Single_t2076509932PK10MethodInfoPvPS2_
fhi:_RenderPipelineManager_DoRenderLoop_Internal_m2267530247
YZd:_Array_InternalArray__ICollection_Remove_TisKeyValuePair_2_t38854645_m3060436673_gshared
_je:_List_1_Find_m3480386930_gshared
Wkh:_EqualityComparer_1__cctor_m51007461_gshared
LZb:__Z13RegisterClassI8GUILayerEvv
Mbb:__ZN25ThreadsafeLinearAllocatorC2EiiPKc
F1e:_SimpleCollator_IsSuffix_m740049399
ADa:__ZN14GfxContextGLES11MakeCurrentER7ApiGLESN2gl13ContextHandleE
Mvi:_PKCS12__cctor_m3312759338
bLc:_UNITY_tt_glyphzone_new
zhf:_RecordProtocol_BeginSendRecord_m166940611
RZe:_ShortComparer_Compare_m1398180168
JQg:_Screen_get_width_m41137238
l_g:_Object_Internal_InstantiateSingleWithParent_m509082884
BQa:_UNITY_png_check_IHDR
tsa:__ZN16GraphicsSettings22WarmupPreloadedShadersEv
aSc:__Z34Canvas_Set_Custom_PropSortingOrderP12Il2CppObjecti
tVe:_MonoIO_get_ConsoleError_m592181393
IOh:__Z59RuntimeInvoker_Il2CppObject_Single_t2076509932_Il2CppObjectPK10MethodInfoPvPS2_
_lf:_SslCipherSuite_prf_m2084589217
$a:invoke_iiiiiiffiiiiiiiiiffffiii
BNc:__ZN2UI6Canvas8TransferI14SafeBinaryReadEEvRT_
Fai:_Coroutine_Finalize_m3953619693
b_h:__Z83RuntimeInvoker_Int32_t2071877448_Color32_t874517518_Color32_t874517518_Il2CppObjectPK10MethodInfoPvPS2_
iCi:_Vector2_op_Division_m96580069
f7i:__ZN6il2cpp2gc19AppendOnlyGCHashMapIPK10Il2CppTypeP20Il2CppReflectionTypeNS_8metadata14Il2CppTypeHashENS7_26Il2CppTypeEqualityComparerEE3AddERKS4_S6_
dQ:__ZN11UnityEngine15CloudWebService17CloudJobScheduler11ScheduleJobEPFvPvES2_
yNe:_Guid_Equals_m2389236871_AdjustorThunk
mR:__ZN11UnityEngine15CloudWebService17CloudServiceEvent12ToJsonStringER9JSONWrite
s7:__ZNK18VertexChannelsInfoltERKS_
mNf:__ZL93ASCIIEncoding_t3022927988_CustomAttributesCacheGenerator_ASCIIEncoding_GetDecoder_m3693600923P21CustomAttributesCache
Nva:__ZN13GfxDeviceGLES15UploadTexture3DE9TextureIDPKhiiii13TextureFormati18TextureUploadFlags
abc:__Z18SetTargetFrameRatei
uOh:__Z71RuntimeInvoker_Single_t2076509932_Single_t2076509932_Single_t2076509932PK10MethodInfoPvPS2_
bqc:__ZN9JSONWrite8TransferIfEEvRT_PKc17TransferMetaFlags
pNd:_ContentSizeFitter_SetLayoutHorizontal_m2830034151
ND:__Z92Register_UnityEngine_Experimental_Director_AnimationOffsetPlayable_INTERNAL_CALL_SetPositionv
q5b:__ZN10MonoScript27InitializeAndRegisterScriptERKN4core12basic_stringIcNS0_20StringStorageDefaultIcEEEES6_S6_S6_b
dqg:_DES_set_Key_m2689203108
R2a:__Z23DrawSplashAndWatermarksv
KQa:_UNITY_png_free_data
cvi:_SubjectAltNameExtension_ToString_m1300810903
e7e:_RSAManaged_ImportParameters_m2382611442
iHb:__ZN13GUIStyleState8TransferI14SafeBinaryReadEEvRT_
HAh:_Comparer_1_System_Collections_IComparer_Compare_m2490067344_gshared
mpi:_PatternCompiler_EmitSet_m866698437
Pd:_glDrawArrays
iSd:_GridLayoutGroup_set_startCorner_m1660251450
ith:_InternalEnumerator_1_System_Collections_IEnumerator_get_Current_m127456009_AdjustorThunk
wLi:_HashSet_1_System_Collections_Generic_ICollectionU3CTU3E_CopyTo_m1933244740_gshared
RNf:__ZL54UTF8Encoding_t111055448_CustomAttributesCacheGeneratorP21CustomAttributesCache
t6b:__Z17InstantiateObjectR6ObjectR9TransformRK8Vector3fRK11Quaternionf
OPe:_Int32_TryParse_m656840904
SZd:_Array_InternalArray__ICollection_Remove_TisChar_t3454481338_m1562002771_gshared
dQe:_Int64_System_IConvertible_ToDateTime_m1002280174_AdjustorThunk
_vb:__ZN14BlendShapeData8TransferI18StreamedBinaryReadILb0EEEEvRT_
LAj:__ZN6il2cpp6icalls8mscorlib6System7Runtime8Remoting7Proxies9RealProxy20InternalGetProxyTypeEP12Il2CppObject
LSa:__ZN13sorted_vectorINSt3__24pairIiN17InstancedPropInfo12PropertyTypeEEEN10vector_mapIiS3_NS0_4lessIiEE13stl_allocatorIS4_L18MemLabelIdentifier1ELi16EEE13value_compareESA_E21sort_clear_duplicatesEv
pLc:_Round_To_Grid
tAc:_UNITY_FT_Stream_Close
oIh:__Z66RuntimeInvoker_Il2CppObject_Il2CppObject_DSAParameters_t1872138834PK10MethodInfoPvPS2_
nIh:__Z103RuntimeInvoker_Boolean_t3825574718_Il2CppObject_Il2CppObject_Il2CppObject_Il2CppObject_SByte_t454417549PK10MethodInfoPvPS2_
Yvc:__ZN9rapidjson6WriterI16TempBufferWriterNS_4UTF8IcEES3_13JSONAllocatorE9WriteBoolEb
Vcc:__Z35DebugLogHandler_CUSTOM_Internal_Log7LogTypeP12Il2CppStringP12Il2CppObject
ULj:_emscripten_glShaderBinary__wrapper
HCa:__ZL17ProgramUniform3ivPK7ApiGLESjiihPKv
tva:__ZN9GfxDevice25GetBackBufferColorSurfaceEv
YKa:__ZN25SingleBlockMemoryFileData9SetLengthEy
Y5b:__Z29AwakeAndActivateClonedObjectsPP6ObjectRK10vector_mapIiiNSt3__24lessIiEE13stl_allocatorINS3_4pairIiiEEL18MemLabelIdentifier1ELi16EEE
VQh:__Z91RuntimeInvoker_Void_t1841601450_Il2CppObject_Il2CppObject_SByte_t454417549_SByte_t454417549PK10MethodInfoPvPS2_
Rbj:__ZN15dense_hashtableINSt3__24pairIK10KeyWrapperINS1_IPK10MethodInfoP11Il2CppClassEEEjEES9_17ReflectionMapHashIS8_EN14dense_hash_mapIS9_jSD_NS9_14EqualsComparerINS0_8equal_toIS8_EEEENS0_9allocatorISB_EEE9SelectKeyESI_SK_E14squash_deletedEv
mLh:__Z117RuntimeInvoker_Void_t1841601450_Il2CppObject_Int64_t909078037_Il2CppObject_Int64_t909078037_Il2CppObject_Il2CppObjectPK10MethodInfoPvPS2_
c_b:__Z13RegisterClassI6ShaderEvv
qOe:_Int16_System_IConvertible_ToUInt32_m883204517
Lhi:_ResourceCacheItem_t333236149_marshal_pinvoke_cleanup
lge:_List_1_CheckMatch_m1196994270_gshared
U$:__ZN13RuntimeStaticI11WindManagerLb0EE13StaticDestroyEPv
Uud:_Convert_ToUInt64_m3559662221
Mrc:__Z18Transfer_BlittableI9JSONWriteLb1EaEvRK29SerializationCommandArgumentsR31RuntimeSerializationCommandInfo
Mbj:__ZN13Il2CppHashMapINSt3__24pairIPK10MethodInfoP11Il2CppClassEEj17ReflectionMapHashIS7_ENS0_8equal_toIS7_EENS0_9allocatorINS1_IK10KeyWrapperIS7_EjEEEEEC2EjRKS9_RKSB_
Cjd:_ArrayList_set_Item_m1858827078
Qoa:__ZN9Texture3D23VirtualRedirectTransferER19StreamedBinaryWriteILb0EE
lvj:_GC_reclaim_block
jdf:_HMAC__ctor_m2605930831
TN:__Z13RegisterClassI10SampleClipEvv
YR:__ZN11UnityEngine15CloudWebService10RestClientINS0_16WWWRestHeaderMapEE17GetResponseHeaderERKN4core12basic_stringIcNS4_20StringStorageDefaultIcEEEE
h_a:__ZNK23ForwardShaderRenderLoop18RenderObjectSorterILb1EEclERK21ForwardRenderPassDataS4_
rXi:__ZN15dense_hashtableI10KeyWrapperIPK19Il2CppGenericMethodES4_N6il2cpp8metadata23Il2CppGenericMethodHashEN14dense_hash_setIS4_S7_NS4_14EqualsComparerINS6_26Il2CppGenericMethodCompareEEENSt3__29allocatorIS4_EEE8IdentityESB_SE_E12maybe_shrinkEv
vGa:__ZN10BufferGLES10BeginWriteEjj
qXi:__ZNK15dense_hashtableI10KeyWrapperIPK19Il2CppGenericMethodES4_N6il2cpp8metadata23Il2CppGenericMethodHashEN14dense_hash_setIS4_S7_NS4_14EqualsComparerINS6_26Il2CppGenericMethodCompareEEENSt3__29allocatorIS4_EEE8IdentityESB_SE_E12test_deletedEj
ct:__ZN7mecanim12statemachine18StateMachineMemory8TransferI9BlobWriteEEvRT_
Lcj:__GLOBAL__sub_I_ArrayMetadata_cpp
GAg:_UInt64_System_IConvertible_ToByte_m953298241
uGa:__ZN7ApiGLES11FlushBufferEjN2gl12BufferTargetEll
bvd:_Convert_ToUInt64_m1896191125
cIb:__ZN14SafeBinaryRead21TransferSTLStyleArrayI13dynamic_arrayI8BitFieldLj4EEEEvRT_17TransferMetaFlags
QDa:__ZN12_GLOBAL__N_127PrepareReadback_ResolveMSAAER18GfxFramebufferGLESR7ApiGLESP17RenderSurfaceGLESS5_
pu:__ZN7mecanim15InvertValueMaskEPNS_14ValueArrayMaskE
yHg:_EnumBuilder_GetAttributeFlagsImpl_m4263246832
hFg:_CustomAttributeData_GetHashCode_m3989739430
Mah:_Text_AssignDefaultFont_m1295571657
T1b:__ZNK24RendererAnimationBinding9BindValueER6ObjectRKN11UnityEngine9Animation14GenericBindingERNS3_10BoundCurveE
Oe:_glBindBuffer
XQb:__ZN8GUIStyle8TransferI18StreamedBinaryReadILb0EEEEvRT_
$7:__ZNSt3__213__stable_sortIRN10vector_mapIijNS_4lessIiEENS_9allocatorINS_4pairIijEEEEE13value_compareENS_11__wrap_iterIPS6_EEEEvT0_SE_T_NS_15iterator_traitsISE_E15difference_typeEPNSH_10value_typeEi
W5h:_Application_get_platform_m3989224144
g3d:_Array_InternalArray__ICollection_Add_TisCustomAttributeNamedArgument_t94157543_m1003067274_gshared
BXb:__ZNSt3__218__insertion_sort_3IRNS_6__lessIN4core12basic_stringIcNS2_20StringStorageDefaultIcEEEES6_EEPS6_EEvT0_SA_T_
Ode:_Enumerator_System_Collections_IEnumerator_Reset_m925111644_gshared
vna:__ZN18LoadSceneOperation13CleanupMemoryEv
IBj:_isupper
cEg:_AssemblyName__ctor_m609734316
ky:__ZN7mecanim20ValueArrayBlendBeginERNS_14ValueArrayMaskE
cha:__ZNSt3__26__treeINS_12__value_typeIN9ShaderLab16FastPropertyNameEN18UnityPropertySheet11UnityTexEnvEEENS_19__map_value_compareIS3_S6_NS_4lessIS3_EELb1EEENS_9allocatorIS6_EEE7destroyEPNS_11__tree_nodeIS6_PvEE
enf:_InternalAsyncResult_get_IsCompleted_m1463732458
GYh:__Z56RuntimeInvoker_RaycastResult_t21186376_Int32_t2071877448PK10MethodInfoPvPS2_
C8g:_Selectable_IsInteractable_m3245596965
mEj:_getuid
KSd:_HorizontalLayoutGroup_CalculateLayoutInputVertical_m3516192138
dC:__ZN7mecanim5human8BoneNameEj
r_b:__Z13RegisterClassI10MonoScriptEvv
f6e:_AttrListImpl__ctor_m3211398293
Vt:__ZN13dynamic_arrayIN8Animator11AnimatorJobELj4EE9push_backERKS1_
Ryc:__ZN20TextRenderingPrivate8FontImpl8TransferI18StreamedBinaryReadILb0EEEEvRT_
Arg:_StringBuilder_get_Chars_m256627635
v0i:__ZN6il2cpp6icalls8mscorlib6System8MonoType22get_IsGenericParameterEP20Il2CppReflectionType
Ju:__ZN7mecanim5human14HumanPoseClearERNS0_9HumanPoseE
sSe:_MonoIO_GetException_m957022672
Mha:__ZN18StreamedBinaryReadILb0EE19TransferSTLStyleMapINSt3__23mapIN9ShaderLab16FastPropertyNameE10ColorRGBAfNS2_4lessIS5_EENS2_9allocatorINS2_4pairIKS5_S6_EEEEEEEEvRT_17TransferMetaFlags
cuf:_X509Certificate2_GetValueAsString_m1286925493
P2g:_Mask__ctor_m1716732261
bjd:_Char_ToLower_m2719897546
E6d:_Array_InternalArray__set_Item_TisHitInfo_t1761367055_m2693590376_gshared
p_e:_MonoType_IsPointerImpl_m648213545
fLe:_InvalidOperationException__ctor_m2801133788
a7a:__ZN13RenderManager28AreCamerasUsingMotionVectorsEv
geb:__Z24GetAssetBundleFileSystemv
f7:__Z25InitializeLODGroupManagerPv
aMd:_CanvasScaler_SetScaleFactor_m3305903109
x3d:_Array_InternalArray__ICollection_Add_TisUriScheme_t1876590943_m3218110478_gshared
zTa:__ZNK12ImageFilters28ApplyAfterTransparentFiltersEv
uYd:_LayoutRebuilder_U3Cs_RebuildersU3Em__0_m3768099182
qWc:__ZN11UnityEngine7Connect15AppRunningEvent12ToJsonStringER9JSONWrite
_$:__ZN19ShaderPropertySheet5ClearEb
$jf:_TlsServerCertificate_ProcessAsTls1_m3083203628
GDe:_ReadOnlyCollection_1_System_Collections_Generic_IListU3CTU3E_set_Item_m1099846173_gshared
XXa:__ZNK6Camera11GetPositionEv
tv:__ZN8Animator19CreatePlayableGraphEv
zPj:_emscripten_glClearDepth__wrapper
cud:_Convert_ToSByte_m1880147062
oab:__ZNK16MemoryFileSystem8FilenameERK13FileEntryData
Sf:_glUniform1fv
sbe:_GameObject_GetComponent_TisIl2CppObject_m2812611596_gshared
Wf:_JS_FileSystem_Sync
D$c:_MD5CryptoServiceProvider_HashCore_m2367253552
eya:__ZNSt3__26__treeINS_12__value_typeI21GLESRenderTargetSetupN2gl6HandleILNS3_10ObjectTypeE9EEEEENS_19__map_value_compareIS2_S7_NS_4lessIS2_EELb1EEENS_9allocatorIS7_EEE7destroyEPNS_11__tree_nodeIS7_PvEE
$wi:_X509StoreManager_get_TrustedRootCertificates_m122138510
qHi:_UnityAction_1_BeginInvoke_m530778538_gshared
FLc:_Direct_Move
Uf:__emscripten_sample_gamepad_data
z$b:__Z22DelayedDestroyCallbackP6ObjectPv
kkc:__ZN20UnityWebRequestProtoI19TransportJavaScript16AtomicRefCounter14RedirectHelper14ResponseHelper15DownloadHandler13UploadHandler12HeaderHelper14AsyncOperationE19Job_InvokeCoroutineEPS7_
UTg:_GUISkin_GetStyle_m3594137272
eSd:_GraphicRegistry__cctor_m4197769737
kNc:__ZNK2UI6Canvas26GetTypeInfoVirtualInternalEv
O3:__Z34scripting_class_get_declaring_type17ScriptingClassPtr
IWc:__ZN11UnityEngine7Connect20BasePersistentValues13RestoreValuesER8JSONRead
rAi:_Time_get_time_m2216684562
Eef:_KeyGeneratedEventHandler_Invoke_m1298576133
zWd:_InputField_Rebuild_m3481959062
kyb:__ZN11TimeManagerD0Ev
AS:__ZN11UnityEngine15CloudWebService18RestFileDownloader10InitializeERKN4core12basic_stringIcNS2_20StringStorageDefaultIcEEEE
Xpb:__ZN9Texture2D16DeleteGfxTextureEv
yW:__ZN20LocalFileSystemPosix4OpenER13FileEntryData14FilePermission16FileAutoBehavior
ddf:_KeyBuilder_get_Rng_m2539978716
JUh:__Z82RuntimeInvoker_Vector2_t2243707579_Rect_t3681755626_Il2CppObject_Int32_t2071877448PK10MethodInfoPvPS2_
qNc:__ZN2UI6Canvas12AddToManagerEv
tEc:_UNITY_tt_face_load_sbit
D5b:__Z37GetTransformFromComponentOrGameObjectP6Object
Cch:_ShimEnumerator_get_Current_m2516732679_gshared
jJc:_cf2_hint_isTop
W4a:__ZN23ManagedAttributeManager21GetRequiredComponentsE17ScriptingClassPtr
Rta:__ZN9GfxDevice18GetNumGraphicsJobsEj
k8a:__Z23InitializeStdConvertersv
rve:_Collection_1_Contains_m3292349561_gshared
FTd:_Image_SetNativeSize_m3580044470
hgi:_AnimatorControllerPlayable_CrossFade_m2119841183
bAi:_TextGenerator_get_lines_m916366224
AHc:_ps_unicodes_init
u1b:__ZL33AllowIdentityTransformDestructionv
amj:__ZNK10KeyWrapperINSt3__24pairIPKcS3_EEE14EqualsComparerI26NamespaceAndNamePairEqualsEclERKS5_SA_
qAd:_StackTrace__ctor_m772333217
v7c:_Single_System_IConvertible_ToSingle_m2540530435
C8e:_X509CertificateEnumerator__ctor_m1500464146
bgi:_AnimatorControllerPlayable_CrossFadeInFixedTime_m246216837
Bxg:_Type_get_IsPointer_m3832342327
Ugj:__ZN6il2cpp2vm9Exception27GetExecutionEngineExceptionEPKc
Mgh:_Dictionary_2_System_Collections_ICollection_CopyTo_m2784181332_gshared
hh:_JS_WebRequest_GetResponseHeaders
e8a:__ZNSt3__26__treeINS_12__value_typeI26SerializedObjectIdentifieriEENS_19__map_value_compareIS2_S3_NS_4lessIS2_EELb1EEENS_9allocatorIS3_EEE7destroyEPNS_11__tree_nodeIS3_PvEE
TDc:_UNITY_FT_Create_Class_tt_cmap_classes
h6i:__ZN15dense_hashtableINSt3__24pairIK10KeyWrapperINS1_IPK14Il2CppAssemblyP11Il2CppClassEEEjEES9_17ReflectionMapHashIS8_EN14dense_hash_mapIS9_jSD_NS9_14EqualsComparerINS0_8equal_toIS8_EEEENS0_9allocatorISB_EEE9SelectKeyESI_SK_EC2ERKSN_j
i8b:__ZN9Scripting18RaiseNullExceptionEPKcz
ODe:_ReadOnlyCollection_1_System_Collections_IList_Insert_m2659121605_gshared
N8:__ZN13RuntimeStaticI13RendererSceneLb0EE16StaticInitializeEPv
Wgi:_PlayableHandle_GetHashCode_m1257452282_AdjustorThunk
y4g:_RawImage_SetNativeSize_m672994452
sh:_glCreateProgram
raj:__ZN6il2cpp2vm10Reflection7IsFieldEP12Il2CppObject
F4d:_Array_InternalArray__ICollection_CopyTo_TisContentType_t1028629049_m330597634_gshared
jld:_SimpleEnumerator_Reset_m3524591211
fCi:_Vector2_op_Addition_m1389598521
xAg:_UInt32_ToString_m554020223_AdjustorThunk
sib:__ZN24GenerateTypeTreeTransfer32TransferSTLStyleArrayWithElementI17SortingLayerEntryEEvRT_17TransferMetaFlags
nQh:__Z70RuntimeInvoker_Boolean_t3825574718_Int32_t2071877448_Int16_t4041245914PK10MethodInfoPvPS2_
_Kj:_glUniformMatrix3fv__wrapper
kkb:__ZN5Light9SetupHaloEv
iOb:__Z18Transfer_BlittableI18StreamedBinaryReadILb1EELb1E12PropertyNameEvRK29SerializationCommandArgumentsR31RuntimeSerializationCommandInfo
O6c:_SecurityFrame__ctor_m3738328608_AdjustorThunk
mbj:__ZN15dense_hashtableINSt3__24pairIK10KeyWrapperIPK22Il2CppGenericParameterEPK24MonoGenericParameterInfoEES6_N6il2cpp5utils11PointerHashIS4_EEN14dense_hash_mapIS6_SA_SF_NS6_14EqualsComparerINS0_8equal_toIS5_EEEENS0_9allocatorISB_EEE9SelectKeyESK_SM_EC2ERKSP_j
euf:_X509Certificate2_Import_m3813388542
TRc:__Z33Canvas_Get_Custom_PropScaleFactorP12Il2CppObject
zu:__ZNK26AnimatorControllerPlayable21GetStateMachineMemoryEi
o6:__ZNSt3__26__treeINS_12__value_typeI18UnityInterfaceGUIDP15IUnityInterfaceEENS_19__map_value_compareIS2_S5_NS_4lessIS2_EELb1EEE13stl_allocatorIS5_L18MemLabelIdentifier6ELi16EEE7destroyEPNS_11__tree_nodeIS5_PvEE
z5c:_EvidenceEnumerator_get_Current_m632582639
x0a:__Z15CullLocalLightsR8JobFenceS0_RK22SceneCullingParametersiPK8Vector4fRK13dynamic_arrayIhLj1EER9IndexListSC_PfP5RectTIfEP13TargetEyeMaskPPK5LightRK14ShadowCullData
pad:_DecoderFallback_get_ReplacementFallback_m2155645318
zea:__ZNK6Camera16GetTargetTextureEv
Xjc:__ZN18CrashReportManager33OnPlayerSessionStateChangedStaticEjyy
esd:_Convert_ToDateTime_m3528521877
vHb:__Z35Transfer_Blittable_SingleValueFieldI14SafeBinaryReadyEvRT_R17GeneralMonoObjectRK23StaticTransferFieldInfo
lob:__ZN8Playable20ClearInputConnectionEi
DVa:__ZN13BatchRenderer12EndLoopFlushEv
CBd:_Enum_System_IConvertible_ToChar_m1838232954
HDd:_CultureInfo_CreateTextInfo_m2269397562
Bdd:_Array_SetValue_m2469980129
o7b:__ZNK6Sprite11GetInnerUVsE20SpriteRenderDataMode
IA:__ZN11UnityEngine9Animation28DestroyAvatarBindingConstantEPNS0_21AvatarBindingConstantERN7mecanim6memory9AllocatorE
ELb:__Z29Transfer_Blittable_ArrayFieldI24GenerateTypeTreeTransfer11ColorRGBA32EvRT_R9ArrayInfoRK23StaticTransferFieldInfo
aZb:__ZN16MessageForwarder23RegisterMessageCallbackEiPFvPviR11MessageDataEPKN5Unity4TypeE
s4i:__ZN6il2cpp2os4File9SetLengthEPNS0_10FileHandleExPi
bi:_gmtime
ii:_emscripten_glUniform3i
uya:__ZNK7ApiGLES10GetContextEv
o7c:_Single_System_IConvertible_ToInt16_m962677079_AdjustorThunk
lGb:__Z18Transfer_BlittableI14SafeBinaryReadLb1E5RectTIfEEvRK29SerializationCommandArgumentsR31RuntimeSerializationCommandInfo
Sna:__ZN15TextureSettings14SetAnisoLimitsEii
zLb:__Z19TransferField_ArrayI24GenerateTypeTreeTransfer27Converter_SimpleNativeClassI10RectOffsetEEvRK23StaticTransferFieldInfoR31RuntimeSerializationCommandInfoRT0_
TOc:__ZN2UI6Canvas19GetProjectionMatrixEv
Lka:__ZN6prcoreL17RemapGenericFloatI18TexFormatARGBFloat15TexFormatRGHalfEEvPKNS_9InnerInfoE
sCi:_Vector3__ctor_m2720820983
oZg:_Mesh_CheckCanAccessSubmeshIndices_m2098382465
L4c:_String_memcpy2_m2338403668
eqh:_InternalEnumerator_1_get_Current_m4154615771_AdjustorThunk
nmb:__ZN11LightProbes23VirtualRedirectTransferER24GenerateTypeTreeTransfer
KY:__GLOBAL__sub_I_runtime_graphics_lod_lump_cpp
_5d:_Array_InternalArray__set_Item_TisDateTime_t693205669_m197118909_gshared
pKg:_ModuleBuilder_GetToken_m4190668737
UQj:_emscripten_glIsProgram__wrapper
e2b:__ZL22PrepareMeshRenderNodesILb1EEvR35RenderNodeQueuePrepareThreadContext
gX:__ZN20LocalFileSystemPosix5TouchER13FileEntryData
Usc:__ZN9JSONWrite8TransferI13dynamic_arrayItLj2EEEEvRT_PKc17TransferMetaFlags
bug:_NativeEventCalls_SetEvent_internal_m2449488771
yi:_emscripten_glDrawElements
r9e:_X509CertificateEnumerator_System_Collections_IEnumerator_MoveNext_m1064716431
T1c:_RSAPKCS1SignatureDeformatter_SetHashAlgorithm_m894366837
z8e:_X509Certificate_get_DSA_m3959895595
gYg:_Mathf_Round_m227387340
Yfd:_Boolean_System_IConvertible_ToDouble_m624978277
rzd:_Delegate_get_Method_m2968370506
qLd:_Button__ctor_m975719067
NBi:_UnityException__ctor_m3650417185
FOg:_MonoProperty_GetValue_m2150318626
vwg:_TimeSpan_CompareTo_m2891128664
As:__ZN9BlobWriteD2Ev
dwi:_PKCS12_AddCertificate_m3637520737
XEa:__Z33GetMinimumTextureMipSizeForFormat13TextureFormat
wGb:__ZL26Transfer_SimpleNativeClassI14SafeBinaryRead8GradientLb0EEvRK29SerializationCommandArgumentsR31RuntimeSerializationCommandInfo
hQj:_emscripten_glClientActiveTexture__wrapper
OXi:__ZNK15dense_hashtableI10KeyWrapperIPK17Il2CppGenericInstES4_N6il2cpp8metadata21Il2CppGenericInstHashEN14dense_hash_setIS4_S7_NS4_14EqualsComparerINS6_24Il2CppGenericInstCompareEEENSt3__29allocatorIS4_EEE8IdentityESB_SE_E4findERKS4_
l3e:_PrimalityTests_RabinMillerTest_m1376858197
U_c:_HMACSHA1__ctor_m2027292306
Uog:_SByte_System_IConvertible_ToUInt64_m2174352876_AdjustorThunk
$pg:_DES_Create_m2705450713
Swi:_X509CertificateCollection_Remove_m2722259192
f2d:_Array_InternalArray__IndexOf_TisSingle_t2076509932_m2151846718_gshared
Uca:__ZN13RenderTexture23VirtualRedirectTransferER18StreamedBinaryReadILb0EE
ANf:__ZL56StringBuilder_t1221177846_CustomAttributesCacheGeneratorP21CustomAttributesCache
$Je:_NumberFormatter_FormatHexadecimal_m1317851390
TEc:_UNITY_tt_face_lookup_table
fvf:_X509Certificate2Collection_AddRange_m1503879780
oTe:_StreamReader__ctor_m871771009
f2g:_Resources_GetBuiltinResource_m582410469
XIc:_cf2_stack_pushFixed
tBa:__ZN4crnd12crn_unpacker12unpack_dxt5aEPPhjjjjjj
Ari:_AnchorInfo_get_Length_m1721106162
ABi:_Transform_get_childCount_m881385315
ekg:_RemotingConfiguration_RegisterActivatedClientType_m2207611714
dOa:__ZZ23InitPlayerLoopCallbacksvEN45EarlyUpdateScriptRunDelayedStartupFramestruct7ForwardEv
SPg:_GameObject_GetComponentInChildren_m4263325740
Jdh:_Transform_1_Invoke_m1224512163_gshared
zzj:__ZN6il2cpp2os5Mutex4LockEb
FPb:__Z29Transfer_Blittable_ArrayFieldI18StreamedBinaryReadILb1EE8Vector2fEvRT_R9ArrayInfoRK23StaticTransferFieldInfo
Bhj:__ZN6il2cpp2vm13LivenessState25FieldCanContainReferencesEP9FieldInfo
JRb:__ZL19RequireCorLibMethodPKcS0_S0_
xZg:_MonoBehaviour_IsInvoking_m1469271462
Mvb:__ZN15SerializeTraitsI13dynamic_arrayI10BlendShapeLj4EEE19ResizeSTLStyleArrayERS2_i18MemLabelIdentifier
rFf:__ZL111RegionInfo_t3784626978_CustomAttributesCacheGenerator_RegionInfo_t3784626978____CurrencyNativeName_PropertyInfoP21CustomAttributesCache
w$c:_MD5_Create_m1572997499
iaf:_AppDomain_LoadAssembly_m1537679648
zla:__ZN6prcoreL26RemapGenericIntegerToFloatI17TexFormatARGB888817TexFormatRGBFloatEEvPKNS_9InnerInfoE
Huh:_InternalEnumerator_1_get_Current_m789289033_gshared
B4i:__ZN6il2cpp2vm14TypeNameParser26ParseTypeArgumentsOptionalERi
J1a:__ZN15LODGroupManager27GarbageCollectCameraLODDataEv
dfa:__ZN11NamedObjectC2E18MemLabelIdentifier18ObjectCreationMode
e7a:__ZN13ScreenManagerC2Ev
_Cg:_OrdinalComparer_GetHashCode_m3400975772
glc:__ZN12GUIClipState20CalculateMouseValuesER10InputEvent
QKb:__Z18Transfer_BlittableI24GenerateTypeTreeTransferLb0E12PropertyNameEvRK29SerializationCommandArgumentsR31RuntimeSerializationCommandInfo
qya:__ZN7ApiGLES4InitERK14GfxContextGLESR16GfxDeviceLevelGL
JTc:__Z31CustomEventData_CUSTOM_AddSByteP12Il2CppObjectP12Il2CppStringa
yoa:__ZNK11LightProbes14LightProbeData33GetLightProbeInterpolationWeightsERK8Vector3fRiR8Vector4fRf
Gig:_SoapServices_GetAssemblyName_m2037446159
wme:_List_1_System_Collections_IList_IndexOf_m3828407883_gshared
_bb:__ZN21UnityDefaultAllocatorI17LowLevelAllocatorED0Ev
aAg:_UInt32_System_IConvertible_ToInt64_m3091851828_AdjustorThunk
fCa:__Z14DecodeBC7BlockP9HDRColorAPKh
R1b:__ZNK24RendererAnimationBinding12GetPPtrValueERKN11UnityEngine9Animation10BoundCurveE
iPa:_UNITY_png_set_IHDR
Whf:_ClientSessionCache__cctor_m1134810266
wsi:_CharacterClass_GetIntervalCost_m2706255216
gmg:_ObjectReader_ReadGenericArray_m788836286
EPg:_NeutralResourcesLanguageAttribute__ctor_m1145808404
RHi:_UnityAction_2_Invoke_m1528820797_gshared
Dwj:_GC_new_proc_inner
kc:invoke_fiiffi
vca:__ZN19RenderBufferManager13GetTempBufferE17RenderTextureDesc
ffi:_AnimatorControllerPlayable_GetLayerIndexInternal_m696260605
YJc:_UNITY_FT_Init_Class_cff_service_glyph_dict
t0c:_RijndaelManagedTransform_TransformFinalBlock_m3663752599
J9c:_String_Format_m4262916296
zpa:__ZL24stbir__filter_catmullromff
y1e:_SimpleCollator_CompareInternal_m280569710
iFj:__ZNSt3__212basic_stringIcNS_11char_traitsIcEENS_9allocatorIcEEE6__initEPKcjj
Azc:__ZN20TextRenderingPrivate15GetFormatStringER11UTF16StringR13dynamic_arrayINS_16TextFormatChangeELj4EE
cF:__Z112Register_UnityEngine_Experimental_Director_AnimatorControllerPlayable_INTERNAL_CALL_CrossFadeInFixedTimeInternalv
Cuf:_X509ExtensionEnumerator_get_Current_m3926549773
kKe:_NumberFormatter_IsZeroOnly_m3495795110
Uwh:_InternalEnumerator_1_System_Collections_IEnumerator_get_Current_m3732729179_AdjustorThunk
MOe:_Int32_ValidDigit_m2682121722
Fx:__ZN7mecanim9animation12GetHumanPoseIfEEvRKNS0_18ClipMuscleConstantEPKT_RNS_5human9HumanPoseE
Ang:_SerializationInfo_AddValue_m2342806462
_vj:_GC_init_headers
Syj:__ZNSt3__26__treeINS_12__value_typeINS_12basic_stringIcNS_11char_traitsIcEENS_9allocatorIcEEEEPFvvEEENS_19__map_value_compareIS7_SA_NS_4lessIS7_EELb1EEENS5_ISA_EEE13__lower_boundIS7_EENS_15__tree_iteratorISA_PNS_11__tree_nodeISA_PvEEiEERKT_SM_SM_
HCc:_UNITY_FT_Init_Class_ft_outline_glyph_class
XTd:_Image_get_preferredHeight_m1045199335
Etf:_X509BasicConstraintsExtension__ctor_m4017912156
gKj:_glTexStorage3D__wrapper
GHc:_ft_get_adobe_glyph_index
Myj:__ZNSt3__26__treeINS_12__value_typeINS_12basic_stringIcNS_11char_traitsIcEENS_9allocatorIcEEEEPFvvEEENS_19__map_value_compareIS7_SA_NS_4lessIS7_EELb1EEENS5_ISA_EEE25__emplace_unique_key_argsIS7_JRKNS_21piecewise_construct_tENS_5tupleIJOS7_EEENSL_IJEEEEEENS_4pairINS_15__tree_iteratorISA_PNS_11__tree_nodeISA_PvEEiEEbEERKT_DpOT0_
Whc:__Z47Register_UnityEngine_Texture_Internal_GetHeightv
kEb:__Z25scripting_field_get_flags17ScriptingFieldPtr
iRc:__Z50CanvasRenderer_CUSTOM_SplitUIVertexStreamsInternalP12Il2CppObjectS0_S0_S0_S0_S0_S0_
M5g:_Scrollbar_OnBeginDrag_m574021735
Qhh:_Dictionary_2_Add_m790520409_gshared
IVh:__Z68RuntimeInvoker_Boolean_t3825574718_Rect_t3681755626_SByte_t454417549PK10MethodInfoPvPS2_
bNg:_MonoEvent_GetObjectData_m4084431065
Juc:__ZN8JSONRead8TransferIyEEvRT_PKc17TransferMetaFlagsb
gGb:__Z18Transfer_BlittableI14SafeBinaryReadLb0EtEvRK29SerializationCommandArgumentsR31RuntimeSerializationCommandInfo
koh:_U3CGetEnumeratorU3Ec__Iterator0_MoveNext_m2489948797_gshared
v0d:_Array_BinarySearch_TisIl2CppObject_m2457435347_gshared
TU:__ZNK20DynamicHeapAllocatorI17LowLevelAllocatorE8ContainsEPKv
hcd:_EncoderReplacementFallbackBuffer_Fallback_m4111893059
Vgb:__ZNK13Lz4Compressor14CompressMemoryEPKvjPvPj16CompressionLevel
_gj:__ZN6il2cpp2vm14PlatformInvoke36MarshalCppStringToCSharpStringResultEPKc
u$a:__ZN8Material23GetStencilWriteMaterialEv
AYe:_Math_Log_m3325929366
Iba:__ZNK9ShaderLab11ShaderState16ApplyShaderStateEjPK19ShaderPropertySheetRK17ShaderPassContextP6ShaderPNS_4PassEPNS_11SubProgramsE
Rqi:_Assertion__ctor_m1169129098
qib:__ZN10TagManager8TransferI24GenerateTypeTreeTransferEEvRT_
P4g:_ReflectionMethodsCache_get_Singleton_m2330935729
oyf:_InterpreterFactory_get_GroupCount_m1785101782
qjd:_CharEnumerator_Clone_m3844021309
y4e:_BlockProcessor_Initialize_m3476609078
I6b:__Z35AllocExtractMeshComponentFromScriptRK4Mesh30InternalScriptingShaderChannel34InternalScriptingVertexChannelTypei
Zhb:__ZN10TagManager23VirtualRedirectTransferER24GenerateTypeTreeTransfer
$Fe:_ReadOnlyCollection_1_System_Collections_IList_Remove_m688362945_gshared
tpa:__ZL23stbir__filter_trapezoidff
jxf:_Key_GetHashCode_m345804220
Hwg:_TimeSpan_FromHours_m2521548378
ZAd:_Double_System_IConvertible_ToUInt16_m286326038
vH:__ZNK13AudioListener26GetTypeInfoVirtualInternalEv
$Va:__ZN23ScriptableRenderContextD2Ev
vBa:__ZN4crnd12crn_unpacker11unpack_dxt1EPPhjjjjjj
pXh:__Z153RuntimeInvoker_Vector2_t2243707579_BoundsU26_t1084128289_BoundsU26_t1084128289_SByte_t454417549_SByte_t454417549_Int32_t2071877448_Vector2U26_t3911752445PK10MethodInfoPvPS2_
X7e:_PKCS12__ctor_m3492967071
$lb:__ZN14ShadowSettings8TransferI18StreamedBinaryReadILb0EEEEvRT_
S7i:__ZN15dense_hashtableINSt3__24pairIK10KeyWrapperINS1_IPK10MethodInfoP11Il2CppClassEEEjEES9_17ReflectionMapHashIS8_EN14dense_hash_mapIS9_jSD_NS9_14EqualsComparerINS0_8equal_toIS8_EEEENS0_9allocatorISB_EEE9SelectKeyESI_SK_E15insert_noresizeERKSB_
MMc:__Z32TextGenerator_CUSTOM_Dispose_cppP12Il2CppObject
ofj:__ZN6il2cpp6icalls8mscorlib6System19ExtractWidenedValueE14Il2CppTypeEnumPv
pwh:_InternalEnumerator_1_get_Current_m2198364332_gshared
jwj:_GC_invoke_finalizers
Fxh:_InternalEnumerator_1_get_Current_m1715820327_gshared
aBb:__ZNSt3__26vectorIN30RuntimeInitializeOnLoadManager9ClassInfoE13stl_allocatorIS2_L18MemLabelIdentifier12ELi16EEE6assignINS_11__wrap_iterIPS2_EEEENS_9enable_ifIXaasr21__is_forward_iteratorIT_EE5valuesr16is_constructibleIS2_NS_15iterator_traitsISC_E9referenceEEE5valueEvE4typeESC_SC_
qGb:__Z18Transfer_BlittableI14SafeBinaryReadLb0E8BitFieldEvRK29SerializationCommandArgumentsR31RuntimeSerializationCommandInfo
wKg:_OpCode_GetHashCode_m2974727122_AdjustorThunk
hHg:_EnumBuilder_get_BaseType_m63295819
Uhd:_Byte_ToString_m1309661918_AdjustorThunk
TAh:_Comparer_1_System_Collections_IComparer_Compare_m1153499515_gshared
nSe:_Directory_CreateDirectoriesInternal_m2817848291
nPe:_Int32_System_IConvertible_ToInt64_m3790029067
orh:_InternalEnumerator_1_System_Collections_IEnumerator_get_Current_m3546309124_gshared
o4a:__ZNK10GameObject25QueryComponentByExactTypeEPKN5Unity4TypeE
$sg:_UTF7Encoding_GetDecoder_m396865028
ufa:__ZNK9ShaderLab22ShaderStencilStateDesc17ToGfxStencilStateEPK19ShaderPropertySheetS3_RK14GfxRasterStateR15GfxStencilState
H5e:_SmallXmlParser_ReadContent_m4038164984
Nxi:_X509Extension_WriteLine_m364247613
fFc:_tt_cmap0_char_next
Zab:__ZN15GUIEventManager10QueueEventERK10InputEvent
gCa:__Z15DecodeBC6HBlockP9HDRColorAPKh
EPe:_Int32_Equals_m753832628_AdjustorThunk
qwj:_GC_malloc_uncollectable
Emd:_CollectionBase_System_Collections_IList_get_IsReadOnly_m2883787483
nab:__ZNK16MemoryFileSystem6ParentERK13FileEntryDataRN4core12basic_stringIcNS3_20StringStorageDefaultIcEEEE
XBb:__ZN20ArchiveStorageHeader13IsArchiveFileER12FileAccessor
h7:__ZN15LODGroupManagerD2Ev
zDg:_Assembly_IsDefined_m2841897391
d4i:__GLOBAL__sub_I_File_cpp
tKa:__ZN12IFileAdapter9SetLengthER13FileEntryDatay
dVd:_InputField_set_lineType_m3589045448
ohc:__Z39SortingLayer_CUSTOM_GetLayerValueFromIDi
fe:_Mix_PlayMusic
hKc:_cff_cmap_encoding_init
cnh:_EqualityComparer_1_System_Collections_IEqualityComparer_GetHashCode_m2460068977_gshared
iq:__ZN7Hash1288TransferI19StreamedBinaryWriteILb0EEEEvRT_
Jla:__ZN19RuntimeSceneManager24PrepareNewBootstrapSceneEv
w2b:__ZN13ProduceHelperI5LightLb0EE7ProduceE18MemLabelIdentifier18ObjectCreationMode
fdd:_Array_GetLongLength_m3005360186
y3a:__ZN10SpookyHash7Hash128EPKvjPyS2_
Z0a:__ZL60CombineDirectionalShadowCasterCullingIndexListsAndDestroyJobP20ShadowCullingJobData
MNe:_Guid_ToString_m3858592945_AdjustorThunk
rth:_InternalEnumerator_1_get_Current_m3206960238_gshared
Ifi:_AnimatorControllerPlayable_GetNextAnimatorClipInfoInternal_m2063705906
D5c:_Hash_GetData_m3416116641
G_c:_HMAC_get_Block_m1367204253
OE:__Z104Register_UnityEngine_Experimental_Director_AnimatorControllerPlayable_INTERNAL_CALL_GetLayerNameInternalv
HUb:__ZN9ShaderLab18SerializedPropertyC2ERKS0_
IHc:_cff_driver_init
xPd:_Dropdown_AlphaFadeList_m511547679
Ehi:_ResourceReader_LoadResourceValues_m1346096618
O1d:_Array_InternalArray__IndexOf_TisDateTime_t693205669_m2327436641_gshared
hKe:_NumberFormatter_RoundDecimal_m176606570
Myf:_Interval_Contains_m3209397137_AdjustorThunk
Btb:__ZN16SpriteRenderData8TransferI14SafeBinaryReadEEvRT_
Psd:_Convert_ToDouble_m1714698801
RPa:_init_block
wGh:__Z88RuntimeInvoker_Int32_t2071877448_Il2CppObject_Il2CppObject_Il2CppObject_SByte_t454417549PK10MethodInfoPvPS2_
zwh:_InternalEnumerator_1_get_Current_m35328337_gshared
Jdf:_MD4Managed_Encode_m2097839378
K3b:__ZN6CameraC2E18MemLabelIdentifier18ObjectCreationMode
FHi:_UnityAction_1_Invoke_m3061904506_gshared
YQe:_Int64_ToString_m1544341651
l$a:__ZL31SetRenderStateForStencilMarkingR9GfxDeviceR17ShaderPassContextjj
dNa:__ZN20ArchiveStorageReader20FillChunkCachedBlockEPNS_11CachedBlockE
PSc:__ZNSt3__26__treeINS_12__value_typeIN4core12basic_stringIcNS2_20StringStorageDefaultIcEEEEN11UnityEngine9Analytics15UserCustomEvent11CustomValueEEENS_19__map_value_compareIS6_SB_NS_4lessIS6_EELb1EEE13stl_allocatorISB_L18MemLabelIdentifier5ELi16EEE7destroyEPNS_11__tree_nodeISB_PvEE
QM:__ZN10AudioMixer16ResumeProcessingEv
jze:_Collection_1_ConvertItem_m2559468638_gshared
hqi:_Parser_GetMapping_m2879066771
VHb:__ZNSt3__26vectorI17AnimationCurveTplIfE13stl_allocatorIS2_L18MemLabelIdentifier1ELi16EEE7reserveEj
BId:_PointerEventData_get_dragging_m220490640
yYe:_Math_Ceiling_m614624719
acf:_BigInteger_op_Inequality_m4286929594
Weg:__ZL80CanvasScaler_t2574720772_CustomAttributesCacheGenerator_m_ReferencePixelsPerUnitP21CustomAttributesCache
u6c:_SecurityException__ctor_m230238597
MPc:__ZN2UI13CanvasManager21EmitGeometryForCameraEP6Camera
Id:_glClearColor
cKe:_CustomInfo_Parse_m3558073058
o_i:_KeyValuePair_2_get_Value_m1916631176_gshared
FVb:__ZN9ShaderLab16SerializedTagMap8TransferI19StreamedBinaryWriteILb0EEEEvRT_
dgh:_Dictionary_2_InitArrays_m3810830177_gshared
Ffj:__ZN6il2cpp6icalls8mscorlib6System9Threading6Thread25SetCachedCurrentUICultureEP12Il2CppThreadP12Il2CppObject
GQj:_glIsVertexArray__wrapper
Gjg:_RemotingServices_DisposeIdentity_m266836454
J1c:_RSAPKCS1KeyExchangeFormatter_SetRSAKey_m3575964424
Vzc:_UNITY_FT_Bitmap_Convert
srd:_DateTimeUtils_GetStandardPattern_m4198947977
_0a:__Z22CullDirectionalShadowsR9IndexListPK9SceneNodePK4AABBR22DirectionalCullContext
Vae:_Array_InternalArray__get_Item_TisUInt16_t986882611_m2599215710_gshared
xBh:_Enumerator_System_Collections_IEnumerator_Reset_m2828524109_gshared
JEg:_Default_IsArrayAssignable_m3862319150
hYi:__ZN15dense_hashtableINSt3__24pairIK10KeyWrapperIPK11Il2CppClassEPKcEES6_N6il2cpp5utils11PointerHashIS3_EEN14dense_hash_mapIS6_S9_SE_NS6_14EqualsComparerINS0_8equal_toIS5_EEEENS0_9allocatorISA_EEE9SelectKeyESJ_SL_E4findERS7_
MJe:_NumberFormatter_FastAppendDigits_m2324805728
LS:__ZN11UnityEngine15CloudWebService14RestDownloader7OnAbortEv
xmg:_FormatterServices_GetUninitializedObject_m1786947853
Cma:__ZN13MonoBehaviour26WillUnloadScriptableObjectEv
fMc:_UNITY_FT_Get_Glyph_Name
VSa:__Z13VFormatBufferPciPKcPi
ALb:__Z19TransferField_ArrayI24GenerateTypeTreeTransfer27Converter_SimpleNativeClassI8GradientEEvRK23StaticTransferFieldInfoR31RuntimeSerializationCommandInfoRT0_
Phi:_ResourceEnumerator_get_Value_m2384033057
y6g:_ScrollRect_get_vertical_m3957330783
OQ:__ZN11UnityEngine15CloudWebService16SessionContainer16MarkAsDispatchedERKN4core12basic_stringIcNS2_20StringStorageDefaultIcEEEE
wnj:__ZN6il2cpp2vm12GenericClass6IsEnumEP18Il2CppGenericClass
Bic:__Z26Transform_CUSTOM_IsChildOfP12Il2CppObjectS0_
lAj:__ZNSt3__26vectorINS_12basic_stringIDsNS_11char_traitsIDsEENS_9allocatorIDsEEEENS4_IS6_EEE18__construct_at_endEj
A5h:_AnimatorStateInfo_IsTag_m1529621725
dUg:_GUIStyle__ctor_m2210993436
Y2e:_BigInteger_op_Subtraction_m2941563507
U1b:__ZN13ProduceHelperI11PreloadDataLb0EE7ProduceE18MemLabelIdentifier18ObjectCreationMode
Zbh:_Enumerator_Reset_m3129803197_gshared
tua:__ZNK13GfxDeviceGLES11GetViewportEv
Rfa:__ZNK9ShaderLab11ShaderState34ShouldRemoveAnyUnsupportedProgramsEv
cMc:_UNITY_tt_face_load_cvt
JSa:__ZN19ShaderPropertySheet29PreallocateArrayUninitializedEN9ShaderLab16FastPropertyNameENS_12PropertyTypeEj
xki:_CrossAppDomainData__ctor_m899931420
bZi:__ZL32InitializeCustomAttributesCachesPv
bLa:__ZN20ArchiveStorageReaderD0Ev
hSb:__ZN6Shader23VirtualRedirectTransferER19StreamedBinaryWriteILb0EE
ikd:_ArrayListWrapper__ctor_m3783588291
eoi:_MethodCall_get_MethodBase_m688041003
kqb:__ZNK9Texture2D26GetTypeInfoVirtualInternalEv
KZc:__ZN19TransportJavaScript7PrepareEv
Foi:_Match_NextMatch_m1088868049
YEh:__Z63RuntimeInvoker_Il2CppObject_Int16_t4041245914_Int16_t4041245914PK10MethodInfoPvPS2_
Pah:_Text_OnPopulateMesh_m835520031
Qaf:_ArgumentOutOfRangeException__ctor_m15523695
Xxb:__ZNSt3__214__split_bufferI9InputAxisRNS_9allocatorIS1_EEED2Ev
tci:_InvokableCall_add_Delegate_m1598143083
kX:__ZNK20LocalFileSystemPosix20GetApplicationFolderEv
QQ:__ZN11UnityEngine15CloudWebService14DataDispatcher31SetupSessionContainerToDispatchEv
ojc:__Z68Register_UnityEngine_Object_INTERNAL_CALL_Internal_InstantiateSinglev
ERb:__Z29Transfer_Blittable_ArrayFieldI18StreamedBinaryReadILb0EE8Vector3fEvRT_R9ArrayInfoRK23StaticTransferFieldInfo
p_d:_Array_InternalArray__ICollection_Remove_TisResourceInfo_t3933049236_m1768394498_gshared
Fef:_RSAManaged_get_KeySize_m3478823737
i4g:_Shadow_ApplyShadowZeroAlloc_m2132231878
Ffa:__ZN9ShaderLab11shaderprops9GetVectorEPK19ShaderPropertySheetS3_NS_16FastPropertyNameE
wI:__ZN4FMOD12ChannelGroup10getDSPHeadEPPNS_3DSPE
Cce:_Enumerator_System_Collections_IEnumerator_Reset_m610822832_gshared
VKc:_UNITY_tt_size_run_prep
NH:__ZN12AudioManager17MainThreadCleanupEv
Gsg:_UTF32Encoding_GetByteCount_m77034086
OZa:__ZNK6Camera18ScreenToWorldPointERK8Vector3f
sfj:__ZN6il2cpp6icalls8mscorlib6System9Threading6Thread11GetDomainIDEv
E0g:_Rect_Overlaps_m4145874649_AdjustorThunk
ULa:__ZN17ArchiveFileSystemD0Ev
Fug:_Thread_get_CurrentContext_m3123598616
gKi:__ZL22div192by96to32withRestPyS_S_jjj
XZa:__ZN14qsort_internal5QSortIP20ShadowCasterSortDatai26ShadowCasterSortDataSorterEEvT_S4_T0_T1_
WS:__ZN11UnityEngine15CloudWebService19SessionEventManager5StartERKN4core12basic_stringIcNS2_20StringStorageDefaultIcEEEEii
QHb:__Z22TransferField_NonArrayI14SafeBinaryRead27Converter_SimpleNativeClassI8GradientEEvRK23StaticTransferFieldInfoR31RuntimeSerializationCommandInfoRT0_
Bf:_emscripten_glBufferData
Ff:_glUniform3iv
DTd:_Image_OnAfterDeserialize_m457193290
vDj:___fseeko
bvg:_Thread_GetHashCode_m2038641494
eSb:__ZNK6Shader26GetTypeInfoVirtualInternalEv
b3d:_Array_InternalArray__ICollection_Add_TisInt16_t4041245914_m321723604_gshared
Pug:_Thread_SetCachedCurrentUICulture_m1504514384
DYg:_Matrix4x4_ToString_m1982554457
$Dj:_fwrite
jFd:_BaseInput_get_compositionCursorPos_m3148596268
UEd:_AxisEventData_set_moveVector_m3227339885
xYg:_Matrix4x4_GetHashCode_m3649708037_AdjustorThunk
eeh:_Enumerator_MoveNext_m1212551889_gshared
vDb:__ZN13MonoBehaviourD0Ev
t9e:_X509CertificateEnumerator_Reset_m3421070487
ePc:__ZN2UI6Canvas18UpdateEventIndexesEv
njd:_CharEnumerator_System_Collections_IEnumerator_get_Current_m1338581333
ubd:_DecoderFallback__cctor_m215821245
cJe:_Func_2_Invoke_m2968608789_gshared
eGd:_EventSystem_set_current_m1323649628
Igc:__Z50RectTransform_CUSTOM_INTERNAL_set_anchoredPositionP12Il2CppObjectRK13Vector2fIcall
xUb:__ZNSt3__26vectorIN9ShaderLab19SerializedSubShaderENS_9allocatorIS2_EEE6resizeEj
Tyd:_Decimal_Multiply_m1884379383
I7a:__ZN4FileC2Ev
nmi:_Context_GetNamedDataSlot_m372993642
GGg:_DerivedType_GetAttributeFlagsImpl_m876862795
Y7i:__ZN15dense_hashtableINSt3__24pairIK10KeyWrapperINS1_IPK10MethodInfoP11Il2CppClassEEEjEES9_17ReflectionMapHashIS8_EN14dense_hash_mapIS9_jSD_NS9_14EqualsComparerINS0_8equal_toIS8_EEEENS0_9allocatorISB_EEE9SelectKeyESI_SK_E12maybe_shrinkEv
zqa:__ZN14BatchAllocator16AllocateInternalEPPvijjj
d_b:__Z13RegisterClassI6SpriteEvv
luj:_min_bytes_allocd
ePb:__ZN17AnimationCurveTplIfE15InvalidateCacheEv
mfc:__Z29Mesh_Get_Custom_PropCanAccessP12Il2CppObject
eub:__ZN6Sprite8TransferI19StreamedBinaryWriteILb0EEEEvRT_
w_g:_Object_get_hideFlags_m4158950869
mJi:_IndexedSet_1_Contains_m4188067325_gshared
qag:__ZL58BaseInputModule_t1295781545_CustomAttributesCacheGeneratorP21CustomAttributesCache
VB:__ZN7mecanim9animation18ControllerConstant15InitializeClassEv
yfa:__ZNK9ShaderLab6TexEnv11PrepareDataEiiP15GfxTextureParam
NDd:_CompareInfo_internal_compare_managed_m1173317301
to:FUNCTION_TABLE_iiiiiiiffiiiiiiiiiffffiiii
_2b:__ZZL23RegisterLightPropertiesR22GenericPropertyBindingEN22Wrapper_LightSpotAngle13SetFloatValueEPvf
OUd:_InputField_get_customCaretColor_m2991404035
qea:__ZNK19StereoRenderTexture7IsEmptyEv
vNe:_Guid_Equals_m2346664749_AdjustorThunk
eK:__ZN29AudioEffectInternalDefinition9CreateDSPEPN4FMOD6SystemEPvPfPP25UnityAudioSpatializerData
Ku:__ZN7mecanim12statemachine20EvaluateStateMachineERKNS0_20StateMachineConstantERKNS0_17StateMachineInputERNS0_18StateMachineOutputERNS0_18StateMachineMemoryERNS0_21StateMachineWorkspaceE
tCi:_Vector3__ctor_m2720820983_AdjustorThunk
Cjf:_SslHandshakeHash_CreateSignature_m3001618400
_La:__ZN17ArchiveFileSystem5CloseER13FileEntryData
hwj:_GC_notify_or_invoke_finalizers
TNa:__ZZ23InitPlayerLoopCallbacksvEN35PostLateUpdateBatchModeUpdatestruct7ForwardEv
H4e:_CryptoConvert_ToCapiPrivateKeyBlob_m850465939
ipj:__ZN6il2cpp2os6Thread5SleepEjb
KOb:__ZN18StreamedBinaryReadILb1EE21TransferSTLStyleArrayIN4core12basic_stringIcNS2_20StringStorageDefaultIcEEEEEEvRT_17TransferMetaFlags
S_:__ZN15DirectorManagerC2Ev
Hyd:_Decimal_Add_m1535064574
cKj:_emscripten_glUniform3f__wrapper
Fn:FUNCTION_TABLE_viiiifii
m4h:_CustomEventData_Add_m2190835956
$ui:_SubjectAltNameExtension_Decode_m3676245240
Qrj:__ZN15dense_hashtableINSt3__24pairIK10KeyWrapperIPK19Il2CppGenericMethodEP10MethodInfoEES6_N6il2cpp8metadata23Il2CppGenericMethodHashEN14dense_hash_mapIS6_S9_SD_NS6_14EqualsComparerINSC_26Il2CppGenericMethodCompareEEENS0_9allocatorISA_EEE9SelectKeyESH_SJ_E4findERS7_
$Rg:_RectOffset_set_right_m1671272302
BOe:_Int16_Parse_m4244889614
eib:__ZN10TagManager23AddDefaultLayerIfNeededEv
Mjb:__ZN10FlareLayer12AddToManagerEv
ize:_Collection_1_IsValidItem_m1082009684_gshared
nsj:__ZN6il2cpp6icalls8mscorlib6System10Reflection10MethodBase31GetMethodFromHandleInternalTypeE12Il2CppIntPtrS5_
S0c:_RIPEMD160Managed_HHH_m1385141959
oej:__ZNK15dense_hashtableINSt3__24pairIK10KeyWrapperINS1_IP11Il2CppClassjEEES4_EES6_N6il2cpp8metadata14ArrayClassHashEN14dense_hash_mapIS6_S4_SB_NS6_14EqualsComparerINSA_17ArrayClassCompareEEENS0_9allocatorIS8_EEE9SelectKeyESF_SH_E12test_deletedEj
PTf:__ZL79X509Chain_t777637347_CustomAttributesCacheGenerator_X509Chain_Build_m2341271288P21CustomAttributesCache
Fyb:__ZN13BuildSettings23VirtualRedirectTransferER24GenerateTypeTreeTransfer
qLb:__ZN24GenerateTypeTreeTransfer21TransferSTLStyleArrayINSt3__26vectorI8GUIStyle13stl_allocatorIS3_L18MemLabelIdentifier1ELi16EEEEEEvRT_17TransferMetaFlags
Y_:__ZZN15DirectorManager15InitializeClassEvEN26UpdateDirectorUpdatestruct7ForwardEv
kYa:__Z16ApplySHConstantsI28ApplyBuiltinInstancePropertyEvRT_RK20SphericalHarmonicsL2
vtc:__Z18Transfer_BlittableI8JSONReadLb1E8Vector2fEvRK29SerializationCommandArgumentsR31RuntimeSerializationCommandInfo
_Ma:__ZN20ArchiveStorageReader15ReadFromStorageEyyPvPy
Sha:__ZN8Material43AddDefaultShaderPropertiesToSavedPropertiesEv
Wjc:__ZN18CrashReportManager15ThreadedCleanupEv
iXa:__Z19DoPrePassRenderLoopR17RenderLoopContextR13dynamic_arrayI16RenderObjectDataLj4EES4_RK11CullResultsRP13RenderTextureSA_Pb
oV:__ZN13MemoryManager12LowLevelFreeEPvj
qOc:__ZN2UI14CanvasRenderer23VirtualRedirectTransferER24GenerateTypeTreeTransfer
HOa:__Z16PresentAfterDrawN9GfxDevice11PresentModeE
SAa:__ZN10DynamicVBO19FillQuadIndexBufferER21DynamicVBOChunkHandle
xBi:_Transform_INTERNAL_CALL_TransformPoint_m4114689647
ech:_Enumerator_System_Collections_IDictionaryEnumerator_get_Value_m2325383168_gshared
mMj:_glGenFramebuffers__wrapper
LOj:_glBindBufferBase__wrapper
eqg:_DESCryptoServiceProvider__ctor_m3979608654
nR:__ZN9JSONWrite8TransferIyEEvRT_PKc17TransferMetaFlags
HEg:_Default_CompareCloserType_m1367126249
bFi:_Nullable_1_GetHashCode_m1791015856_gshared
DXa:__ZN22MotionVectorRenderLoop16PerformRenderingER8JobFence
Fqe:_List_1_Find_m1809770055_gshared
$4e:_DSAManaged_ImportParameters_m987307570
tS:__ZN11UnityEngine15CloudWebService18RestFileDownloader13OnReceiveDataEPKvj
cLc:_UNITY_TT_RunIns
fLc:_Current_Ppem
d3g:_StencilMaterial_Add_m2540251346
w7g:_ScrollRect_CalculateOffset_m1659273054
m4e:_ASN1Convert_ToInt32_m2828871616
xsf:_AsnEncodedData__ctor_m1211934482
msh:_InternalEnumerator_1_System_Collections_IEnumerator_get_Current_m1025729343_AdjustorThunk
_Ij:dynCall_iiiiiiiii
dZ:__ZL25InitializeUnityWebStreamsPv
aSb:__ZN6ShaderD0Ev
FBb:__ZN18BackgroundJobQueue19ScheduleJobInternalEPFvPvES0_RKNS_8JobFenceE
izd:_Decimal_ToString_m759431975_AdjustorThunk
VQa:__ZN25CameraStackRenderingState18EndStereoRenderingEv
GW:__ZN20LocalFileSystemPosix9SetLengthER13FileEntryDatay
kQd:_FontData_set_bestFit_m1987821379
yBd:_Enum__cctor_m3214832791
Cof:_HybridDictionary_set_Item_m4049906479
Iph:_InternalEnumerator_1_System_Collections_IEnumerator_get_Current_m1335784110_AdjustorThunk
H8c:_String_IndexOf_m1887352430
yzb:__ZN26PlayerSettingsSplashScreen8TransferI24GenerateTypeTreeTransferEEvRT_
ORd:_Graphic_UnregisterDirtyMaterialCallback_m819829270
mEg:_AssemblyName_SetPublicKey_m1491402438
zg:_glScissor
$7a:__ZNSt3__26vectorI10vector_mapIiiNS_4lessIiEE13stl_allocatorINS_4pairIiiEEL18MemLabelIdentifier37ELi16EEES4_IS9_LS7_37ELi16EEE21__push_back_slow_pathIKS9_EEvRT_
Gqg:_DSACryptoServiceProvider_ExportParameters_m2503144019
KDg:_Assembly_GetName_m790410837
ZP:__Z6simd4fIN6detail9FourTupleEE13Simd4fFactoryIT_ERK13Simd4iFactoryIS3_E
_Gc:_UNITY_ft_corner_is_flat
Iva:__ZN13GfxDeviceGLES21RegisterNativeTextureE9TextureIDi16TextureDimension
nhc:__Z44Register_UnityEngine_Material_DisableKeywordv
gn:FUNCTION_TABLE_iiiiiiif
jQg:_Gradient_Init_m4156899649
jbd:_DecoderExceptionFallback__ctor_m3330792769
Irh:_InternalEnumerator_1_System_Collections_IEnumerator_get_Current_m4259662004_gshared
hPj:_emscripten_glUniform4fv__wrapper
dn:FUNCTION_TABLE_iiiiiiii
o0c:_RijndaelManaged_CreateEncryptor_m315737265
Mzd:_DelegateEntry__ctor_m2996191962
Wzh:_DefaultComparer_Compare_m2804119458_gshared
u6d:_Array_InternalArray__set_Item_TisUInt16_t986882611_m59367493_gshared
Fxc:__ZN19ControllerHitReportD2Ev
Jfi:_AnimatorControllerPlayable_INTERNAL_CALL_GetNextAnimatorClipInfoInternal_m4165249349
i5h:_Animator_SetTriggerString_m2002790359
tja:__ZN6prcoreL12RemapGenericI11TexFormatI817TexFormatARGB4444EEvPKNS_9InnerInfoE
vKi:_GenericEqualityComparer_1_Equals_m2469044952_gshared
cwd:_DateTime_System_IConvertible_ToUInt64_m2788957482
HGc:_Bezier_Up
cEi:_SymmetricTransform_CheckInput_m1287204652
fyg:_Type_GetProperty_m1510204374
Cmd:_CollectionBase_System_Collections_IList_Remove_m2931078938
fqi:_Parser__ctor_m1719025083
lmj:__ZN15dense_hashtableINSt3__24pairIK10KeyWrapperINS1_IPKcS4_EEEiEES6_24NamespaceAndNamePairHashN14dense_hash_mapIS6_iS9_NS6_14EqualsComparerI26NamespaceAndNamePairEqualsEENS0_9allocatorIS8_EEE9SelectKeyESD_SF_EC2ERKSI_j
T6g:_ScrollRect_set_horizontalScrollbarVisibility_m3790647510
GZ:__ZN15DirectorManager12RegisterJobsEP13PlayableGraph
Smc:__Z38Event_CUSTOM_Internal_GetMousePositionP12Il2CppObjectP13Vector2fIcall
RS:__ZN11UnityEngine15CloudWebService14DataDispatcher10InitializeERKN4core12basic_stringIcNS2_20StringStorageDefaultIcEEEEPvjRNS0_18ICloudJobSchedulerE
sYc:__ZN22CrashReportingSettingsC2Ev
nJc:_cff_free_glyph_data
rsc:__ZN9JSONWrite8TransferI13dynamic_arrayIdLj8EEEEvRT_PKc17TransferMetaFlags
GT:__ZN11UnityEngine15CloudWebService14DataDispatcher17PlayerLoopHandlerEv
zx:__ZN7mecanim13ValueArraySubERKNS_10ValueArrayERS0_PKNS_14ValueArrayMaskE
Dyi:_Sprite_get_pixelsPerUnit_m1785791149
Eyd:_Decimal_System_IConvertible_ToUInt64_m2457277336
oWc:__ZN11UnityEngine7Connect15AppRunningEventC2Ejjjj
LGj:dynCall_iiiiifii
z3:__Z26GetManagedAttributeManagerv
_bh:_Enumerator_System_Collections_IEnumerator_Reset_m3225937576_AdjustorThunk
z0e:_MSCompatUnicodeTable_Category_m3854768527
lBj:__ZN6il2cpp6icalls8mscorlib6System8DateTime16GetTimeMonotonicEv
ASa:__ZN19ComputeShaderKernelC2ERKS_
pvg:_Timer__cctor_m3277205579
Awb:__ZN4Mesh14ClearSkinCacheEv
zLa:__ZNK12HandlerChain12LastModifiedERK13FileEntryData
Nrc:__Z18Transfer_BlittableI9JSONWriteLb0EjEvRK29SerializationCommandArgumentsR31RuntimeSerializationCommandInfo
UVb:__ZL15GetIndexForNameRNSt3__23mapIN4core12basic_stringIcNS1_20StringStorageDefaultIcEEEEiNS_4lessIS5_EENS_9allocatorINS_4pairIKS5_iEEEEEERSA_
Og:__exit
PL:__ZN11AudioSource13AwakeFromLoadE17AwakeFromLoadMode
dci:_Event_get_rawType_m1373640154
dU:__ZNK13EmscriptenWWW6GetETAEv
Lwi:_X509CertificateCollection_AddRange_m3644738604
WXc:__ZN11UnityEngine7Connect13ConnectConfigC2Ev
rcb:__ZL31FindActiveTransformWithPathImplPKcR10GameObjectb
p4e:_BitConverterLE_UShortFromBytes_m2795078058
aLj:_glViewport__wrapper
rHj:dynCall_viffi
$6f:__ZL68SerializePrivateVariables_t2241034664_CustomAttributesCacheGeneratorP21CustomAttributesCache
Bdh:_Transform_1_Invoke_m2770612589_gshared
gJj:b4
hJj:b5
iJj:b6
jJj:b7
aJj:b0
bJj:b1
cJj:b2
Qvb:__ZN4Mesh8TransferI24GenerateTypeTreeTransferEEvRT_
atc:__ZN9JSONWrite8TransferI13dynamic_arrayI10ColorRGBAfLj4EEEEvRT_PKc17TransferMetaFlags
kJj:b8
lJj:b9
H$i:__ZN6il2cpp2vm21ThreadPoolCompartmentC2Ev
sha:__Z14resize_trimmedINSt3__26vectorIN4core12basic_stringIcNS2_20StringStorageDefaultIcEEEE13stl_allocatorIS6_L18MemLabelIdentifier1ELi16EEEEEvRT_j
MQ:__ZN11UnityEngine15CloudWebService16SessionContainer13DeleteArchiveERKN4core12basic_stringIcNS2_20StringStorageDefaultIcEEEE
Xjd:_ArrayList_CopyTo_m1348662971
xGc:_Vertical_Sweep_Step
SVd:_InputField_AssignPositioningIfNeeded_m735749913
sOe:_Int16_System_IConvertible_ToUInt64_m2064691861
x7i:__ZN15dense_hashtableINSt3__24pairIK10KeyWrapperIPK10Il2CppTypeEjEES6_N6il2cpp8metadata14Il2CppTypeHashEN14dense_hash_mapIS6_jSB_NS6_14EqualsComparerINSA_26Il2CppTypeEqualityComparerEEENS0_9allocatorIS8_EEE9SelectKeyESF_SH_E9copy_fromERKSK_j
GEi:_AesTransform__cctor_m619532760
XS:__ZN19CloudServiceHandler17PauseEventHandlerEb
lWi:__ZN15dense_hashtableINSt3__24pairIK10KeyWrapperI13dynamic_arrayIPK10Il2CppTypeLj4EEEPFvvEEES8_N6il2cpp8metadata19Il2CppSignatureHashEN14dense_hash_mapIS8_SB_SF_NS8_14EqualsComparerINSE_22Il2CppSignatureCompareEEENS0_9allocatorISC_EEE9SelectKeyESJ_SL_E3endEv
OOc:__ZN2UI6Canvas29EncapsulateChildrenMeshBoundsEv
_7d:_Array_Sort_TisCustomAttributeNamedArgument_t94157543_m2435281169_gshared
vZd:_Array_InternalArray__ICollection_Contains_TisTimeSpan_t3430258949_m802614527_gshared
Ypb:__ZN17SharedTextureDataC2E18MemLabelIdentifierii13TextureFormatiiibb
tbc:__Z50AsyncOperation_Get_Custom_PropAllowSceneActivationP12Il2CppObject
Kjf:_TlsClientFinished_ProcessAsSsl3_m1576972610
tQ:__ZN11UnityEngine15CloudWebService18CloudServiceConfigD2Ev
Uka:__ZN6prcoreL17RemapGenericFloatI15TexFormatRGHalf15TexFormatRFloatEEvPKNS_9InnerInfoE
hYb:__ZN2UI13RectTransform8TransferI19StreamedBinaryWriteILb0EEEEvRT_
_8e:_PKCS12_Clone_m4018301141
jUc:__Z72Register_UnityEngine_Analytics_UnityAnalyticsHandler_SendCustomEventNamev
bLh:__Z128RuntimeInvoker_Void_t1841601450_Il2CppObject_Il2CppObject_Int64_t909078037_ObjectU26_t597476745_SerializationInfoU26_t4051840202PK10MethodInfoPvPS2_
uJa:__ZN20ArchiveStorageReader18DestroyCachedBlockEPNS_11CachedBlockE
o3d:_Array_InternalArray__ICollection_Add_TisTypeTag_t141209596_m1991820054_gshared
V7d:_Array_Sort_TisIl2CppObject_m3717288230_gshared
fWb:__ZN9ShaderLab4Pass24CreateFromSerializedPassERKNS_14SerializedPassEPK6Shader
_hc:__Z61Register_UnityEngine_Texture2D_INTERNAL_CALL_GetPixelBilinearv
c_h:__Z93RuntimeInvoker_Int32_t2071877448_RaycastResult_t21186376_RaycastResult_t21186376_Il2CppObjectPK10MethodInfoPvPS2_
ml:_emscripten_set_deviceorientation_callback
Dpf:_KeysCollection_System_Collections_ICollection_CopyTo_m1079819835
dBb:__Z14resize_trimmedINSt3__26vectorIN4core12basic_stringIcNS2_20StringStorageDefaultIcEEEE13stl_allocatorIS6_L18MemLabelIdentifier12ELi16EEEEEvRT_j
SRf:__ZL61StringSplitOptions_t2996162939_CustomAttributesCacheGeneratorP21CustomAttributesCache
aid:_Char_System_IConvertible_ToBoolean_m1492656201
haj:__ZN6il2cpp2vm10Reflection15GetParamObjectsEPK10MethodInfoP11Il2CppClass
TZ:__ZN8Playable16ProcessPlayStateERK19DirectorVisitorInfo
Nm:FUNCTION_TABLE_fif
zhj:__ZN6il2cpp2vm13LivenessState14TraverseObjectEP12Il2CppObjectPS1_
t7b:__ZN4Mesh17RecalculateBoundsEv
vIe:_Comparison_1_BeginInvoke_m2263530995_gshared
bCb:__ZN23ArchiveStorageConverter21FinalizeTargetArchiveEPj
eXe:_SynchronizedReader_ReadLine_m723354621
rBg:_UInt64_ToString_m446228920_AdjustorThunk
BBa:__ZN4crnd12crn_unpacker22decode_alpha_selectorsEv
FCj:_scanexp
lY:__ZNK10FileSystem9EnumerateEPKcP13dynamic_arrayI13FileEntryInfoLj8EEb19FileEnumerationFlag
Gkc:__ZN18CrashReportManager27OnPlayerSessionStateChangedEjyy
G9b:__ZN9Scripting30CreateScriptableObjectWithTypeE28ScriptingSystemTypeObjectPtrb
sac:__ZN8Material10GetTextureEN9ShaderLab16FastPropertyNameE
cua:__ZN13GfxDeviceGLES19SetUserBackfaceModeEb
DDd:_CompareInfo_System_Runtime_Serialization_IDeserializationCallback_OnDeserialization_m3125905389
Nrd:_DateTimeOffset_get_UtcDateTime_m3162550774
xzd:_Delegate_CreateDelegate_m3052767705
xWh:__Z83RuntimeInvoker_Il2CppObject_Il2CppObject_SByte_t454417549_Il2CppObject_Il2CppObjectPK10MethodInfoPvPS2_
iIg:_FieldBuilder_get_FieldHandle_m1845846823
Mfc:__Z43Register_UnityEngine_Mesh_RecalculateBoundsv
Bvd:_DateTime_System_IConvertible_ToChar_m2489529194
bii:_ResourceSet_Dispose_m2615980752
VWc:__ZN20UnityConnectSettingsD0Ev
s0a:__Z15GetLightManagerv
qac:__ZN18UnityPropertySheet21AddNewSerializedPropsERKS_
kai:_Component_CompareTag_m3443292365
cda:__ZNK13RenderTexture20GetTextureLayerCountEv
hHa:__ZN9GfxDevice13SetViewMatrixERK10Matrix4x4f
vqg:_DSA_ZeroizePrivateKey_m86428970
Xue:_Collection_1_IsSynchronized_m3880942788_gshared
wBg:_UInt64_ToString_m794467354_AdjustorThunk
q1g:_ReapplyDrivenProperties_Invoke_m1090213637
PTa:__ZN13MonoBehaviour30InvokeMethodOrCoroutineCheckedE18ScriptingMethodPtr18ScriptingObjectPtrP21ScriptingExceptionPtr
OHd:_PointerEventData_get_position_m2131765015
kee:_Enumerator_System_Collections_IEnumerator_Reset_m1334470667_AdjustorThunk
tTd:_Image_get_alphaHitTestMinimumThreshold_m3911467271
Era:__ZNSt3__27__sort3IRN18AssetBundleManager27SortPreloadDataByIdentifierEPNS1_11PreloadDataEEEjT0_S6_S6_T_
gua:__ZN9GfxDevice21SetWorldMatrixAndTypeERK10Matrix4x4f13TransformType
Mc:emscriptenWebGLComputeImageSize
$si:_PositionAssertion_Compile_m519727600
U1d:_Array_InternalArray__IndexOf_TisIntPtr_t_m1629926061_gshared
PRe:_ObjectDisposedException__ctor_m2844841908
X5a:__ZN17SharedTextureData17GetImageReferenceEP14ImageReferenceii
FTf:__ZL99X509Certificate2_t4056456767_CustomAttributesCacheGenerator_X509Certificate2_GetNameInfo_m402390219P21CustomAttributesCache
BE:__Z57AnimatorControllerPlayable_CUSTOM_INTERNAL_CALL_GetBoolIDR9HPlayablei
Coj:__ZN6il2cpp6icalls8mscorlib6System9AppDomain15getFriendlyNameEP15Il2CppAppDomain
Mnd:_Hashtable_get_Keys_m4273499121
Hoi:_Regex_get_RightToLeft_m529734879
JXe:_TextWriter_Write_m3202446297
qub:__ZN14Texture2DArray13AwakeFromLoadE17AwakeFromLoadMode
YUa:__ZL18ReplacementPassJobPN21GfxDeviceAsyncCommand10ArgScratchEPKNS_3ArgE
U2a:__ZN7Cursors16GetCursorHotspotEv
bua:__ZN13GfxDeviceGLES12GetSRGBWriteEv
hzj:__GLOBAL__sub_I_Il2CppCodeRegistration_cpp
dVc:__ZN11UnityEngine15PlatformWrapper15GetBuildVersionEv
N7c:_Single_CompareTo_m1534635028_AdjustorThunk
eIi:_UnityEvent_1__ctor_m4051141261_gshared
urb:__ZN18StreamedBinaryReadILb0EE21TransferSTLStyleArrayI13dynamic_arrayI33EnlightenTerrainChunksInformationLj4EEEEvRT_17TransferMetaFlags
Mwd:_DateTimeUtils_GetStandardPattern_m32972750
Ypd:_Stack_Peek_m2790636182
zCg:_Version__ctor_m85867749
hUa:__ZN18ScriptingArguments9AddIntPtrEPv
wpc:__Z73Register_UnityEngine_GUIStyle_INTERNAL_CALL_Internal_GetCursorStringIndexv
FIc:_cf2_stack_getReal
wAg:_UInt32_ToString_m554020223
hs:__ZN13AnimationClip19FireAnimationEventsEP22AnimationClipEventInfoRN5Unity9ComponentE
RVd:_InputField_ActivateInputFieldInternal_m881938995
i1:__ZNSt3__26__treeINS_12__value_typeINS_4pairIPcS3_EEPFbPvR14SafeBinaryReadEEENS_19__map_value_compareIS4_SA_20smaller_tstring_pairIPKcELb1EEENS_9allocatorISA_EEE7destroyEPNS_11__tree_nodeISA_S5_EE
gkc:__ZN20UnityWebRequestProtoI19TransportJavaScript16AtomicRefCounter14RedirectHelper14ResponseHelper15DownloadHandler13UploadHandler12HeaderHelper14AsyncOperationE20Task_FinalizeRequestEPv
N_:__ZN19ScriptingInvocationC2E18ScriptingMethodPtr
FEi:_AesManaged_Dispose_m2144430298
Ski:_ConfigHandler_CheckPath_m2296459741
