zc:_glClearStencil
s3d:_Array_InternalArray__ICollection_Add_TisMark_t2724874473_m1613484179_gshared
ccg:__ZL80Graphic_t2426225576_CustomAttributesCacheGenerator_Graphic_OnFillVBO_m1723985607P21CustomAttributesCache
nog:_RuntimeTypeHandle_GetObjectData_m3567098501
aqj:__ZN6il2cpp2vm5Array13GetByteLengthEP11Il2CppArray
$4g:_Raycast3DCallback_BeginInvoke_m3028685017
ZJf:__ZL61IRemotingFormatter_t4112065742_CustomAttributesCacheGeneratorP21CustomAttributesCache
vF:__Z102Register_UnityEngine_Experimental_Director_AnimatorControllerPlayable_INTERNAL_CALL_ResetTriggerStringv
GIe:_Comparison_1_Invoke_m353639462_gshared
MAg:_UInt64_System_IConvertible_ToDecimal_m4205696037
aRd:_GraphicRegistry_RegisterGraphicForCanvas_m2284226562
QBa:__Z21SourceMipLevelForBlitiiii
wlb:__ZN31CanvasBatchIntermediateRenderer15AddAsRenderNodeER15RenderNodeQueueRK20DeprecatedSourceData
BIg:_GenericTypeParameterBuilder_GetEvent_m4210567427
Fpd:_Enumerator_get_Key_m2908810861
W0h:__Z55RuntimeInvoker_ILTokenInfo_t149559338_Int32_t2071877448PK10MethodInfoPvPS2_
MUc:__ZN11UnityEngine7Connect14AppUpdateEventD0Ev
CU:__ZdlPv
rD:__ZN23AnimationOffsetPlayable11SetRotationE11Quaternionf
qB:__ZN11UnityEngine9Animation28GenericAnimationBindingCacheD2Ev
eKf:__ZL68RemotingSurrogateSelector_t2821375126_CustomAttributesCacheGeneratorP21CustomAttributesCache
kmh:_EqualityComparer_1__cctor_m968537130_gshared
Wee:_List_1_System_Collections_IList_IndexOf_m39706221_gshared
isd:_Decimal_op_Implicit_m2971610317
fAi:_TextGenerator_get_lineCount_m4287181941
MRd:_Graphic_UnregisterDirtyVerticesCallback_m1526739224
X3a:__Z18RestoreRenderStateR20CameraRenderOldStateR17ShaderPassContext
kld:_SynchronizedArrayListWrapper_get_Item_m3309425850
aOb:__Z18Transfer_BlittableI18StreamedBinaryReadILb1EELb1E5RectTIfEEvRK29SerializationCommandArgumentsR31RuntimeSerializationCommandInfo
MKb:__Z18Transfer_BlittableI24GenerateTypeTreeTransferLb0E11ColorRGBA32EvRK29SerializationCommandArgumentsR31RuntimeSerializationCommandInfo
w3:__Z25scripting_class_from_name17ScriptingImagePtrPKcS1_
lcj:__ZN14dense_hash_mapI10KeyWrapperINSt3__24pairIPK12PropertyInfoP11Il2CppClassEEEj17ReflectionMapHashIS8_ENS9_14EqualsComparerINS1_8equal_toIS8_EEEENS1_9allocatorINS2_IKS9_jEEEEE15set_deleted_keyERSH_
BEb:__Z29scripting_class_enum_basetype17ScriptingClassPtr
VRd:_GraphicRaycaster_get_ignoreReversedGraphics_m2757724367
NMj:_emscripten_glDeleteBuffers__wrapper
mJg:_GenericTypeParameterBuilder_GetHashCode_m867619899
W$h:__Z79RuntimeInvoker_Void_t1841601450_Int32_t2071877448_ParameterModifier_t1820634920PK10MethodInfoPvPS2_
Rwg:_TimeSpan_ToString_m2947282901
Dlh:_EqualityComparer_1__cctor_m3397254040_gshared
OW:__ZNK20LocalFileSystemPosix6ParentERK13FileEntryDataRN4core12basic_stringIcNS3_20StringStorageDefaultIcEEEE
MPh:__Z37RuntimeInvoker_ContentType_t859870085PK10MethodInfoPvPS2_
$zi:_TextGenerator_get_verts_m3124035267
_Ze:_MonoType_CheckMethodSecurity_m4116906190
oCi:_Vector2_get_one_m3174311904
x8d:_Array_Sort_TisVector2_t2243707579_m1307634946_gshared
vYh:__Z37RuntimeInvoker_Enumerator_t1593300101PK10MethodInfoPvPS2_
rra:__ZN17PersistentManager22CheckInstanceIDsLoadedEPii
Iza:__ZN7ApiGLES17CopyBufferSubDataEjjlll
Qfi:_AnimatorControllerPlayable_IsInTransition_m4064534331
AUi:__ZN15dense_hashtableINSt3__24pairIK10KeyWrapperIPKcEP11Il2CppClassEES5_N6il2cpp5utils11StringUtils12StringHasherIS4_EEN14dense_hash_mapIS5_S8_SE_NS5_14EqualsComparerINSC_21CaseSensitiveComparerEEENS0_9allocatorIS9_EEE9SelectKeyESI_SK_E13set_empty_keyERKS9_
uZf:__ZL99Sprite_t309593783_CustomAttributesCacheGenerator_Sprite_get_associatedAlphaSplitTexture_m3617241169P21CustomAttributesCache
OOi:__ZNSt3__26vectorIPK10Il2CppTypeNS_9allocatorIS3_EEE7reserveEj
REi:_U3CCreateWhereIteratorU3Ec__Iterator1D_1_Reset_m1773515612_gshared
xXa:__ZN25CameraStackRenderingState20GetOrCreateBuiltinRTE24BuiltinRenderTextureTypeii17DepthBufferFormat19RenderTextureFormatj22RenderTextureReadWrite14VRTextureUsagei
wVd:_InputField_get_caretPosition_m1005871812
Xlb:__Z32TransferEnumWithNameForceIntSizeI14SafeBinaryRead16LightmappingMaskEvRT_RT0_PKc17TransferMetaFlags
Jfh:_Dictionary_2__ctor_m3111963761_gshared
wEi:_AesManaged_CreateEncryptor_m1729287824
Aub:__ZNK14Texture2DArray26CanReuploadDataToGfxDeviceEv
_$a:__ZN17PrePassRenderLoop14RenderBasePassEP13RenderTextureRK14LightingLayersR13dynamic_arrayI16RenderObjectDataLj4EERbR10MinMaxAABB
Ohb:__ZN17GlobalGameManager23VirtualRedirectTransferER17RemapPPtrTransfer
_Ec:_sfnt_stream_close
oid:_Char_System_IConvertible_ToInt16_m2741348777_AdjustorThunk
Glc:__ZN5IMGUI18RepaintModalWindowER8GUIState
tRi:__ZL25UnresolvedVirtualCall_129P12Il2CppObject17Color_t2020392075PK10MethodInfo
Lgb:__ZN21ArchiveStorageCreator10InitializeERKN4core12basic_stringIcNS0_20StringStorageDefaultIcEEEEb
xQd:_FontData_get_verticalOverflow_m83665814
uBe:_ReadOnlyCollection_1_System_Collections_Generic_IListU3CTU3E_set_Item_m1547026160_gshared
oDf:__ZL61MarshalAsAttribute_t2900773360_CustomAttributesCacheGeneratorP21CustomAttributesCache
Ftb:__Z23SetSpriteMeshIndexCountP14SharedMeshDataj
hca:__ZN7Texture13SetFilterModeEi
cbc:__Z46Register_UnityEngine_Application_get_isPlayingv
Prj:__ZN6il2cpp8metadata13GenericMethod9GetMethodEPK19Il2CppGenericMethod
tq:__ZNSt3__26vectorIN4core12basic_stringIcNS1_20StringStorageDefaultIcEEEENS_9allocatorIS5_EEE7reserveEj
Dud:_Convert_ToUInt16_m2130758075
t8i:__ZN15dense_hashtableINSt3__24pairIK10KeyWrapperINS1_IPK11Il2CppImageP11Il2CppClassEEEjEES9_17ReflectionMapHashIS8_EN14dense_hash_mapIS9_jSD_NS9_14EqualsComparerINS0_8equal_toIS8_EEEENS0_9allocatorISB_EEE9SelectKeyESI_SK_E3endEv
Itf:_X509BasicConstraintsExtension_Encode_m3505127076
sua:__ZN13GfxDeviceGLES11SetViewportERK5RectTIiE
zTd:_Image_get_pixelsPerUnit_m4104195799
wbh:_Toggle_InternalToggle_m2323729210
uyd:_Decimal_System_IConvertible_ToInt64_m2504363272
bic:__Z24Time_Get_Custom_PropTimev
wdd:_Array_GetValue_m3182152438
Rd:_emscripten_glDepthRange
nqg:_DESTransform_CipherFunct_m3559419566
aZh:__Z91RuntimeInvoker_Boolean_t3825574718_TouchScreenKeyboardTypeU26_t2194866306_Int32_t2071877448PK10MethodInfoPvPS2_
zBg:_UIntPtr_get_Size_m537421489
f0c:_Rijndael_Create_m113171669
fSg:_GUILayoutGroup_CalcWidth_m4107152934
Sng:_RuntimeFieldHandle_get_Value_m3963757144
kTb:__Z14resize_trimmedINSt3__26vectorIN9ShaderLab20SerializedSubProgram12UAVParameterENS0_9allocatorIS4_EEEEEvRT_j
pjg:_SerializationInfo_AddValue_m1781549036
whf:_TlsServerKeyExchange_verifySignature_m3641534563
wxe:_Collection_1_Clear_m445145071_gshared
K9g:_Slider_FindSelectableOnLeft_m3136767885
rHh:__Z75RuntimeInvoker_Void_t1841601450_Il2CppObject_RuntimeFieldHandle_t2331729674PK10MethodInfoPvPS2_
oBa:__ZN4crndL20crnd_default_reallocEPvjPjbS0_
hRd:__ZN21InterfaceFuncInvoker1IP19Material_t193706927S1_E6InvokeEjP11Il2CppClassP12Il2CppObjectS1_
r0d:_Array_BinarySearch_TisInt32_t2071877448_m51233948_gshared
p7b:__ZN7Texture11SetWrapModeEi
MEj:__ZNSt3__212basic_stringIcNS_11char_traitsIcEENS_9allocatorIcEEEC2ERKS5_
Ljg:_ProviderData_CopyFrom_m431414335
Dsg:_UTF32Encoding_GetPreamble_m767706727
Ohc:__Z33Texture_CUSTOM_Internal_GetHeightP12Il2CppObject
que:_Collection_1_System_Collections_IList_Add_m1953936885_gshared
PXd:_LayoutGroup_get_preferredHeight_m3901163825
YVa:__ZN23ScriptableRenderContextC2Ev
ljb:__ZN4PPtrI13RenderTextureE8TransferI18StreamedBinaryReadILb0EEEEvRT_
Urd:_DateTime_AbsoluteDays_m3061694073
FZh:__Z56RuntimeInvoker_Boolean_t3825574718_LabelData_t3712112744PK10MethodInfoPvPS2_
sdi:_AnimationClipPlayable_set_speed_m3332297554
XLc:_UNITY_FT_Stream_GetChar
wOb:__Z18Transfer_BlittableI18StreamedBinaryReadILb1EELb1EdEvRK29SerializationCommandArgumentsR31RuntimeSerializationCommandInfo
Ubh:_Enumerator_System_Collections_IEnumerator_get_Current_m229223308_gshared
CUf:__ZL202U3CCreateWhereIteratorU3Ec__Iterator1D_1_t2523986802_CustomAttributesCacheGenerator_U3CCreateWhereIteratorU3Ec__Iterator1D_1_System_Collections_Generic_IEnumerableU3CTSourceU3E_GetEnumerator_m2392330777P21CustomAttributesCache
NEb:__Z26BuildSerializationCacheFor17ScriptingClassPtrRb
R2i:_il2cpp_class_get_name
fgi:_AnimatorControllerPlayable_CrossFadeInFixedTimeInternal_m3729673154
yIf:__ZL55GCHandleType_t1970708122_CustomAttributesCacheGeneratorP21CustomAttributesCache
Lbi:_Event_Init_m3901382626
yfb:__ZN10FileSystem12MountHandlerEP17FileSystemHandler
Vkd:_FixedSizeArrayListWrapper_AddRange_m2071800418
IB:__ZN13ProduceHelperI8AnimatorLb0EE7ProduceE18MemLabelIdentifier18ObjectCreationMode
jaa:__Z9InitInputv
azi:_StateMachineBehaviour_OnStateUpdate_m2021794605
Jde:_Enumerator_VerifyState_m2358705882_AdjustorThunk
UEc:_UNITY_tt_face_build_cmaps
_5g:_Selectable_Navigate_m915280351
gaf:_AppDomain_getCurDomain_m591611373
yab:__ZN16MemoryFileSystem6DeleteER13FileEntryDatab
GCi:_Vector3_get_normalized_m936072361
gpa:__ZL21BlitScaleStbImageImplRK14ImageReferenceRS_NS_10ColorSpaceE
bof:_TlsStream_set_Position_m378064217
iB:__ZN18StreamedBinaryReadILb0EE21TransferSTLStyleArrayI13dynamic_arrayIjLj4EEEEvRT_17TransferMetaFlags
tHb:__Z29Transfer_Blittable_ArrayFieldI14SafeBinaryReadyEvRT_R9ArrayInfoRK23StaticTransferFieldInfo
gM:__ZN20SoundChannelInstance15setChannelGroupEPN4FMOD12ChannelGroupE
t5c:_Evidence_Equals_m2325859915
wEg:_Default__ctor_m172834064
nc:invoke_vifffii
tag:__ZL77StandaloneInputModule_t70867863_CustomAttributesCacheGenerator_m_VerticalAxisP21CustomAttributesCache
NBb:__ZN20ArchiveStorageReader17MakeStorageUnusedEv
fri:_Regex_IsMatch_m2159202025
DKa:__ZNK25MultiBlocksMemoryFileData5CloneEv
Awj:_GC_add_ext_descriptor
Qxj:__ZN6il2cpp2os14WindowsRuntime22GetRestrictedErrorInfoEv
RTd:_Image_CalculateLayoutInputHorizontal_m3275149860
Fkg:_RemotingServices_GetMethodBaseFromName_m3271095947
UOh:__Z71RuntimeInvoker_TimeSpan_t3430258949_Double_t4078015681_Int64_t909078037PK10MethodInfoPvPS2_
tMa:__ZN17ArchiveFileSystem11CreateAsDirER13FileEntryData
eRi:__ZL25UnresolvedVirtualCall_114P12Il2CppObjectssaaaPK10MethodInfo
PGj:dynCall_iiiiiiiiiiii
Rad:_ASCIIEncoding_GetBytes_m3617160053
zxh:_InternalEnumerator_1_MoveNext_m2289229080_AdjustorThunk
Agf:_CipherSuiteCollection_System_Collections_IList_RemoveAt_m143866082
HC:__ZN26AnimatorControllerPlayable26ParameterControlledByCurveEi
pta:__ZN22VertexDeclarationCacheD0Ev
wXb:__ZL26KeywordSetToStringDontSortRKNSt3__26vectorIN4core12basic_stringIcNS1_20StringStorageDefaultIcEEEENS_9allocatorIS5_EEEERS5_
VTc:__Z54Register_UnityEngine_Analytics_CustomEventData_AddCharv
rka:__ZN6prcoreL17RemapGenericFloatI16TexFormatRGFloat17TexFormatRGBAHalfEEvPKNS_9InnerInfoE
Vfb:__ZNK21AssetBundleFileSystem8PositionERK13FileEntryData
JG:__ZN12AudioManager22CreateFMODSoundFromWWWEP10IWWWStream15FMOD_SOUND_TYPE17FMOD_SOUND_FORMATjjbbP10SampleClip
G1b:__ZNK32RendererMaterialAnimationBinding15GenerateBindingERKN4core12basic_stringIcNS0_20StringStorageDefaultIcEEEEbRN11UnityEngine9Animation14GenericBindingE
T8i:__ZN24dense_hashtable_iteratorINSt3__24pairIK10KeyWrapperINS1_IPK11Il2CppImageP11Il2CppClassEEEjEES9_17ReflectionMapHashIS8_EN14dense_hash_mapIS9_jSD_NS9_14EqualsComparerINS0_8equal_toIS8_EEEENS0_9allocatorISB_EEE9SelectKeyESI_SK_E30advance_past_empty_and_deletedEv
edi:_UnityEventBase_UnityEngine_ISerializationCallbackReceiver_OnBeforeSerialize_m1773826808
zjh:_DefaultComparer_GetHashCode_m361278435_gshared
M2:__ZN8Remapper23GetOrGenerateInstanceIDERK26SerializedObjectIdentifier
LWe:_StreamWriter_Flush_m3426120024
zMa:__ZN17FileSystemHandler10AtomicMoveER13FileEntryDataS1_
Wa:invoke_iiiiiifffiiifii
pUe:_MemoryStream__ctor_m1489366847
O5c:_SecurityElement_IsValidTag_m64902195
Xbh:_Enumerator_System_Collections_IEnumerator_get_Current_m229223308_AdjustorThunk
mPg:_PropertyInfo_SetValue_m2961483868
uRg:_GUILayoutEntry_set_style_m70917293
Bke:_List_1_System_Collections_IList_Contains_m4193366963_gshared
YIi:_UnityEvent_3_FindMethod_Impl_m1889846153_gshared
Ahg:_DictionaryEnumerator_get_Value_m1915638953
UEg:_ConstructorInfo_Invoke_m2144827141
j_f:__ZL82Object_t1021602117_CustomAttributesCacheGenerator_Object_get_hideFlags_m4158950869P21CustomAttributesCache
Stb:__ZN6Sprite8TransferI24GenerateTypeTreeTransferEEvRT_
Sic:__Z48Register_UnityEngine_Transform_SetAsFirstSiblingv
OZh:__Z56RuntimeInvoker_Boolean_t3825574718_UriScheme_t1876590943PK10MethodInfoPvPS2_
Utb:__ZN7SubMesh8TransferI24GenerateTypeTreeTransferEEvRT_
Kaj:__ZN14dense_hash_mapI10KeyWrapperIPK14Il2CppAssemblyEPK16MonoAssemblyNameN6il2cpp5utils11PointerHashIS2_EENS4_14EqualsComparerINSt3__28equal_toIS3_EEEENSD_9allocatorINSD_4pairIKS4_S7_EEEEE13set_empty_keyERSJ_
qOg:_MonoProperty_get_CanWrite_m2124922514
Gff:_CipherSuite_get_HashAlgorithmType_m3902365773
xYh:__Z36RuntimeInvoker_Enumerator_t132208513PK10MethodInfoPvPS2_
ZZh:__Z112RuntimeInvoker_Int32_t2071877448_Il2CppObject_Int32_t2071877448_Int32_t2071877448_Int32_t2071877448_Il2CppObjectPK10MethodInfoPvPS2_
PDj:_poll
bUe:_Stream_BeginRead_m1985960185
jUg:_GUIStyle_GetFontInternalDuringLoadingThread_m229734483
P$b:__ZN13ProduceHelperI14Texture2DArrayLb0EE7ProduceE18MemLabelIdentifier18ObjectCreationMode
Qdf:_MD4Managed_GG_m1462438360
ofc:__Z46Mesh_CUSTOM_PrintErrorCantAccessMeshForIndicesP12Il2CppObject
Bac:__ZN9Transform23SetSiblingIndexInternalEib
T7g:_ScrollRect_get_minWidth_m3151814267
RRe:_BinaryReader_CheckBuffer_m1059275266
Fua:__ZN13GfxDeviceGLES17DestroySubProgramEPN9ShaderLab10SubProgramE
ux:__ZN7mecanim5human12HumanPoseSubERNS0_9HumanPoseERKS1_S4_
Cdf:_MD4_Create_m2582504069
yLi:_HashSet_1_System_Collections_IEnumerable_GetEnumerator_m2498631708_gshared
Zjj:__ZN6il2cpp8metadata15GenericMetadata15GetGenericClassEiPK17Il2CppGenericInst
$fd:_Boolean_System_IConvertible_ToInt16_m977801621
mGb:__Z18Transfer_BlittableI14SafeBinaryReadLb0E10Matrix4x4fEvRK29SerializationCommandArgumentsR31RuntimeSerializationCommandInfo
mOa:__Z24GetFixedBehaviourManagerv
vUa:__ZN12FlareManager9UpdateJobEP25FlareManagerUpdateJobData
M$i:__ZN6il2cpp2vm10ThreadPool4WaitEP17Il2CppAsyncResultPPv
_Bj:_vfprintf
rjg:_SerializationException__ctor_m1019897788
d5h:_Debug_get_logger_m4173808038
uia:__ZL13SortTexByNameRKNSt3__24pairIN9ShaderLab16FastPropertyNameEN18UnityPropertySheet11UnityTexEnvEEES7_
iVa:__ZN20DynamicPropertySheetD0Ev
m8a:__ZN14SafeBinaryRead17RegisterConverterEPKcS1_PFbPvRS_E
iZ:__ZN35RegisterRuntimeInitializeAndCleanup8RegisterEPFvPvES2_iS0_
Rdj:__ZNSt3__26vectorIN6il2cpp8metadata18GenericArrayMethodENS_9allocatorIS3_EEE7reserveEj
Sed:_AsyncCallback__ctor_m3071689932
bHe:_ReadOnlyCollection_1_System_Collections_IList_Clear_m2600246370_gshared
FTh:__Z74RuntimeInvoker_Void_t1841601450_PlayableHandleU26_t3483893774_Il2CppObjectPK10MethodInfoPvPS2_
rUh:__Z41RuntimeInvoker_EventModifiers_t2690251474PK10MethodInfoPvPS2_
Z4e:_DSAManaged_NormalizeArray_m2287089393
$ic:__Z21Object_CUSTOM_DestroyP12Il2CppObjectf
iyh:_InternalEnumerator_1_System_Collections_IEnumerator_get_Current_m2389982234_AdjustorThunk
qOa:__ZN8Material26ResetAllCachedMaterialDataEP6Shader
p8g:_Selectable_get_interactable_m1725029500
gMc:_UNITY_TT_Get_MM_Var
cKi:__ZN6il2cpp6icalls8mscorlib6System7Decimal13decimal2Int64EP19il2cpp_decimal_reprPx
aa:invoke_diddi
HHd:_ExecuteEvents__cctor_m288775360
yNc:__ZNK2UI6Canvas13GetRenderModeEv
Zsd:_Double_TryParseStringConstant_m2585405703
MFb:__Z18Transfer_BlittableI14SafeBinaryReadLb0EiEvRK29SerializationCommandArgumentsR31RuntimeSerializationCommandInfo
XYi:__ZN6il2cpp2vm13MetadataCache30GetPropertyDefinitionFromIndexEi
Hhi:_ResourceEnumerator__ctor_m1679839941
q0c:_RijndaelTransform_Clear_m1652144089
K9d:_BaseInvokableCall_ThrowOnInvalidArg_TisIl2CppObject_m1349548392_gshared
TWc:__ZN22BaseUnityConnectClient17InitializeSessionERKN4core12basic_stringIcNS0_20StringStorageDefaultIcEEEES6_N19CloudServiceHandler13InitModeFlagsE
bDh:__Z57RuntimeInvoker_Void_t1841601450_Il2CppObject_Il2CppObjectPK10MethodInfoPvPS2_
t$e:_NumberFormatter_get_IsZero_m1325357749
iCd:_Enum_ToObject_m322320225
KBh:_Enumerator_get_Current_m2754383612_gshared
agc:__ZN13MonoBehaviour34StopCoroutineFromEnumeratorManagedE18ScriptingObjectPtr
$3c:_X509Certificate__ctor_m3860837120
CDc:_gray_raster_reset
tF:__Z100Register_UnityEngine_Experimental_Director_AnimatorControllerPlayable_INTERNAL_CALL_SetTriggerStringv
LPg:_GameObject_Internal_CreateGameObject_m3428198595
d8h:_Camera_RaycastTry2D_m755036866
YGe:_ReadOnlyCollection_1_System_Collections_Generic_IListU3CTU3E_set_Item_m3663361643_gshared
WB:__ZN7mecanim9animation14AvatarConstant15InitializeClassEv
Mwc:__ZN11UnityEngine9Analytics18SceneLoadTimeEvent12SetSceneLoadERKN4core12basic_stringIcNS2_20StringStorageDefaultIcEEEEiyyyy
qfi:_AnimatorControllerPlayable_GetCurrentAnimatorStateInfo_m689786022
oBb:__ZN30RuntimeInitializeOnLoadManager8TransferI18StreamedBinaryReadILb0EEEEvRT_
fih:_Dictionary_2__ctor_m1206668798_gshared
wHg:_TypeBuilder_not_supported_m3178173643
lEc:_UNITY_tt_face_load_pclt
oCb:__ZN21ArchiveStorageCreator14StoreDirectoryEv
s9b:__ZL34GetComponentsImplementationRecurseILb1ELi0ELi2EEbR10GameObjectbRK17CompareParametersRK39GetComponentsImplementation_ReturnValue
kzj:__ZN6il2cpp6icalls8mscorlib6System9Threading5Mutex20CreateMutex_internalEbP12Il2CppStringPb
Awc:__ZNK27PerformanceReportingManager26GetTypeInfoVirtualInternalEv
SMh:__Z50RuntimeInvoker_Int16_t4041245914_Int16_t4041245914PK10MethodInfoPvPS2_
Ckd:_ArrayListWrapper_Remove_m1105489978
wUa:__ZNK6Camera18WorldToScreenPointERK8Vector3fPb
CSc:__ZN14UnityAnalyticsD0Ev
ygd:_Boolean_CompareTo_m3691698947_AdjustorThunk
Q9f:__ZL109PointerEventData_t1599784723_CustomAttributesCacheGenerator_PointerEventData_get_eligibleForClick_m2497780621P21CustomAttributesCache
uod:_HashKeys_CopyTo_m3566668422
Xth:_InternalEnumerator_1_Dispose_m549215360_AdjustorThunk
wid:_Convert_ToSByte_m2665932200
$1:__ZNSt3__227__insertion_sort_incompleteIRPFbRKN18AwakeFromLoadQueue4ItemES4_EPS2_EEbT0_S9_T_
Xvi:_PKCS12_Encrypt_m2154408631
rGg:_ILGenerator_label_fixup_m1325994348
ofh:_ValueCollection_System_Collections_ICollection_get_IsSynchronized_m45572582_gshared
d4g:_Navigation_Equals_m4214630671_AdjustorThunk
iEe:_ReadOnlyCollection_1_System_Collections_Generic_IListU3CTU3E_set_Item_m257196015_gshared
ELg:_FieldInfo_GetPseudoCustomAttributes_m2500972355
arb:__ZN26EnlightenSystemInformation8TransferI14SafeBinaryReadEEvRT_
wae:_Array_InternalArray__get_Item_TisLink_t2723257478_m2281261655_gshared
Zwb:__ZN12MeshRendererD0Ev
Fsi:_ExpressionAssertion_IsComplex_m783019628
vnd:_Hashtable__ctor_m2702360557
Ah:_utime
OKe:_DateTimeFormatInfo_get_RawAbbreviatedDayNames_m3998113647
Fkh:_DefaultComparer_GetHashCode_m2596628120_gshared
ocf:_PrimalityTest_Invoke_m4058801829
tkg:_RemotingConfiguration_SetCustomErrorsMode_m1844153208
sn:FUNCTION_TABLE_viiiiii
j_h:__Z84RuntimeInvoker_Int32_t2071877448_Il2CppObject_CustomAttributeNamedArgument_t94157543PK10MethodInfoPvPS2_
GEd:_CultureInfo_GetFormat_m3560116485
HA:__ZN7mecanim9animation22DestroyAvatarWorkspaceEPNS0_15AvatarWorkspaceERNS_6memory9AllocatorE
s2g:_ScriptableObject_CreateInstance_m3271154163
wjd:__ZN21InterfaceFuncInvoker0IiE6InvokeEjP11Il2CppClassP12Il2CppObject
exf:_FactoryCache__ctor_m254400436
Hri:_AnchorInfo_get_IsPosition_m3791659233
a2d:_Array_InternalArray__IndexOf_TisResourceCacheItem_t333236149_m761772858_gshared
Blc:__ZNSt3__210__list_impIN10GUIManager12SortedScriptE11memory_poolIS2_EE5clearEv
JPf:__ZL76Convert_t2607082565_CustomAttributesCacheGenerator_Convert_ToInt64_m44696721P21CustomAttributesCache
tob:__ZN14PlayableOutput17SetSourcePlayableEP8Playable
Pkg:_TrackingServices__cctor_m3639412334
BGi:_InvokableCall_1_add_Delegate_m3068046591_gshared
hoc:__Z32GUIStyle_Set_Custom_PropRichTextP12Il2CppObjecth
wu:__ZN7mecanim9animation29MotionOutputGetDeltaTransformEPKNS0_12MotionOutputE
KZb:__Z13RegisterClassI16GraphicsSettingsEvv
Afh:_ValueCollection_System_Collections_IEnumerable_GetEnumerator_m1773104428_gshared
Lwc:__ZN27PerformanceReportingManager21OnSceneTimingCallbackERK15SceneLoadTimingRKN4core12basic_stringIcNS3_20StringStorageDefaultIcEEEE
rC:__ZN8Animator14OnAddComponentEPN5Unity9ComponentE
Gqe:_List_1_CheckMatch_m1184924052_gshared
pic:__Z43Transform_CUSTOM_INTERNAL_get_localRotationP12Il2CppObjectP11Quaternionf
yAi:_Touch_get_fingerId_m4109475843_AdjustorThunk
C2b:__ZZL23RegisterLightPropertiesR22GenericPropertyBindingEN20Wrapper_LightColorr013SetFloatValueEPvf
ci:_emscripten_glGetTexParameteriv
nke:_List_1_ToArray_m3752387798_gshared
C6g:_ScrollRect_get_elasticity_m3987376518
VPe:_Int32_ToString_m1064459878_AdjustorThunk
N8e:_DeriveBytes__ctor_m3089550878
dki:_ChannelData_CopyFrom_m4049054607
SZb:__Z13RegisterClassI4MeshEvv
j9f:__ZL94AxisEventData_t1524870173_CustomAttributesCacheGenerator_AxisEventData_get_moveDir_m3968662359P21CustomAttributesCache
g1d:_Array_FindLastIndex_TisIl2CppObject_m869210470_gshared
Znb:__ZN8PlayableD0Ev
_H:__ZN12AudioManager8TransferI19StreamedBinaryWriteILb0EEEEvRT_
IUe:_WriteDelegate_Invoke_m2103848735
mle:_List_1_get_Capacity_m4262042666_gshared
wxi:_X509Crl_get_IssuerName_m756409840
lPb:__ZN18StreamedBinaryReadILb1EE21TransferSTLStyleArrayI13dynamic_arrayI11ColorRGBA32Lj4EEEEvRT_17TransferMetaFlags
Hdh:_Transform_1_EndInvoke_m687617772_gshared
$$h:__Z66RuntimeInvoker_Void_t1841601450_Int32_t2071877448_Mark_t2724874473PK10MethodInfoPvPS2_
QDi:_Locale_GetText_m512920887
F1b:__ZNK32RendererMaterialAnimationBinding12GetPPtrValueERKN11UnityEngine9Animation10BoundCurveE
_Pb:__Z18Transfer_BlittableI18StreamedBinaryReadILb0EELb0E8Vector2fEvRK29SerializationCommandArgumentsR31RuntimeSerializationCommandInfo
bkg:_RemotingConfiguration_get_ProcessId_m3870172209
dQc:__ZN2UI11CanvasGroup12CleanupClassEv
KMe:_SortKey_ToString_m2406913228
eX:__ZN22LocalFileSystemHandler9MakeLocalER13FileEntryDatab
Usj:__ZN6il2cpp2vm8Profiler10AllocationEP12Il2CppObjectP11Il2CppClass
dsd:_Convert_ToDateTime_m1020507389
M4b:__ZNK9HPlayable7IsValidEv
dBc:__ZNSt3__23mapIN20TextRenderingPrivate7FontRefENS1_6OSFontENS_4lessIS2_EENS_9allocatorINS_4pairIKS2_S3_EEEEEixERS8_
DSe:_Path_IsPathRooted_m1347207448
$lg:_ObjectManager_RegisterObjectInternal_m879109503
MYd:_Array_get_swapper_TisVector4_t2243707581_m97441823_gshared
tra:__ZNSt3__26__sortIRNS_4lessIiEEPiEEvT0_S5_T_
myc:__ZN14SafeBinaryRead21TransferSTLStyleArrayI10vector_mapINSt3__24pairIttEEfN20TextRenderingPrivate8FontImpl14KerningCompareENS2_9allocatorINS3_IS4_fEEEEEEEvRT_17TransferMetaFlags
m_b:__Z13RegisterClassI15QualitySettingsEvv
esj:__ZN6il2cpp2vm6String21InitializeEmptyStringEP11Il2CppClass
P$a:__ZN25DeferredRenderLoopScratchD0Ev
Ay:__ZN27AnimationLayerMixerPlayable14SetInputWeightEif
qx:__ZN7mecanim9animation17EvaluateHumanPoseERKNS0_18ClipMuscleConstantERKNS0_15ClipMuscleInputEPKfRKNS0_12MotionOutputERNS_5human9HumanPoseE
KNf:__ZL90UTF7Encoding_t741406939_CustomAttributesCacheGenerator_UTF7Encoding_GetHashCode_m359766848P21CustomAttributesCache
$Fh:__Z52RuntimeInvoker_Decimal_t724701077_Single_t2076509932PK10MethodInfoPvPS2_
ZSb:__ZN15dense_hashtableINSt3__24pairIKiN4core17string_with_labelILi1EEEEEi18SInt32HashFunctionN14dense_hash_mapIiS5_S7_NS0_8equal_toIiEE13stl_allocatorIS6_L18MemLabelIdentifier1ELi16EEE9SelectKeyESA_SD_E9copy_fromERKSG_j
vea:__ZN6Camera11ResetAspectEv
aTf:__ZL62SecurityProtocolType_t155967584_CustomAttributesCacheGeneratorP21CustomAttributesCache
vTa:__ZNSt3__227__insertion_sort_incompleteIRPFbP10GUIElementS2_EPS2_EEbT0_S7_T_
Ktf:_X509BasicConstraintsExtension_get_HasPathLengthConstraint_m3788532759
tlb:__ZNK17InstancedPropInfo22FillInstancePropertiesER19ShaderPropertySheetjPK17BatchInstanceDatajRK15RenderNodeQueue
Ufa:__ZN22CreateGpuProgramOutputD2Ev
mMb:__Z18Transfer_BlittableI19StreamedBinaryWriteILb0EELb1EsEvRK29SerializationCommandArgumentsR31RuntimeSerializationCommandInfo
B1c:_RSACryptoServiceProvider_EncryptValue_m802714447
aij:__ZN6il2cpp6icalls8mscorlib6System2IO6MonoIO9SetLengthE12Il2CppIntPtrxPi
cAj:__ZN6il2cpp8metadata22Il2CppSignatureCompare6EqualsERK13dynamic_arrayIPK10Il2CppTypeLj4EES8_
gPf:__ZL76Convert_t2607082565_CustomAttributesCacheGenerator_Convert_ToByte_m932798552P21CustomAttributesCache
oO:__ZN13ProduceHelperI13AudioListenerLb0EE7ProduceE18MemLabelIdentifier18ObjectCreationMode
Xfe:_List_1_System_Collections_ICollection_get_SyncRoot_m1594235606_gshared
tJe:_DateTimeFormatInfo_GetInstance_m3133223810
Ibf:_ModulusRing_BarrettReduction_m2802101099
EHh:__Z57RuntimeInvoker_ExtenderType_t1556892101_Int32_t2071877448PK10MethodInfoPvPS2_
eLa:__ZN12HandlerChain4OpenER13FileEntryData14FilePermission16FileAutoBehavior
o3h:__Z76RuntimeInvoker_Il2CppObject_UILineInfo_t3621277874_Il2CppObject_Il2CppObjectPK10MethodInfoPvPS2_
$mh:_EqualityComparer_1_get_Default_m2134906921_gshared
xMg:_MonoMethodInfo_GetParametersInfo_m3456861922
L1h:__Z37RuntimeInvoker_UILineInfo_t3621277874PK10MethodInfoPvPS2_
Uwc:__ZN27PerformanceReportingManager29OnSceneLoadedAfterAwakeStaticEPS_iR18AwakeFromLoadQueueN19RuntimeSceneManager11LoadingModeE
N4:__ZN14FileCacherReadD2Ev
xqa:__ZN13RendererScene23UpdatePreviousFrameDataEii
V1c:_RSAPKCS1SignatureDeformatter_VerifySignature_m1825067195
nRi:__ZL25UnresolvedVirtualCall_123P12Il2CppObjectffPK10MethodInfo
Scc:__Z50Register_UnityEngine_CullingGroup_FinalizerFailurev
L_i:_KeyValuePair_2_ToString_m2613351884_gshared
_la:__ZN27UnloadUnusedAssetsOperationD0Ev
zjb:__ZN6Camera15ThreadedCleanupEv
bz:__ZN26AnimatorControllerPlayable6MemoryD2Ev
ibg:__ZL69ColorBlock_t2652774230_CustomAttributesCacheGenerator_m_DisabledColorP21CustomAttributesCache
Jff:_CipherSuite_get_Code_m3902213587
f5g:_Scrollbar__ctor_m2244981801
Yhj:__ZN6il2cpp6icalls8mscorlib6System2IO6MonoIO9GetLengthE12Il2CppIntPtrPi
cng:_ObjectRecord_get_HasPendingFixups_m670959802
rkc:__ZNSt3__26__treeINS_12__value_typeIN4core12basic_stringIcNS2_20StringStorageDefaultIcEEEES6_EENS_19__map_value_compareIS6_S7_N6detail7ci_lessELb1EEENS_9allocatorIS7_EEE7destroyEPNS_11__tree_nodeIS7_PvEE
y2c:_SHA256Managed_HashCore_m4111458495
wEd:_CultureInfo_get_CompareInfo_m3085280862
_Df:__ZL55Dictionary_2_t2276497324_CustomAttributesCacheGeneratorP21CustomAttributesCache
Mii:_DllImportAttribute__ctor_m1165454237
ang:_ObjectManager_RecordDelayedFixup_m1895730844
hjj:__ZNK15dense_hashtableINSt3__24pairIK10KeyWrapperIP14Il2CppIUnknownEjEES5_N6il2cpp5utils11PointerHashIS3_EEN14dense_hash_mapIS5_jSB_NS5_14EqualsComparerINS0_8equal_toIS4_EEEENS0_9allocatorIS7_EEE9SelectKeyESG_SI_E12test_deletedERK24dense_hashtable_iteratorIS7_S5_SB_SK_SG_SI_E
Wdd:_ArrayTypeMismatchException__ctor_m1898555879
Cme:_List_1_System_Collections_IList_get_IsFixedSize_m3522184224_gshared
_F:__ZN9AudioClip23VirtualRedirectTransferER18StreamedBinaryReadILb0EE
aif:_ClientSessionInfo_CheckDisposed_m1394638186
cpg:_SByte_Parse_m2544167007
F7c:_Single_CompareTo_m2081476257
iAd:_StackFrame_GetILOffset_m115192054
lVh:__Z61RuntimeInvoker_Boolean_t3825574718_Int32_t2071877448_IntPtr_tPK10MethodInfoPvPS2_
Rdb:__ZN24GenerateTypeTreeTransfer8TransferIN11AssetBundle9AssetInfoEEEvRT_PKc17TransferMetaFlags
rog:_RuntimeTypeHandle_GetHashCode_m3697629454_AdjustorThunk
m2e:_BigInteger__ctor_m2945783161
Mjf:_TlsClientHello_Update_m1723542631
nKf:__ZL96ProxyAttribute_t4031752430_CustomAttributesCacheGenerator_ProxyAttribute_IsContextOK_m2391079277P21CustomAttributesCache
PNe:_IndexOutOfRangeException__ctor_m3497760912
GFe:_ReadOnlyCollection_1_CopyTo_m1652036789_gshared
Bj:_glCopyTexSubImage2D
_3f:__ZL61GUISkin_t1436893342_CustomAttributesCacheGenerator_m_textAreaP21CustomAttributesCache
O1b:__ZNK24RendererAnimationBinding13GetFloatValueERKN11UnityEngine9Animation10BoundCurveE
mte:_Collection_1_Insert_m3594407958_gshared
dQa:_UNITY_png_write_zTXt
YV:__ZN18ScreenManagerWebGL13SetShowCursorEb
Rsj:__ZN6il2cpp6icalls8mscorlib6System7Convert24InternalFromBase64StringEP12Il2CppStringb
ANa:__ZZ23InitPlayerLoopCallbacksvEN37EarlyUpdateProcessMouseInWindowstruct7ForwardEv
Uah:_Text_get_preferredWidth_m3352156860
VDg:_AssemblyCompanyAttribute__ctor_m1217508649
gQc:__ZN2UI13CanvasManager14GetRenderOrderEPKNS_6CanvasE
kGb:__Z18Transfer_BlittableI14SafeBinaryReadLb0E5RectTIfEEvRK29SerializationCommandArgumentsR31RuntimeSerializationCommandInfo
e3h:__Z93RuntimeInvoker_Il2CppObject_Vector2_t2243707579_Vector2_t2243707579_Il2CppObject_Il2CppObjectPK10MethodInfoPvPS2_
mFe:_ReadOnlyCollection_1_System_Collections_Generic_IListU3CTU3E_RemoveAt_m878653284_gshared
zJe:_DateTimeFormatInfo_GetFormat_m3676195179
fAa:__ZN14GfxContextGLES14GetFramebufferEv
cNj:_emscripten_glGenVertexArrays__wrapper
CSh:__Z36RuntimeInvoker_HideFlags_t1434274199PK10MethodInfoPvPS2_
gja:__ZN6prcoreL21CreateRemapAnyBlitterE13TextureFormatS0_
UAj:__ZN6il2cpp2os5Event4WaitEjb
V7b:__ZN17AnimationCurveTplIfE16StripInvalidKeysEv
V2d:_Array_InternalArray__ICollection_Add_TisKeyValuePair_2_t3716250094_m2381539361_gshared
x9e:_X509Extension_WriteLine_m2850991173
_Oc:__ZNK2UI6Canvas17GetSortingLayerIDEv
CYb:__ZL12HashLen0to16PKcj
J3i:_il2cpp_method_has_attribute
tCh:_Enumerator__ctor_m3597047336_gshared
l4b:__Z13RegisterClassI17GlobalGameManagerEvv
l2a:__ZN8Renderer24SetupNewRendererForSceneEv
ifg:__ZL70GridLayoutGroup_t1515633077_CustomAttributesCacheGenerator_m_StartAxisP21CustomAttributesCache
f_d:_Array_InternalArray__ICollection_Remove_TisInt64_t909078037_m2653583130_gshared
Uie:_List_1_AddCollection_m2628217188_gshared
Rtg:_Thread_get_ExecutionContext_m922067206
lS:__ZN11UnityEngine15CloudWebService13WWWRestClient18GetEditableHeadersEv
Mhf:_RecordProtocol_get_Context_m2688493529
fha:__ZN4PPtrI7TextureE8TransferI14SafeBinaryReadEEvRT_
g5b:__ZN14PlayableOutput6HandleEv
Txj:__ZN6il2cpp5utils10MemoryPool9AddRegionEj
K6g:_ScrollRect_get_viewport_m3177057249
nn:FUNCTION_TABLE_iiiiiiiiiiiiii
Uai:_CustomYieldInstruction_get_Current_m1743233962
sWc:__ZN19UnityConnectService18OnPlayerQuitStaticEPS_
KXh:__Z35RuntimeInvoker_ScaleMode_t987318053PK10MethodInfoPvPS2_
Rmb:__ZN11Tetrahedron8TransferI24GenerateTypeTreeTransferEEvRT_
bFc:_UNITY_tt_get_cmap_info
obd:_DecoderExceptionFallback_GetHashCode_m2972426052
e6a:__ZN16ReflectionProbes8ScheduleEN18ReflectionProbeJob7JobTypeEP15ReflectionProbei
Bye:_Collection_1_IsFixedSize_m3675221982_gshared
SPf:__ZL77Convert_t2607082565_CustomAttributesCacheGenerator_Convert_ToSByte_m883113940P21CustomAttributesCache
G5:__ZN16MessageForwarder13HandleMessageEPviR11MessageData
Mee:_Enumerator_MoveNext_m3293920409_AdjustorThunk
uX:__Z18IsDirectoryCreatedRKN4core12basic_stringIcNS_20StringStorageDefaultIcEEEE
aJg:_GenericTypeParameterBuilder_get_DeclaringType_m1652924692
yAh:_Comparer_1__cctor_m3112251759_gshared
Wdg:__ZL73ScrollRect_t1199013257_CustomAttributesCacheGenerator_m_VerticalScrollbarP21CustomAttributesCache
Usf:_X509KeyUsageExtension_ToString_m1992050580
KAc:_UNITY_FT_GlyphLoader_Done
Oji:_ConstructionCall__ctor_m1143766850
mWg:_GUIStyleState_Init_m2434147050
zAh:_Comparer_1_System_Collections_IComparer_Compare_m3203078743_gshared
lmg:_ObjectReader_ReadArrayOfString_m3752210963
c4f:__ZL67GUISkin_t1436893342_CustomAttributesCacheGenerator_m_verticalSliderP21CustomAttributesCache
y2h:__Z56RuntimeInvoker_Int32_t2071877448_SpriteState_t1353336012PK10MethodInfoPvPS2_
jMi:_Terminal_WriteLine_m3165006896
RFc:_tt_cmap14_char_var_index
VOh:__Z77RuntimeInvoker_TimeSpan_t3430258949_TimeSpan_t3430258949_TimeSpan_t3430258949PK10MethodInfoPvPS2_
oHc:_psh_globals_new
wUe:_FileStream_Seek_m950719389
AJd:_StandaloneInputModule_set_allowActivationOnMobileDevice_m2631121618
psd:_Decimal_stripStyles_m294582157
Ktg:_UTF8Decoder_GetChars_m3819660582
Nta:__ZN9GfxDevice20SetMaxBufferedFramesEi
fle:_List_1_RemoveAll_m4125997475_gshared
QK:__ZN24AudioScriptBufferManagerD2Ev
eHj:dynCall_vdd
DPc:__ZN2UIL17UnloadAllCanvasesEv
H9a:__Z23ConvertIntegerToTypePtrIsEbPvR14SafeBinaryRead
cSh:__Z69RuntimeInvoker_Single_t2076509932_Int32_t2071877448_Int32_t2071877448PK10MethodInfoPvPS2_
Xmh:_EqualityComparer_1__ctor_m99476293_gshared
Ubf:_BigInteger_Incr2_m505983313
O6h:_PCMReaderCallback_BeginInvoke_m3119095492
Djd:_ArrayList_get_Count_m523955479
h_h:__Z85RuntimeInvoker_Int32_t2071877448_Vector3_t2243707580_Vector3_t2243707580_Il2CppObjectPK10MethodInfoPvPS2_
Zkd:_FixedSizeArrayListWrapper_Remove_m1359458911
oja:__ZN6prcoreL29inner_stretch_rgb565_bilinearEPKNS_9InnerInfoE
oti:_Uri__ctor_m3927533881
b6i:__ZNK15dense_hashtableINSt3__24pairIK10KeyWrapperINS1_IPK14Il2CppAssemblyP11Il2CppClassEEEjEES9_17ReflectionMapHashIS8_EN14dense_hash_mapIS9_jSD_NS9_14EqualsComparerINS0_8equal_toIS8_EEEENS0_9allocatorISB_EEE9SelectKeyESI_SK_E12test_deletedEj
Ulh:_EqualityComparer_1_System_Collections_IEqualityComparer_Equals_m3724603646_gshared
dGd:_EventSystem_get_current_m319019811
gah:_Text_get_mainTexture_m813502234
VPh:__Z47RuntimeInvoker_SecurityProtocolType_t3099771628PK10MethodInfoPvPS2_
X_a:__ZNK14RenderSettings19GetFlatAmbientColorEv
a6a:__ZN6prcoreL10inner_flipILj4EEEvPhS1_j
Yyb:__ZN18StreamedBinaryReadILb0EE21TransferSTLStyleArrayI10vector_mapIPKN5Unity4TypeE7Hash128NSt3__24lessIS6_EENS8_9allocatorINS8_4pairIS6_S7_EEEEEEEvRT_17TransferMetaFlags
Nu:__ZNK27StateMachineBehaviourPlayer15IsSenderEnabledEv
vBh:_Enumerator_VerifyState_m2118679243_gshared
jUd:_InputField_get_shouldHideMobileInput_m3694613599
Nic:__Z40Register_UnityEngine_Transform_SetParentv
V6h:_AudioConfigurationChangeHandler_Invoke_m635374412
Cmf:_SslClientStream_get_HaveRemoteValidation2Callback_m3555576758
Iub:__ZN14Texture2DArray17UploadToGfxDeviceEv
IEe:_ReadOnlyCollection_1_System_Collections_Generic_IListU3CTU3E_Insert_m4216310986_gshared
SAe:_ReadOnlyCollection_1_System_Collections_Generic_IListU3CTU3E_set_Item_m1532495847_gshared
LJ:__Z14FMODMemoryFreePvjPKc
Pph:_InternalEnumerator_1_System_Collections_IEnumerator_Reset_m3731327620_AdjustorThunk
Dfb:__ZN15dense_hashtableINSt3__24pairIKN4core12basic_stringIcNS2_20StringStorageDefaultIcEEEES6_EES6_20StringHash32FunctionIS6_EN14dense_hash_mapIS6_S6_SA_NS0_8equal_toIS6_EE13stl_allocatorIS8_L18MemLabelIdentifier54ELi16EEE9SelectKeyESD_SG_EC2ERKSJ_j
aag:__ZL104PointerEventData_t1599784723_CustomAttributesCacheGenerator_PointerEventData_get_worldNormal_m1704987468P21CustomAttributesCache
EDi:_YieldInstruction_t3462875981_marshal_pinvoke_cleanup
MTd:_Image_AddQuad_m1600600902
HIc:_cf2_glyphpath_moveTo
ryi:_SharedBetweenAnimatorsAttribute__ctor_m1221241062
MKd:_AnimationTriggers_set_disabledTrigger_m609579531
HFf:__ZL47File_t1930543328_CustomAttributesCacheGeneratorP21CustomAttributesCache
cxd:_DateTimeOffset__ctor_m1796624924
iSg:_GUILayoutUtility_get_spaceStyle_m1918520192
aGd:_BaseRaycaster_OnDisable_m1716508791
XZd:_Array_InternalArray__ICollection_Remove_TisKeyValuePair_2_t3716250094_m2566517826_gshared
Qvh:_InternalEnumerator_1_MoveNext_m1741571735_gshared
Zlc:__ZN5IMGUI14GUIWindowStateD2Ev
mBf:__ZL82Enum_t2459695545_CustomAttributesCacheGenerator_Enum_GetUnderlyingType_m3513899012P21CustomAttributesCache
Iwj:_GC_is_heap_ptr
Kfj:__GLOBAL__sub_I_Assembly_cpp
lkf:_TlsServerSettings_set_CertificateRequest_m3419519893
Lt:__ZN7mecanim5human10RetargetToEPKNS0_5HumanEPKNS0_9HumanPoseES6_RKN4math4trsXEPS4_PNS_8skeleton13SkeletonPoseTIS8_EESF_
Nx:__ZN7mecanim9animation8SeekClipERKNS0_12StreamedClipERNS0_18StreamedClipMemoryEf
Ayg:_Type_get_IsGenericParameter_m161434704
FJg:_MethodBuilder_get_Attributes_m3678061338
fm:_emscripten_glIsTexture
lYg:_Mathf_Clamp_m3542052159
Fkd:_ArrayListWrapper_CopyTo_m793444109
eQf:__ZL79Convert_t2607082565_CustomAttributesCacheGenerator_Convert_ToUInt16_m3265369225P21CustomAttributesCache
Mk:_emscripten_glHint
VLc:_ft_var_readpackeddeltas
vwd:_DateTime_AddMilliseconds_m1813199744_AdjustorThunk
Kog:_SByte_System_IConvertible_ToSByte_m108774324_AdjustorThunk
JJg:_MethodBuilder_GetParameterCount_m467267889
_Kg:_TypeBuilder_IsValueTypeImpl_m1499671481
S4h:_AnimationEvent_set_intParameter_m1174062029
iwf:_X509ChainStatus_t4278378721_marshal_pinvoke
Bef:_RSAManaged__ctor_m1680944437
im:_SDL_UpperBlit
qVg:_GUIStyle_op_Implicit_m781448948
C$a:__Z35GetTextureDecodeValuesWithIntensity16TextureUsageMode17TextureColorSpace10ColorSpacef
Ihd:_Byte_GetHashCode_m2885528842_AdjustorThunk
ecj:__ZN15dense_hashtableINSt3__24pairIK10KeyWrapperINS1_IPK9EventInfoP11Il2CppClassEEEjEES9_17ReflectionMapHashIS8_EN14dense_hash_mapIS9_jSD_NS9_14EqualsComparerINS0_8equal_toIS8_EEEENS0_9allocatorISB_EEE9SelectKeyESI_SK_E15set_deleted_keyERKSB_
ogh:_Dictionary_2_OnDeserialization_m2092139626_gshared
vlj:__ZNK6il2cpp2os6Socket12GetLastErrorEv
dEb:__ZN14SafeBinaryRead20OverrideRootTypeNameEPKc
RMi:__ZNK10KeyWrapperIPK22Il2CppGenericParameterE14EqualsComparerINSt3__28equal_toIS2_EEEclERKS3_SA_
R4:__ZN14FileCacherRead16UnlockCacheBlockEj
B8e:_X509Certificate_GetUnsignedBigInteger_m3491353542
Ayc:__ZNSt3__26vectorIN4core12basic_stringIcNS1_20StringStorageDefaultIcEEEE13stl_allocatorIS5_L18MemLabelIdentifier34ELi16EEE6assignINS_11__wrap_iterIPS5_EEEENS_9enable_ifIXaasr21__is_forward_iteratorIT_EE5valuesr16is_constructibleIS5_NS_15iterator_traitsISF_E9referenceEEE5valueEvE4typeESF_SF_
u3f:__ZL90Event_t3028476042_CustomAttributesCacheGenerator_Event_Internal_GetMousePosition_m38523489P21CustomAttributesCache
XIb:__Z18Transfer_BlittableI17RemapPPtrTransferLb1E8Vector3fEvRK29SerializationCommandArgumentsR31RuntimeSerializationCommandInfo
d2a:__ZN6Camera6RenderER11CullResultsR17ShaderPassContextPK21CameraRenderingParamsNS_10RenderFlagE
DGf:__ZL57StackBehaviour_t1390406961_CustomAttributesCacheGeneratorP21CustomAttributesCache
Lc:_emscripten_glUniform1f
nLa:__ZNK12HandlerChain4SizeERK13FileEntryData
jBc:__Z20ParseImageParametersR11UTF16StringRiRN20TextRenderingPrivate16TextFormatChangeE
Qc:_emscripten_glUniform1i
luh:_InternalEnumerator_1_System_Collections_IEnumerator_Reset_m651165750_AdjustorThunk
WDb:__ZN13MonoBehaviour9CallAwakeEv
pSg:__Z14bankers_roundff
gIh:__Z66RuntimeInvoker_Void_t1841601450_Int32_t2071877448_SByte_t454417549PK10MethodInfoPvPS2_
tUb:__ZN9ShaderLab16SerializedTagMapaSERKS0_
vIh:__Z75RuntimeInvoker_Void_t1841601450_Il2CppObject_Int32_t2071877448_Il2CppObjectPK10MethodInfoPvPS2_
a$d:_SetPropertyUtility_SetStruct_TisFillMethod_t1640962579_m1867757822_gshared
YQ:__ZN11UnityEngine15CloudWebService16SessionContainer20RestoreSessionHeaderERKN4core12basic_stringIcNS2_20StringStorageDefaultIcEEEES8_RNS0_13SessionHeaderE
Swd:_DateTime_ToString_m1117481977
fMi:_Hacker_Start_m3377866405
rac:__ZN8Material28ApplyMaterialPropertyDrawersEv
eJg:_GenericTypeParameterBuilder_GetGenericArguments_m277381309
vNi:__ZN24dense_hashtable_iteratorINSt3__24pairIK10KeyWrapperIPK22Il2CppGenericParameterEP11Il2CppClassEES6_N6il2cpp5utils11PointerHashIS4_EEN14dense_hash_mapIS6_S9_SE_NS6_14EqualsComparerINS0_8equal_toIS5_EEEENS0_9allocatorISA_EEE9SelectKeyESJ_SL_E30advance_past_empty_and_deletedEv
vA:__ZN11UnityEngine9Animation27CreateAvatarBindingConstantER9TransformPKN7mecanim9animation14AvatarConstantERNS3_6memory9AllocatorE
NAb:__ZN14SafeBinaryRead21TransferSTLStyleArrayINSt3__26vectorIN30RuntimeInitializeOnLoadManager9ClassInfoE13stl_allocatorIS4_L18MemLabelIdentifier12ELi16EEEEEEvRT_17TransferMetaFlags
iCg:_UnitySerializationHolder_GetObjectData_m2280028722
bpi:_PatternCompiler_EmitFalse_m1188949782
KAg:_UInt64_System_IConvertible_ToDateTime_m2412118561
eac:__ZN9BlobWriteC2ER13dynamic_arrayIhLj16EE24TransferInstructionFlags19BuildTargetPlatform
k3:__ZN14MessageHandler3GetEv
JTg:_GUISkin_set_verticalScrollbarThumb_m2647835739
cd:_emscripten_glAttachShader
zDe:_ReadOnlyCollection_1__ctor_m1539890895_gshared
Mta:__ZN9GfxDevice13SetActiveTierE12GraphicsTier
wde:_Enumerator_System_Collections_IEnumerator_get_Current_m3079057684_AdjustorThunk
voe:_List_1_System_Collections_ICollection_get_SyncRoot_m1804424478_gshared
Fxb:__ZNSt3__26vectorIN4core12basic_stringIcNS1_20StringStorageDefaultIcEEEENS_9allocatorIS5_EEE6assignIPS5_EENS_9enable_ifIXaasr21__is_forward_iteratorIT_EE5valuesr16is_constructibleIS5_NS_15iterator_traitsISC_E9referenceEEE5valueEvE4typeESC_SC_
r5e:_KeyPairPersistence_get_UserPath_m3433052783
qve:_Collection_1_ClearItems_m1410275009_gshared
AAf:__ZL58Decimal_t724701077_CustomAttributesCacheGenerator_MinusOneP21CustomAttributesCache
c0d:_Array_InternalArray__IEnumerable_GetEnumerator_TisKeyframe_t1449471340_m3949799719_gshared
YFb:__Z18Transfer_BlittableI14SafeBinaryReadLb0E11QuaternionfEvRK29SerializationCommandArgumentsR31RuntimeSerializationCommandInfo
dQh:__Z45RuntimeInvoker_X509RevocationMode_t2065307963PK10MethodInfoPvPS2_
xQb:__Z18Transfer_BlittableI18StreamedBinaryReadILb0EELb1E12PropertyNameEvRK29SerializationCommandArgumentsR31RuntimeSerializationCommandInfo
dZf:__ZL99MonoBehaviour_t1158329972_CustomAttributesCacheGenerator_MonoBehaviour_set_useGUILayout_m2666356651P21CustomAttributesCache
fVd:_InputField_get_inputType_m2187991661
jV:_tlsf_walk_heap
$7e:_PKCS12_Decode_m731190390
rej:__ZNK15dense_hashtableINSt3__24pairIK10KeyWrapperIP11Il2CppClassES4_EES5_N6il2cpp8metadata16SZArrayClassHashEN14dense_hash_mapIS5_S4_SA_NS5_14EqualsComparerINS9_19SZArrayClassCompareEEENS0_9allocatorIS7_EEE9SelectKeyESE_SG_E10test_emptyERK24dense_hashtable_iteratorIS7_S5_SA_SI_SE_SG_E
tvh:_InternalEnumerator_1_get_Current_m1550231132_gshared
Tri:_Reference_get_IgnoreCase_m2810892634
vCg:_Version_CheckedSet_m76493673
jb:invoke_vif
R6f:__ZL99SendMouseEvents_t3505065032_CustomAttributesCacheGenerator_SendMouseEvents_SetMouseMoved_m532965689P21CustomAttributesCache
kb:invoke_vid
bFj:__ZNSt3__212basic_stringIcNS_11char_traitsIcEENS_9allocatorIcEEE6insertEjPKc
H_i:_KeyValuePair_2_set_Key_m744486900_AdjustorThunk
mb:invoke_vii
kWf:__ZL86Component_t3819376471_CustomAttributesCacheGenerator_Component_SendMessage_m3615678587P21CustomAttributesCache
Zdg:__ZL82ScrollRect_t1199013257_CustomAttributesCacheGenerator_m_HorizontalScrollbarSpacingP21CustomAttributesCache
ySd:_LayoutGroup_get_padding_m1653511445
gBi:_Transform_get_localRotation_m4001487205
Fbb:__ZN12TLSAllocatorI14StackAllocatorE16ThreadInitializeEP13BaseAllocator
bkd:_ArrayList_Sort_m2778059513
d7f:__ZL107StackTraceUtility_t1881293839_CustomAttributesCacheGenerator_StackTraceUtility_SetProjectFolder_m2154926761P21CustomAttributesCache
DSd:_LayoutGroup_SetChildAlongAxis_m2732017156
ZQc:__Z41CanvasRenderer_CUSTOM_DisableRectClippingP12Il2CppObject
sdf:_MD2_Create_m539024737
hpd:_SortedList_get_SyncRoot_m3299704254
Ofe:_List_1_System_Collections_ICollection_CopyTo_m2020941110_gshared
Jpd:_Slot_t2267560602_marshal_pinvoke
oNh:__Z51RuntimeInvoker_UInt16_t986882611_Single_t2076509932PK10MethodInfoPvPS2_
uig:_SoapAttribute_get_XmlNamespace_m1436066016
TKa:__ZN25SingleBlockMemoryFileDataD0Ev
Jdb:__ZNSt3__26vectorI14ConstantStringNS_9allocatorIS1_EEE6assignINS_11__wrap_iterIPS1_EEEENS_9enable_ifIXaasr21__is_forward_iteratorIT_EE5valuesr16is_constructibleIS1_NS_15iterator_traitsISA_E9referenceEEE5valueEvE4typeESA_SA_
TQ:__ZN11UnityEngine15CloudWebService16SessionContainer21ConvertFromFolderTimeERKN4core12basic_stringIcNS2_20StringStorageDefaultIcEEEEPjPt
lHb:__ZNSt3__26vectorI8GUIStyle13stl_allocatorIS1_L18MemLabelIdentifier1ELi16EEE7reserveEj
Gfj:__ZN6il2cpp6icalls8mscorlib6System9Threading6Thread27GetSerializedCurrentCultureEP12Il2CppThread
j2d:_Array_InternalArray__IndexOf_TisUInt32_t2149682021_m3231515987_gshared
KZi:_ListPool_1__cctor_m709904475_gshared
_Rh:__Z83RuntimeInvoker_Void_t1841601450_QuaternionU26_t4187826802_QuaternionU26_t4187826802PK10MethodInfoPvPS2_
I$b:__Z31CalculateHierarchyTransformType23TransformAccessReadOnly
oWi:__ZN15dense_hashtableINSt3__24pairIK10KeyWrapperI13dynamic_arrayIPK10Il2CppTypeLj4EEEPFvvEEES8_N6il2cpp8metadata19Il2CppSignatureHashEN14dense_hash_mapIS8_SB_SF_NS8_14EqualsComparerINSE_22Il2CppSignatureCompareEEENS0_9allocatorISC_EEE9SelectKeyESJ_SL_E12resize_deltaEjj
f_b:__Z13RegisterClassI11TimeManagerEvv
BJ:__ZN4FMOD8ChannelI11setPositionEjj
sei:_AnimatorControllerPlayable_INTERNAL_CALL_SetBoolString_m1232105510
qai:_Component_SendMessage_m913946877
Oeg:__ZL75ToggleGroup_t1030026315_CustomAttributesCacheGenerator_U3CU3Ef__amU24cache1P21CustomAttributesCache
Kmi:_SynchronizedClientContextSink__ctor_m978504596
f9:__ZN17BaseObjectManager13StaticDestroyEPv
wzi:_TextGenerationSettings_CompareVector2_m592645251
r1f:__ZL137AnimatorControllerPlayable_t4078305555_CustomAttributesCacheGenerator_AnimatorControllerPlayable_INTERNAL_CALL_GetFloatString_m4205749063P21CustomAttributesCache
e7f:__ZL108StackTraceUtility_t1881293839_CustomAttributesCacheGenerator_StackTraceUtility_ExtractStackTrace_m1593581205P21CustomAttributesCache
Fxd:_DBNull_System_IConvertible_ToChar_m3344298044
m9e:_X509Certificate_GetObjectData_m3888130484
pAb:__ZNSt3__26vectorIN15ResourceManager10DependencyE13stl_allocatorIS2_L18MemLabelIdentifier51ELi16EEEC2INS_11__wrap_iterIPS2_EEEET_SB_RKS5_PNS_9enable_ifIXaasr21__is_forward_iteratorISB_EE5valuesr16is_constructibleIS2_NS_15iterator_traitsISB_E9referenceEEE5valueEvE4typeE
NRh:__Z45RuntimeInvoker_IMECompositionMode_t1898275508PK10MethodInfoPvPS2_
Wai:_CustomYieldInstruction_Reset_m3409422382
qoi:_LinkStack_Push_m2660199875
vI:__ZN4FMOD6Reverb13setPropertiesEPK22FMOD_REVERB_PROPERTIES
N3h:_CustomEventData_AddChar_m1103619816
SVa:__ZN9DepthPass13PrepareSubsetEjRK10RenderNodeifRK17ShaderReplaceData
$Wg:_Input_get_compositionString_m636835668
wvi:_X509CertificateCollection_Add_m4008705157
Lhg:_MonoMethodMessage_set_Uri_m3218581120
K6b:__Z35SetMeshComponentFromArrayFromScriptR4Mesh30InternalScriptingShaderChannel34InternalScriptingVertexChannelTypei17ScriptingArrayPtri
h8b:__Z18ExtractTagThrowingR11ICallString
Tha:__ZN4PPtrI6ShaderE8TransferI19StreamedBinaryWriteILb0EEEEvRT_
Jve:_Collection_1_IsFixedSize_m1816795498_gshared
HNa:__ZZ23InitPlayerLoopCallbacksvEN40EarlyUpdatePlayerCleanupCachedDatastruct7ForwardEv
mq:__ZN4core20StringStorageDefaultIcE6assignEPKcj
YSg:_GUIStyleState_GetBackgroundInternal_m439046630
Zkj:__ZN15dense_hashtableINSt3__24pairIK10KeyWrapperIP12Il2CppObjectEN6il2cpp2gc9CachedCCWEEES5_NS7_5utils11PointerHashIS3_EEN14dense_hash_mapIS5_S9_SD_NS5_14EqualsComparerINS0_8equal_toIS4_EEEENS0_9allocatorISA_EEE9SelectKeyESI_SK_E3endEv
QAb:__Z14resize_trimmedINSt3__26vectorIi13stl_allocatorIiL18MemLabelIdentifier12ELi16EEEEEvRT_j
kJd:_MouseButtonEventData_ReleasedThisFrame_m482758300
Ycj:__ZN15dense_hashtableINSt3__24pairIK10KeyWrapperINS1_IP11Il2CppClassjEEES4_EES6_N6il2cpp8metadata14ArrayClassHashEN14dense_hash_mapIS6_S4_SB_NS6_14EqualsComparerINSA_17ArrayClassCompareEEENS0_9allocatorIS8_EEE9SelectKeyESF_SH_E9copy_fromERKSK_j
cld:_ReadOnlyArrayListWrapper_set_Item_m2199017141
L3a:__ZN6Camera6SetFarEf
rvi:_DeriveBytes_DeriveIV_m3343375195
ICc:_UNITY_FT_Init_Class_ft_bitmap_glyph_class
g1c:_RNGCryptoServiceProvider_GetBytes_m167497991
Vja:__ZN6prcoreL12RemapGenericI17TexFormatABGR888817TexFormatARGB8888EEvPKNS_9InnerInfoE
yhb:__ZN11GameManager17MainThreadCleanupEv
_di:_AnimatorControllerPlayable_INTERNAL_CALL_GetAnimatorControllerInternal_m239716681
hTi:__ZL25UnresolvedVirtualCall_225P12Il2CppObjecti22UICharInfo_t3056636800PK10MethodInfo
d1i:__ZN6il2cpp6icalls8mscorlib6System18CollectTypeMethodsINS_5utils10functional6FilterINSt3__212basic_stringIcNS7_11char_traitsIcEENS7_9allocatorIcEEEENS4_11StringUtils23CaseInsensitiveComparerEEEEEvP11Il2CppClassPKSH_jRKT_RNS7_6vectorIPK10MethodInfoNSB_ISR_EEEERA65535_b
eHg:_TypeBuilder_get_Assembly_m492491492
YRi:__ZL25UnresolvedVirtualCall_160P12Il2CppObject23RaycastResult_t21186376PK10MethodInfo
Dxe:_Collection_1_InsertItem_m1225429801_gshared
Sff:_CipherSuite_set_Context_m4127897124
IKc:_UNITY_tt_slot_init
e$c:_HMACSHA512__cctor_m1167457383
KRb:__Z25scripting_array_class_get17ScriptingClassPtrj
_rc:__ZL22Transfer_ManagedObjectI9JSONWriteLb1EEvRK29SerializationCommandArgumentsR31RuntimeSerializationCommandInfo
gva:__ZN9GfxDevice20DestroyRenderSurfaceER12ObjectHandleI17RenderSurface_TagP17RenderSurfaceBaseE
HIa:__ZN9GfxDevice22UpdateComputeResourcesEjPK9TextureIDPK16TextureDimensionPKijPKjjPK15ComputeBufferIDS7_PK20ComputeBufferCounterjSC_S2_S5_S9_SF_
V3b:__ZN12_GLOBAL__N_15qAsinEff
i9d:_Dictionary_2_Do_ICollectionCopyTo_TisKeyValuePair_2_t3749587448_m2536766696_gshared
Gbb:__ZN12TLSAllocatorI14StackAllocatorE13ThreadCleanupEv
bO:__Z18GetAudioManagerPtrv
nge:_List_1_GetEnumerator_m2837081829_gshared
XQh:__Z67RuntimeInvoker_Void_t1841601450_Int16_t4041245914_Int16_t4041245914PK10MethodInfoPvPS2_
Hsj:__ZThn4_N6il2cpp2vm13ComObjectBase16MarshalInterfaceEP13Il2CppIStreamRK10Il2CppGuidPvjS7_j
zvb:__ZN4Mesh27SwizzleVertexColorsIfNeededEb
mcb:__Z27FindActiveTransformWithPathPKc
uIh:__Z63RuntimeInvoker_DSAParameters_t1872138834_BooleanU26_t3168250738PK10MethodInfoPvPS2_
C0f:__ZL151AnimatorControllerPlayable_t4078305555_CustomAttributesCacheGenerator_AnimatorControllerPlayable_INTERNAL_CALL_CrossFadeInFixedTimeInternal_m3528719771P21CustomAttributesCache
K8h:_CanvasGroup_get_alpha_m1304564441
Cib:__ZN12BaseRendererD0Ev
y9a:__Z29StdTemplateConversionFunctionIbyEbPvR14SafeBinaryRead
Wih:_DefaultComparer__ctor_m899694595_gshared
v6h:_AsyncOperation_Finalize_m67522446
POh:__Z56RuntimeInvoker_TimeSpan_t3430258949_TimeSpan_t3430258949PK10MethodInfoPvPS2_
jPa:_UNITY_png_write_info
YXa:__ZNK6Camera7GetNearEv
Pza:__ZN7ApiGLES11UnmapBufferEjN2gl12BufferTargetE
roj:__ZN6il2cpp5utilsL24Utf32CharToSurrogatePairEjRA2_Ds
Upb:__Z25GetNextAllowedTextureSizeib13TextureFormat
bX:__ZN20LocalFileSystemWebGL4CopyER13FileEntryDataS1_
_le:_List_1_CheckIndex_m4231572822_gshared
TS:__ZN19CloudServiceHandler6RetainEv
zAj:__ZN6il2cpp2os9Semaphore4WaitEb
V5c:_StrongName_Equals_m67226644
Kib:__ZN12BaseRenderer20FlattenToRenderQueueER15RenderNodeQueueRK20DeprecatedSourceData
gIg:_FieldBuilder_get_Attributes_m2174064290
gYe:_UnmanagedMemoryStream_get_Length_m587008850
zma:__Z34scripting_liveness_calculation_endPv
Toj:__ZN6il2cpp2os6ThreadC2Ev
K6c:_SecurityFrame_InitFromRuntimeFrame_m45195821
aGf:__ZL53TextReader_t1561828458_CustomAttributesCacheGeneratorP21CustomAttributesCache
Yuf:_X509Chain_IsSignedWith_m292245392
Koj:__ZNK6il2cpp2os10SocketImpl12GetLastErrorEv
a_d:_Array_InternalArray__ICollection_Remove_TisDateTime_t693205669_m1275668216_gshared
zgh:_Dictionary_2__ctor_m871840915_gshared
DDe:_ReadOnlyCollection_1_System_Collections_Generic_ICollectionU3CTU3E_Remove_m3751131234_gshared
stc:__Z18Transfer_BlittableI8JSONReadLb0E8Vector3fEvRK29SerializationCommandArgumentsR31RuntimeSerializationCommandInfo
hki:_ChannelServices__cctor_m3534779830
zej:__ZN6il2cpp2vm6Thread6DetachEP12Il2CppThread
yGc:_Render_Single_Pass
htd:_Convert_ToInt16_m416789348
Mbd:_EncoderExceptionFallback_Equals_m762170768
dQi:__ZL24UnresolvedVirtualCall_59P12Il2CppObjectS0_aPK10MethodInfo
Znh:_EqualityComparer_1__cctor_m2666196678_gshared
UQg:_GUIStyle_Init_m3872198731
BA:__ZN7mecanim8skeleton30SkeletonBuildReverseIndexArrayEPiPKiPKNS0_8SkeletonES6_
Ykc:__Z19GetGUIBlendMaterialv
Fpj:__ZN6il2cpp2os10ThreadImpl5SleepEjb
Qxi:_X509ExtensionCollection_System_Collections_IEnumerable_GetEnumerator_m2600902401
jsc:__ZN9JSONWrite8TransferI13GUIStyleStateEEvRT_PKc17TransferMetaFlags
fCb:__ZN15FileSystemEntry4MoveERS_23FileSystemCopyMoveFlags
DMj:_glBindSampler__wrapper
lHi:_UnityAction_1_Invoke_m3523417209_gshared
Jf:_emscripten_set_mouseup_callback
uIa:__ZN9GfxDevice27SetRandomWriteTargetTextureEi9TextureID
XMh:__Z48RuntimeInvoker_Int64_t909078037_SByte_t454417549PK10MethodInfoPvPS2_
Ayi:_SpaceAttribute__ctor_m1444406696
hW:__ZNK18ScreenManagerWebGL8GetWidthEv
oHj:dynCall_iiifii
SYi:__ZN6il2cpp2vm13MetadataCache33GetFieldDefaultValueDataFromIndexEi
kSd:_GridLayoutGroup_set_startAxis_m1635162426
FF:__ZN10SampleClipD2Ev
Pmi:_SynchronizationAttribute_EnterContext_m2984912761
xBf:__ZL73Enum_t2459695545_CustomAttributesCacheGenerator_Enum_ToObject_m2601523252P21CustomAttributesCache
IEd:_CultureInfo_construct_internal_locale_from_name_m971766383
Epj:__ZN6il2cpp2os10ThreadImpl13SetWaitObjectEPNS0_5posix15PosixWaitObjectE
Khd:_Byte_Equals_m368616327_AdjustorThunk
I3d:_Array_InternalArray__ICollection_Add_TisUIVertex_t1204258818_m3869382594_gshared
ID:__Z56AnimationOffsetPlayable_CUSTOM_INTERNAL_CALL_GetPositionR9HPlayableR8Vector3f
cKc:_cff_cmap_unicode_init
PSa:__ZNSt3__224__buffered_inplace_mergeIRN10vector_mapIiN17InstancedPropInfo12PropertyTypeENS_4lessIiEE13stl_allocatorINS_4pairIiS3_EEL18MemLabelIdentifier1ELi16EEE13value_compareENS_11__wrap_iterIPS8_EEEEvT0_SH_SH_T_NS_15iterator_traitsISH_E15difference_typeESL_PNSK_10value_typeE
b6f:__ZL95CustomEventData_t1269126727_CustomAttributesCacheGenerator_CustomEventData_AddInt64_m1803231272P21CustomAttributesCache
ZBd:_Enum_ToObject_m2460371738
j3e:_PrimalityTests_Test_m1088386156
U4:__ZN14FileCacherRead13GetFileLengthEv
Xmc:__Z36Event_CUSTOM_Internal_SetNativeEvent13Il2Cpp_IntPtr
DDj:_readlink
I9i:__ZN15dense_hashtableINSt3__24pairIK10KeyWrapperINS1_IPK9EventInfoP11Il2CppClassEEEjEES9_17ReflectionMapHashIS8_EN14dense_hash_mapIS9_jSD_NS9_14EqualsComparerINS0_8equal_toIS8_EEEENS0_9allocatorISB_EEE9SelectKeyESI_SK_E12resize_deltaEjj
I7d:_Array_Resize_TisVector3_t2243707580_m893658391_gshared
Krh:_InternalEnumerator_1_System_Collections_IEnumerator_get_Current_m4259662004_AdjustorThunk
abe:_Array_InternalArray__get_Item_TisKeyframe_t1449471340_m1003508933_gshared
Fyj:__ZN6il2cpp8metadata14Il2CppTypeHash4HashEPK10Il2CppType
V7e:_StrongName_get_PublicKeyToken_m1968460885
Dxb:__ZNK6Sprite9GetBoundsE8Vector2fbb
vRa:__ZNK19RenderEventsContext21CleanupCommandBuffersEv
pya:__ZN11ContextGLES6CreateEi
NRe:_BinaryReader_Dispose_m4249456877
wWi:__ZN15dense_hashtableINSt3__24pairIK10KeyWrapperI13dynamic_arrayIPK10Il2CppTypeLj4EEEPFvvEEES8_N6il2cpp8metadata19Il2CppSignatureHashEN14dense_hash_mapIS8_SB_SF_NS8_14EqualsComparerINSE_22Il2CppSignatureCompareEEENS0_9allocatorISC_EEE9SelectKeyESJ_SL_E12maybe_shrinkEv
msd:_Double_ToString_m1085043609
jRb:__Z19TransferField_ArrayI18StreamedBinaryReadILb0EE27Converter_SimpleNativeClassI17AnimationCurveTplIfEEEvRK23StaticTransferFieldInfoR31RuntimeSerializationCommandInfoRT0_
Wff:_CipherSuite_createEncryptionCipher_m1926075645
rbb:__ZN14StackAllocator16FrameMaintenanceEb
CRd:_Graphic_Raycast_m3582517890
cfb:__Z18ReadStringFromFilePN4core17string_with_labelILi1EEERKNS_12basic_stringIcNS_20StringStorageDefaultIcEEEE
q0:__ZNK10GameObject20QueryComponentByTypeEPKN5Unity4TypeE
Bee:_Enumerator_MoveNext_m1367380970_AdjustorThunk
uKg:_OpCode_GetHashCode_m2974727122
Xff:_CipherSuite_createDecryptionCipher_m1118350455
vpi:_PatternCompiler_EmitReference_m1381860071
LE:__Z78AnimatorControllerPlayable_CUSTOM_INTERNAL_CALL_IsParameterControlledByCurveIDR9HPlayablei
PAd:_Double_System_IConvertible_ToInt16_m4200640326
$dc:__Z53Register_UnityEngine_GameObject_get_activeInHierarchyv
iJg:_GenericTypeParameterBuilder_get_IsGenericType_m1883522222
hSh:__Z90RuntimeInvoker_Single_t2076509932_Single_t2076509932_Single_t2076509932_Single_t2076509932PK10MethodInfoPvPS2_
r_:__ZL30InitializeCoreScriptingClassesv
zye:_Collection_1_CheckWritable_m3938993573_gshared
Eg:_glBlitFramebuffer
DMa:__ZN17ArchiveFileSystem5TouchER13FileEntryData
vkf:_SecurityParameters_set_Cipher_m3888132335
r3e:_BigInteger_GeneratePseudoPrime_m2606361440
YKe:_DateTimeFormatInfo_get_ShortTimePattern_m20923983
LIb:__Z35Transfer_Blittable_SingleValueFieldI14SafeBinaryReadhEvRT_R17GeneralMonoObjectRK23StaticTransferFieldInfo
edg:__ZL140U3CMouseDragOutsideRectU3Ec__Iterator1_t2599668326_CustomAttributesCacheGenerator_U3CMouseDragOutsideRectU3Ec__Iterator1_Dispose_m2134284531P21CustomAttributesCache
z3f:__ZL90Event_t3028476042_CustomAttributesCacheGenerator_Event_Internal_SetNativeEvent_m1899228752P21CustomAttributesCache
VXc:__ZN22BaseUnityConnectClientC2ERN11UnityEngine7Connect20BasePersistentValuesE
YIh:__Z129RuntimeInvoker_Int32_t2071877448_Il2CppObject_Int32_t2071877448_Int32_t2071877448_Il2CppObject_Int32_t2071877448_SByte_t454417549PK10MethodInfoPvPS2_
I6e:_EncryptedPrivateKeyInfo_get_Algorithm_m2779196942
pig:_RemotingServices_GetRealProxy_m620317996
sWa:__ZN13dynamic_arrayI11CulledLightLj4EE6insertEPS0_PKS0_S4_
rph:_ArrayReadOnlyList_1_RemoveAt_m2270349795_gshared
HVi:__ZNK15dense_hashtableI10KeyWrapperIPK19Il2CppGenericMethodES4_N6il2cpp8metadata23Il2CppGenericMethodHashEN14dense_hash_setIS4_S7_NS4_14EqualsComparerINS6_26Il2CppGenericMethodCompareEEENSt3__29allocatorIS4_EEE8IdentityESB_SE_E3endEv
sFi:_Predicate_1_Invoke_m2060780095_gshared
Xmb:__ZN11Tetrahedron8TransferI18StreamedBinaryReadILb0EEEEvRT_
Kn:FUNCTION_TABLE_vif
Ln:FUNCTION_TABLE_vid
Nn:FUNCTION_TABLE_vii
Lma:__Z40scripting_liveness_calculation_from_root18ScriptingObjectPtrPv
aPa:_UNITY_png_create_write_struct
WHh:__Z149RuntimeInvoker_Boolean_t3825574718_Int32_t2071877448_Il2CppObject_Int32_t2071877448_Int32_t2071877448_Il2CppObject_Int32_t2071877448_SByte_t454417549PK10MethodInfoPvPS2_
afa:__ZN7Texture23VirtualRedirectTransferER24GenerateTypeTreeTransfer
Pzc:_UNITY_FT_Set_Transform
E1b:__ZNK32RendererMaterialAnimationBinding12SetPPtrValueERKN11UnityEngine9Animation10BoundCurveEi
Hoh:_ArrayReadOnlyList_1_Contains_m1266627404_gshared
iMj:_glDeleteFramebuffers__wrapper
cTd:_Image_get_overrideSprite_m706080347
vbf:_BigInteger_ModInverse_m1881894572
a0i:__ZN6il2cpp2vm7Runtime17GetDelegateInvokeEP11Il2CppClass
teg:__ZL59Slider_t297367283_CustomAttributesCacheGenerator_m_FillRectP21CustomAttributesCache
Wie:_List_1_AddEnumerable_m3541747636_gshared
xbj:__ZN30dense_hashtable_const_iteratorINSt3__24pairIK10KeyWrapperIPK22Il2CppGenericParameterEPK24MonoGenericParameterInfoEES6_N6il2cpp5utils11PointerHashIS4_EEN14dense_hash_mapIS6_SA_SF_NS6_14EqualsComparerINS0_8equal_toIS5_EEEENS0_9allocatorISB_EEE9SelectKeyESK_SM_E30advance_past_empty_and_deletedEv
crb:__ZN28EnlightenRendererInformation8TransferI14SafeBinaryReadEEvRT_
fIf:__ZL69DefaultDependencyAttribute_t3858269114_CustomAttributesCacheGeneratorP21CustomAttributesCache
zJa:__ZNK15Lz4Decompressor16DecompressMemoryEPKvPjPvS2_
y$g:_Ray_ToString_m2019179238
fGe:_ReadOnlyCollection_1_System_Collections_IList_get_Item_m887129009_gshared
Lab:__ZNSt3__26__treeINS_12__value_typeIN4core12basic_stringIcNS2_20StringStorageDefaultIcEEEEPN16MemoryFileSystem4NodeEEENS_19__map_value_compareIS6_SA_NS_4lessIS6_EELb1EEE13stl_allocatorISA_L18MemLabelIdentifier54ELi16EEE4findIS6_EENS_15__tree_iteratorISA_PNS_11__tree_nodeISA_PvEEiEERKT_
eyd:_Decimal_System_IConvertible_ToType_m3828527724_AdjustorThunk
sVd:_InputField_get_caretPositionInternal_m3011712053
fEc:_UNITY_tt_face_load_os2
kdf:_HMAC_get_Key_m2528863640
lze:_Collection_1_IsSynchronized_m1366278230_gshared
BNf:__ZL93StringBuilder_t1221177846_CustomAttributesCacheGenerator_StringBuilder_AppendLine_m1686706871P21CustomAttributesCache
mIb:__Z29Transfer_Blittable_ArrayFieldI14SafeBinaryRead8Vector4fEvRT_R9ArrayInfoRK23StaticTransferFieldInfo
AYd:_Array_get_swapper_TisInt32_t2071877448_m2837069166_gshared
M7i:__ZN6il2cpp2gc19AppendOnlyGCHashMapINSt3__24pairIPK10MethodInfoP11Il2CppClassEEP22Il2CppReflectionMethod17ReflectionMapHashIS9_ENS2_8equal_toIS9_EEE3AddERKS9_SB_
U0g:_RectTransform_INTERNAL_get_rect_m1177342209
Eue:_Collection_1_Clear_m268154422_gshared
EId:_PointerEventData_IsScrolling_m1971908975
DMi:_Keyboard_WarnIfTerminalNotConneced_m4209930749
crj:__ZN6il2cpp2os26LibraryNamePrefixAndSuffixD2Ev
p2f:__ZL53UILineInfo_t3621277874_CustomAttributesCacheGeneratorP21CustomAttributesCache
qyd:_Decimal_System_IConvertible_ToInt16_m3159038792
mx:__ZN7mecanim9animation12EvaluateClipEPKNS0_4ClipEPKNS0_9ClipInputEPNS0_10ClipMemoryEPNS0_10ClipOutputE
orb:__ZN4PPtrI11LightProbesE8TransferI18StreamedBinaryReadILb0EEEEvRT_
Kii:_ComVisibleAttribute__ctor_m1789587486
INg:_MonoMethodInfo_GetReturnType_m2864247130
i0a:__ZN13RenderManager29SetCurrentCameraAndStackStateEP6CameraP25CameraStackRenderingState
lej:__ZN15dense_hashtableINSt3__24pairIK10KeyWrapperINS1_IP11Il2CppClassjEEES4_EES6_N6il2cpp8metadata14ArrayClassHashEN14dense_hash_mapIS6_S4_SB_NS6_14EqualsComparerINSA_17ArrayClassCompareEEENS0_9allocatorIS8_EEE9SelectKeyESF_SH_E12resize_deltaEjj
Th:_JS_WebRequest_Release
_Se:_DirectoryNotFoundException__ctor_m2242202556
rR:__ZN11UnityEngine15CloudWebService14DataErrorEventD0Ev
wad:_String_CreateString_m2448464375
Dwf:_X509SubjectKeyIdentifierExtension__ctor_m2959112706
xLg:_FieldInfo_get_IsNotSerialized_m2322769148
qRf:__ZL68Math_t2022911894_CustomAttributesCacheGenerator_Math_Max_m2671311541P21CustomAttributesCache
hkj:__ZN6il2cpp8metadata15GenericMetadata7InflateEPK19Il2CppGenericMethodPK20Il2CppGenericContext
jSa:__ZN19ShaderPropertySheet16SetArrayPropertyEN9ShaderLab16FastPropertyNameENS_12PropertyTypeEPKvj
BNg:_MonoGenericCMethod_get_ReflectedType_m2689239043
mze:_Collection_1_IsFixedSize_m499196375_gshared
vNd:_ColorTween_set_startColor_m3546206870_AdjustorThunk
Fkj:__ZN15dense_hashtableINSt3__24pairIK10KeyWrapperIP12Il2CppObjectEN6il2cpp2gc9CachedCCWEEES5_NS7_5utils11PointerHashIS3_EEN14dense_hash_mapIS5_S9_SD_NS5_14EqualsComparerINS0_8equal_toIS4_EEEENS0_9allocatorISA_EEE9SelectKeyESI_SK_E16reset_thresholdsEv
hAf:__ZL63String_t_CustomAttributesCacheGenerator_String_Split_m394273024P21CustomAttributesCache
YNc:__ZN2UI11CanvasGroup23VirtualRedirectTransferER19StreamedBinaryWriteILb0EE
xuh:_InternalEnumerator_1_get_Current_m4083613828_gshared
gmc:__ZN8GUIState8EndOnGUIEv
jsg:_UnicodeEncoding_GetString_m542738941
PKc:_UNITY_TT_Get_VMetrics
zSe:_Path_InsecureGetFullPath_m2635272425
$pd:_Enumerator_Clone_m1124749523
awd:_DateTime_System_IConvertible_ToUInt32_m1363211018
_ng:_RuntimeMethodHandle__ctor_m1162528746
Saj:__ZN15dense_hashtableINSt3__24pairIK10KeyWrapperIPK14Il2CppAssemblyEPK16MonoAssemblyNameEES6_N6il2cpp5utils11PointerHashIS4_EEN14dense_hash_mapIS6_SA_SF_NS6_14EqualsComparerINS0_8equal_toIS5_EEEENS0_9allocatorISB_EEE9SelectKeyESK_SM_E16reset_thresholdsEv
Hoe:_List_1_AsReadOnly_m4108578222_gshared
sqg:_DSA__ctor_m613430209
X_d:_SetPropertyUtility_SetStruct_TisSingle_t2076509932_m3849235084_gshared
aBa:__ZN7Texture21GetMasterTextureLimitEv
T4a:__Z12CanAddScriptR10GameObject17ScriptingClassPtrPS1_S2_
Hcj:__ZN6il2cpp2vm10Reflection12HasAttributeEP12Il2CppObjectP11Il2CppClass
yQa:_UNITY_png_write_sRGB
xvc:__ZN8JSONRead21TransferSTLStyleArrayI13dynamic_arrayI4AABBLj4EEEEvRT_18MemLabelIdentifier17TransferMetaFlags
MGi:_InvokableCall_1__ctor_m121193486_gshared
A0:__ZN9ShaderLabL25StaticInitializeShaderLabEPv
$hh:_Dictionary_2_ContainsKeyValuePair_m3818021458_gshared
U:Math_max
vze:_Collection_1_System_Collections_IList_Insert_m1511106741_gshared
KQi:__ZL24UnresolvedVirtualCall_92P12Il2CppObjectPK10MethodInfo
Q2i:_il2cpp_class_get_methods
CSe:_Path_CanonicalizePath_m383914732
tBh:_Enumerator_System_Collections_IEnumerator_get_Current_m1631145297_gshared
gkd:_ArrayList_Synchronized_m2395071980
$oj:__ZN6il2cpp2os6Thread16GetCurrentThreadEv
o4b:__ZN10GameObject13ComponentPair15SetComponentPtrEPN5Unity9ComponentE
aYe:_UnexceptionalStreamWriter_Write_m3206913035
TZb:__Z13RegisterClassI10MeshFilterEvv
SC:__ZNK26AnimatorControllerPlayable24GetAnimatorClipInfoCountEib
wib:__ZN10TagManager8TransferI19StreamedBinaryWriteILb0EEEEvRT_
fFb:__ZN11PreloadData23VirtualRedirectTransferER18StreamedBinaryReadILb0EE
xw:__Z17dynamic_pptr_castIP10MonoScript6ObjectET_RK4PPtrIT0_E
osj:__ZN6il2cpp6icalls8mscorlib6System10ReflectionL40il2cpp_class_get_generic_type_definitionEP11Il2CppClass
qqg:_DESTransform_ProcessBlock_m2826669227
EQh:__Z115RuntimeInvoker_Void_t1841601450_Il2CppObject_Int32_t2071877448_Int32_t2071877448_SByte_t454417549_Int32_t2071877448PK10MethodInfoPvPS2_
uOe:_Int16_CompareTo_m3493496879
zXh:__Z36RuntimeInvoker_Direction_t1525323322PK10MethodInfoPvPS2_
KZf:__ZL56RenderTexture_t2666733923_CustomAttributesCacheGeneratorP21CustomAttributesCache
Q6f:__ZL56ColorWriteMask_t926634530_CustomAttributesCacheGeneratorP21CustomAttributesCache
stb:__ZN6Sprite17MainThreadCleanupEv
ZTf:__ZL56OidCollection_t3790243618_CustomAttributesCacheGeneratorP21CustomAttributesCache
xMf:__ZL61SignatureDescription_t89145500_CustomAttributesCacheGeneratorP21CustomAttributesCache
Zth:_InternalEnumerator_1_MoveNext_m3389738333_AdjustorThunk
TK:__ZN10AudioMixer14UpdateMuteSoloEv
iRa:__Z17GetMonoManagerPtrv
fai:_Component_GetComponents_m637589504
lre:_Stack_1_System_Collections_ICollection_get_SyncRoot_m3151629354_gshared
G3g:_MaskableGraphic_UnityEngine_UI_IClippable_get_gameObject_m954171032
Ofa:__ZN9ShaderLab10SubProgram7CompileEv
dAa:__ZN7ApiGLES16SetPatchVerticesEi
yVe:_MonoIOStat_t1621921065_marshal_pinvoke
hKa:__ZN10MemoryFileC2E18MemLabelIdentifierP14MemoryFileData14FilePermission
xjg:_TrackingServices_NotifyUnmarshaledObject_m1794048369
lNi:__ZN6il2cpp2vm5Class20FromGenericParameterEPK22Il2CppGenericParameter
FKf:__ZL59RemotingServices_t2399536837_CustomAttributesCacheGeneratorP21CustomAttributesCache
tT:__ZN19CloudServiceHandler11FlushEventsEv
Bfi:_AnimatorControllerPlayable_INTERNAL_CALL_GetAnimatorClipInfoInternal_m3180917212
F8:__ZN15GlobalCallbacksC2Ev
qdb:__ZN11AssetBundle8TransferI14SafeBinaryReadEEvRT_
EDh:__Z76RuntimeInvoker_Int32_t2071877448_Il2CppObject_Int32_t2071877448_Il2CppObjectPK10MethodInfoPvPS2_
j6d:_Array_InternalArray__set_Item_TisLabelFixup_t4090909514_m565370771_gshared
oBc:_UNITY_FT_New_Memory_Face
QSf:__ZL74X509Crl_t1699034837_CustomAttributesCacheGenerator_U3CU3Ef__switchU24map13P21CustomAttributesCache
ong:_SerializationEntry__ctor_m1619256036_AdjustorThunk
fE:__Z81AnimatorControllerPlayable_CUSTOM_INTERNAL_CALL_GetAnimatorTransitionInfoInternalR9HPlayablei
UNa:__ZZ23InitPlayerLoopCallbacksvEN43PostLateUpdatePlayerSendFrameCompletestruct7ForwardEv
kta:__ZN26VertexDeclarationCacheGLES24DestroyVertexDeclarationEP17VertexDeclaration
N5c:__Z15CastclassSealedP12Il2CppObjectP11Il2CppClass
pZb:__ZN15ApplicationInfo14GetSandboxTypeEv
UXg:_Material_HasProperty_m3175512802
RIb:__Z18Transfer_BlittableI17RemapPPtrTransferLb1EhEvRK29SerializationCommandArgumentsR31RuntimeSerializationCommandInfo
nrj:__ZNSt3__26vectorIjNS_9allocatorIjEEE26__swap_out_circular_bufferERNS_14__split_bufferIjRS2_EE
g3a:__ZN16ReflectionProbes40UpdateRealtimeReflectionProbesTimeslicedEv
wZi:_ListPool_1_Get_m529219189_gshared
Smj:__ZNSt3__26__treeINS_12__value_typeIP24Il2CppReflectionAssemblyPvEENS_19__map_value_compareIS3_S5_NS_4lessIS3_EELb1EEENS_9allocatorIS5_EEE16__insert_node_atEPNS_16__tree_node_baseIS4_EERSF_SF_
HJg:_MethodBuilder_GetBaseDefinition_m774166361
xlg:_FormatterConverter__ctor_m3958982477
k1b:__ZN16ReflectionProbes15InitializeClassEv
Zxj:__ZN6il2cpp5utils5MatchENSt3__212basic_stringIcNS1_11char_traitsIcEENS1_9allocatorIcEEEEjRKS7_j
gCc:_UNITY_FT_Destroy_Class_psnames_module_class
DXi:__ZNK15dense_hashtableINSt3__24pairIK10KeyWrapperIPK11Il2CppClassEPKcEES6_N6il2cpp5utils11PointerHashIS3_EEN14dense_hash_mapIS6_S9_SE_NS6_14EqualsComparerINS0_8equal_toIS5_EEEENS0_9allocatorISA_EEE9SelectKeyESJ_SL_E12test_deletedEj
Zoi:_MRUList_Evict_m2430323183
fEe:_ReadOnlyCollection_1_System_Collections_Generic_ICollectionU3CTU3E_Remove_m1060547576_gshared
Slj:__ZN6il2cpp2vm5Image9GetCorlibEv
PXe:_NullTextWriter_Write_m2306984725
nA:__ZN8Animator13BatchedFKPassERK13dynamic_arrayIP14PlayableOutputLj4EE
dlf:_RecordProtocol_ProcessChangeCipherSpec_m3233959862
X9h:_Component_GetComponent_m4225719715
NQd:_Graphic_set_raycastTarget_m1229173591
E8d:_Array_Sort_TisVector4_t2243707581_m474199742_gshared
hje:_List_1_CheckIndex_m2247532995_gshared
A5f:__ZL93GUIUtility_t3275770671_CustomAttributesCacheGenerator_GUIUtility_set_guiIsExiting_m2362636745P21CustomAttributesCache
KXe:_TextWriter_Write_m576684782
OCi:_Vector3_Max_m2105825185
Qj:_glIsVertexArray
pF:__Z100Register_UnityEngine_Experimental_Director_AnimatorControllerPlayable_INTERNAL_CALL_SetIntegerStringv
hBb:__ZNSt3__26vectorIN4core12basic_stringIcNS1_20StringStorageDefaultIcEEEE13stl_allocatorIS5_L18MemLabelIdentifier12ELi16EEEC2INS_11__wrap_iterIPS5_EEEET_SE_RKS8_PNS_9enable_ifIXaasr21__is_forward_iteratorISE_EE5valuesr16is_constructibleIS5_NS_15iterator_traitsISE_E9referenceEEE5valueEvE4typeE
gKa:__ZN25SingleBlockMemoryFileDataC2E18MemLabelIdentifierPvjb
Gcb:__ZN5Unity9Component8TransferI18StreamedBinaryReadILb0EEEEvRT_
ea:invoke_fff
yah:_Text_get_fontSize_m3105730761
qJj:b14
ukf:_TlsServerHello_Update_m1740270635
hNc:__ZN2UI6Canvas17MainThreadCleanupEv
e7g:_ScrollRect_Rebuild_m3423824761
Loe:_List_1_Find_m3862454845_gshared
Ooi:_MatchCollection_get_Item_m2609281578
WGa:__ZN7ApiGLES13CreateProgramEv
qkb:__ZN11HaloManager7AddHaloEv
htg:_UTF8Encoding__ctor_m100325490
nBa:__ZN4crnd12crn_unpackerD2Ev
bah:_StencilMaterial_ClearAll_m1372779118
ak:_emscripten_glTexImage2D
Rhg:_ObjRefSurrogate_SetObjectData_m1873902916
AKc:_tt_driver_class_pic_init
j_:__ZN18ScriptingArguments9AddStringEPKc
Mvj:_setup_header
IBe:_ReadOnlyCollection_1_System_Collections_IList_get_IsReadOnly_m1367736517_gshared
_Vf:__ZL116Component_t3819376471_CustomAttributesCacheGenerator_Component_GetComponentsInParent_m1920178904____includeInactive1P21CustomAttributesCache
cGj:runPostSets
k9f:__ZL93AxisEventData_t1524870173_CustomAttributesCacheGenerator_AxisEventData_set_moveDir_m254243794P21CustomAttributesCache
lpa:__ZL23stbir__resize_arbitraryPvPKviiiS_iiiffffPfiij14stbir_datatype12stbir_filterS4_10stbir_edgeS5_16stbir_colorspace
Dke:_List_1_System_Collections_IList_Insert_m848656350_gshared
HKb:__Z18Transfer_BlittableI24GenerateTypeTreeTransferLb1E8Vector4fEvRK29SerializationCommandArgumentsR31RuntimeSerializationCommandInfo
UOe:_Int16_ToString_m3971652088_AdjustorThunk
fRi:__ZL25UnresolvedVirtualCall_115P12Il2CppObjecttaaPK10MethodInfo
lk:_pthread_detach
Y_i:__ZN6il2cpp2vm19SocketPollingThread7RunLoopEv
xwf:_X509ExtensionEnumerator_Reset_m3200687545
dhg:_MethodDictionary_AllocInternalProperties_m3261295876
zgc:__ZN15DirectorManager20ScheduleGraphDestroyERK14HPlayableGraph
$ra:__ZNSt3__213__stable_sortIRN10vector_mapI17ScriptingClassPtrPKN5Unity4TypeENS_4lessIS2_EENS_9allocatorINS_4pairIS2_S6_EEEEE13value_compareENS_11__wrap_iterIPSB_EEEEvT0_SJ_T_NS_15iterator_traitsISJ_E15difference_typeEPNSM_10value_typeEi
nUf:__ZL77U3CPrivateImplementationDetailsU3E_t1486305139_CustomAttributesCacheGeneratorP21CustomAttributesCache
eVb:__ZN9ShaderLab25SerializedTextureProperty8TransferI24GenerateTypeTreeTransferEEvRT_
teb:__ZN15dense_hashtableINSt3__24pairIKN4core12basic_stringIcNS2_20StringStorageDefaultIcEEEEP11AssetBundleEES6_20StringHash32FunctionIS6_EN14dense_hash_mapIS6_S9_SC_NS0_8equal_toIS6_EENS0_9allocatorISA_EEE9SelectKeyESF_SH_E12resize_deltaEjj
TQj:_emscripten_glIsShader__wrapper
zaj:__ZN6il2cpp2gc19AppendOnlyGCHashMapINSt3__24pairIPK14Il2CppAssemblyP11Il2CppClassEEP24Il2CppReflectionAssembly17ReflectionMapHashIS9_ENS2_8equal_toIS9_EEEC2Ev
QFc:_tt_cmap14_char_next
dHf:__ZL69AssemblyTrademarkAttribute_t3740556705_CustomAttributesCacheGeneratorP21CustomAttributesCache
Uwa:__ZN13GfxDeviceGLES28GetNativeVertexBufferPointerEP9GfxBuffer
_da:__ZN11NamedObject8TransferI18StreamedBinaryReadILb0EEEEvRT_
UFa:__ZNK17GPUSkinPoseBuffer12GetBoneCountEv
coc:__Z32GUIStyle_Get_Custom_PropFontSizeP12Il2CppObject
fng:_DelegatePInvokeWrapper_CallbackHandler_t362827733
NRf:__ZL59ResolveEventArgs_t1859808873_CustomAttributesCacheGeneratorP21CustomAttributesCache
uHi:_UnityAction_1_BeginInvoke_m3462722079_gshared
Uij:__ZNK15dense_hashtableINSt3__24pairIK10KeyWrapperIP14Il2CppIUnknownEjEES5_N6il2cpp5utils11PointerHashIS3_EEN14dense_hash_mapIS5_jSB_NS5_14EqualsComparerINS0_8equal_toIS4_EEEENS0_9allocatorIS7_EEE9SelectKeyESG_SI_E12test_deletedEj
pLg:_EventInfo_get_MemberType_m3337516651
duc:__Z18Transfer_BlittableI8JSONReadLb1EyEvRK29SerializationCommandArgumentsR31RuntimeSerializationCommandInfo
Ik:_emscripten_glMatrixMode
Ir:__ZN8Animator23VirtualRedirectTransferER18StreamedBinaryReadILb0EE
IGf:__ZL93TypeBuilder_t3308873219_CustomAttributesCacheGenerator_TypeBuilder_GetConstructors_m774120094P21CustomAttributesCache
OTe:_NotSupportedException__ctor_m836173213
Bhg:_MethodReturnDictionary__ctor_m756139344
NQ:__ZN11UnityEngine15CloudWebService14DataDispatcher16PrepareDataBlockERNS0_16SessionContainerE
lHa:__ZN18GfxFramebufferGLES5ClearE13GfxClearFlagsRK10ColorRGBAffib
Kpe:_List_1_GetIndex_m2513359832_gshared
Tqh:_InternalEnumerator_1__ctor_m967618647_gshared
X0h:__Z62RuntimeInvoker_ParameterModifier_t1820634920_Int32_t2071877448PK10MethodInfoPvPS2_
CQb:__ZL26Transfer_SimpleNativeClassI18StreamedBinaryReadILb0EE10RectOffsetLb0EEvRK29SerializationCommandArgumentsR31RuntimeSerializationCommandInfo
dCc:_UNITY_ft_destroy_default_module_classes
ihe:_List_1_CheckMatch_m1772343151_gshared
BVa:__ZL12DepthPassJobPN21GfxDeviceAsyncCommand10ArgScratchEPKNS_3ArgE
JTb:__ZNSt3__26vectorIN9ShaderLab20SerializedSubProgram16TextureParameterENS_9allocatorIS3_EEE6assignINS_11__wrap_iterIPS3_EEEENS_9enable_ifIXaasr21__is_forward_iteratorIT_EE5valuesr16is_constructibleIS3_NS_15iterator_traitsISC_E9referenceEEE5valueEvE4typeESC_SC_
mRe:_IntPtr_Equals_m1214967011_AdjustorThunk
Dne:_List_1_Add_m3591975577_gshared
VQc:__Z55Register_UnityEngine_CanvasGroup_get_ignoreParentGroupsv
s_b:__Z13RegisterClassI19LowerResBlitTextureEvv
q9f:__ZL100PointerEventData_t1599784723_CustomAttributesCacheGenerator_U3CpointerPressRaycastU3Ek__BackingFieldP21CustomAttributesCache
Lm:FUNCTION_TABLE_iiiiiiiiiiii
Tjb:__ZN16GraphicsSettingsD0Ev
d9a:__Z29StdTemplateConversionFunctionIshEbPvR14SafeBinaryRead
aOj:_pthread_mutex_init__wrapper
I1a:__ZN15LODGroupManager21CalculateLODDataArrayERK13LODParametersPK6Cameraf
n:cttz_i8
tIc:_UNITY_FT_GlyphLoader_Add
Yqh:_InternalEnumerator_1_System_Collections_IEnumerator_get_Current_m1004764375_AdjustorThunk
aLe:_DateTimeFormatInfo_get_FullDateTimePattern_m2607507656
Ukf:_HttpsClientStream_RaiseServerCertificateValidation_m3356770426
GCf:__ZL73Il2CppArray_CustomAttributesCacheGenerator_Array_BinarySearch_m3052238307P21CustomAttributesCache
Tzd:_DelegateSerializationHolder__ctor_m3915060553
kBb:__ZN15SerializeTraitsINSt3__26vectorIN30RuntimeInitializeOnLoadManager9ClassInfoE13stl_allocatorIS3_L18MemLabelIdentifier12ELi16EEEEE8TransferI24GenerateTypeTreeTransferEEvRS7_RT_
Y8d:_Array_swap_TisUIVertex_t1204258818_TisUIVertex_t1204258818_m1163375424_gshared
El:_emscripten_glViewport
usj:__ZN6il2cpp6icalls8mscorlib6System15MonoCustomAttrs17IsDefinedInternalEP12Il2CppObjectP20Il2CppReflectionType
jvb:__ZN4Mesh21UnswizzleVertexColorsEb
M9:__ZN30dense_hashtable_const_iteratorINSt3__24pairIKN4core12basic_stringIcNS2_20StringStorageDefaultIcEEEEP11AssetBundleEES6_20StringHash32FunctionIS6_EN14dense_hash_mapIS6_S9_SC_NS0_8equal_toIS6_EENS0_9allocatorISA_EEE9SelectKeyESF_SH_EppEv
jkf:_TlsServerSettings_set_CertificateTypes_m264196087
hsh:_InternalEnumerator_1__ctor_m4150855019_gshared
Vwd:_DateTime_ToString_m2276663647_AdjustorThunk
xKc:_cff_parse_font_bbox
Zac:__Z35Application_Get_Custom_PropIsEditorv
mB:__GLOBAL__sub_I_runtime_animation2_lump_cpp
hzb:__ZN14PlayerSettings23VirtualRedirectTransferER18StreamedBinaryReadILb0EE
a_i:_KeyValuePair_2__ctor_m3201181706_AdjustorThunk
SAj:__ZN6il2cpp2os5Event5ResetEv
_Ae:_ReadOnlyCollection_1_System_Collections_IList_Insert_m1130110335_gshared
Gfi:_AnimatorControllerPlayable_GetCurrentAnimatorClipInfoCount_m335090574
Vjj:__ZN6il2cpp8metadata15GenericMetadata17InflateParametersEPK13ParameterInfohPK20Il2CppGenericContextb
xQe:_Int64_System_IConvertible_ToUInt32_m850395426_AdjustorThunk
W1:__ZN18AwakeFromLoadQueue28InvokePersistentManagerAwakeEPNS_4ItemEj17AwakeFromLoadMode
UYf:__ZL93MonoBehaviour_t1158329972_CustomAttributesCacheGenerator_MonoBehaviour_IsInvoking_m1469271462P21CustomAttributesCache
J6h:_PCMReaderCallback_Invoke_m3610389815
b$c:_HMACSHA512__ctor_m2390736870
Iu:__ZNK17AnimationPlayable27GetNextCompatibleDescendantEi
gs:__ZN8Animator20ProcessAnimationsJobEPNS_11AnimatorJobEj
zxb:__ZN4PPtrI6SpriteE8TransferI18StreamedBinaryReadILb0EEEEvRT_
QHg:_TypeBuilder_GetInterfaces_m1818658502
iKe:_NumberFormatter_AppendIntegerString_m868842252
jbf:_BigInteger_op_Equality_m2683055762
Iaa:__Z25SetNeedToPerformRenderingb
WNg:_MonoMethod_GetPseudoCustomAttributes_m466965107
rri:__ZN21InterfaceFuncInvoker0IP19LinkRef_t2090853131E6InvokeEjP11Il2CppClassP12Il2CppObject
tZa:__ZNSt3__227__insertion_sort_incompleteIR23CompareReflectionProbesP31RuntimeReflectionProbeBlendInfoEEbT0_S5_T_
QVa:__ZN14qsort_internal30FindAndMovePivotToLastPositionIP15RODataDepthPassi17ROSorterDepthPassEEvT_S4_T0_T1_
ikc:__ZN20UnityWebRequestProtoI19TransportJavaScript16AtomicRefCounter14RedirectHelper14ResponseHelper15DownloadHandler13UploadHandler12HeaderHelper14AsyncOperationE35Task_FinalizeAfterDHCompleteContentEPv
$1g:_ResourceRequest_t2560315377_marshal_pinvoke
HCh:_Enumerator_System_Collections_IDictionaryEnumerator_get_Value_m3005608231_gshared
yPi:__ZL24UnresolvedVirtualCall_26P12Il2CppObjectS0_iiPK10MethodInfo
X2g:_MaskUtilities_NotifyStencilStateChanged_m1527407683
P1a:__ZN12CullingGroup10SendEventsEPK17CullingGroupEventj
T4e:_DSAManaged_GenerateKeyPair_m2711647034
P7a:__ZN13sorted_vectorINSt3__24pairIN4core12basic_stringIcNS2_20StringStorageDefaultIcEEEES6_EEN10vector_mapIS6_S6_27compare_tstring_insensitiveIS6_E13stl_allocatorIS7_L18MemLabelIdentifier37ELi16EEE13value_compareESD_E9erase_oneIS6_EEjRKT_
Wrb:__ZThn32_NK8Renderer8GetLayerEv
m3d:_Array_InternalArray__ICollection_Add_TisResourceCacheItem_t333236149_m1151081240_gshared
NEe:_ReadOnlyCollection_1_System_Collections_Generic_ICollectionU3CTU3E_get_IsReadOnly_m2197226755_gshared
xtd:_Convert_ToInt32_m2209788057
vmj:__ZN30dense_hashtable_const_iteratorINSt3__24pairIK10KeyWrapperINS1_IPKcS4_EEEiEES6_24NamespaceAndNamePairHashN14dense_hash_mapIS6_iS9_NS6_14EqualsComparerI26NamespaceAndNamePairEqualsEENS0_9allocatorIS8_EEE9SelectKeyESD_SF_E30advance_past_empty_and_deletedEv
Tkg:_SoapServices_GetXmlTypeForInteropType_m3821579913
$nh:_EqualityComparer_1_System_Collections_IEqualityComparer_Equals_m3601790950_gshared
p5f:__ZL117GUIStyle_t1799908754_CustomAttributesCacheGenerator_GUIStyle_INTERNAL_CALL_Internal_GetCursorPixelPosition_m562482816P21CustomAttributesCache
SOj:_emscripten_glTexParameterfv__wrapper
dsi:_CaptureAssertion_IsComplex_m1433259302
H3i:_il2cpp_method_get_param_count
YYb:__ZN10systeminfo19ISOToSystemLanguageERN4core12basic_stringIcNS0_20StringStorageDefaultIcEEEE
s9i:__ZNK15dense_hashtableINSt3__24pairIK10KeyWrapperINS1_IPK12PropertyInfoP11Il2CppClassEEEjEES9_17ReflectionMapHashIS8_EN14dense_hash_mapIS9_jSD_NS9_14EqualsComparerINS0_8equal_toIS8_EEEENS0_9allocatorISB_EEE9SelectKeyESI_SK_E3endEv
RSd:_HorizontalOrVerticalLayoutGroup_get_childForceExpandWidth_m227100883
jBj:__ZN6il2cpp8metadata26Il2CppGenericMethodCompare6EqualsEPK19Il2CppGenericMethodS4_
Fca:__ZNSt3__26vectorIP10MemoryPool13stl_allocatorIS2_L18MemLabelIdentifier72ELi16EEE21__push_back_slow_pathIKS2_EEvRT_
LAi:_TouchScreenKeyboard_get_active_m1442597648
hUf:__ZL68Uri_t19570940_CustomAttributesCacheGenerator_U3CU3Ef__switchU24map15P21CustomAttributesCache
PGc:_ps_dimension_done
ZKd:_LayoutRebuilder_MarkLayoutForRebuild_m640589351
ZMc:__Z46Register_UnityEngine_TextGenerator_Dispose_cppv
GId:_PointerEventData_get_pressEventCamera_m724559964
a5c:_String_IndexOfUnchecked_m3356721554
Jqb:__ZN16LightmapSettings8TransferI14SafeBinaryReadEEvRT_
zCa:__ZN17BufferManagerGLES13ReleaseBufferEP14DataBufferGLES
OGh:__Z94RuntimeInvoker_Int32_t2071877448_Il2CppObject_Int32_t2071877448_Int32_t2071877448_Il2CppObjectPK10MethodInfoPvPS2_
buc:__Z18Transfer_BlittableI8JSONReadLb1EjEvRK29SerializationCommandArgumentsR31RuntimeSerializationCommandInfo
Rdg:__ZL63ScrollRect_t1199013257_CustomAttributesCacheGenerator_m_InertiaP21CustomAttributesCache
lvi:_PKCS12_Decrypt_m1557069392
Qah:_VertexHelper_AddUIVertexQuad_m280792808
_rf:_WebHeaderCollection_ToString_m1246460752
wsh:_InternalEnumerator_1_System_Collections_IEnumerator_get_Current_m2842514953_AdjustorThunk
phi:_Font_get_fontSize_m1732593415
$o:stackSave
Gxi:_X509CrlEntry_get_Extensions_m79989256
jHc:_ps_dimension_end
zfc:__Z41Register_UnityEngine_Mesh_Internal_Createv
Hab:__ZN16MemoryFileSystem5TouchER13FileEntryData
Tjj:__ZNK15dense_hashtableI10KeyWrapperIP18Il2CppGenericClassES3_N6il2cpp8metadata22Il2CppGenericClassHashEN14dense_hash_setIS3_S6_NS3_14EqualsComparerINS5_25Il2CppGenericClassCompareEEENSt3__29allocatorIS3_EEE8IdentityESA_SD_E12test_deletedERK30dense_hashtable_const_iteratorIS3_S3_S6_SF_SA_SD_E
nOi:__ZN6il2cpp2vm5Class14GetNestedTypesEP11Il2CppClassPPv
s$c:_MACTripleDES_Initialize_m1318099802
Ydf:_MD5SHA1_VerifySignature_m507888141
Xgd:_Byte_System_IConvertible_ToChar_m4188836679
KKe:_NumberFormatter_InitDecHexDigits_m2036076025
kch:_Enumerator_get_CurrentKey_m3839846791_AdjustorThunk
Ouc:__ZN8JSONRead21TransferSTLStyleArrayI13dynamic_arrayIaLj1EEEEvRT_18MemLabelIdentifier17TransferMetaFlags
R3a:__ZN6Camera9SetAspectEf
NZc:__ZN19TransportJavaScript9DoRequestERKN4core12basic_stringIcNS0_20StringStorageDefaultIcEEEEm21UnityWebRequestMethodS6_bbP12HeaderHelperP13UploadHandlerP15DownloadHandlerP14ResponseHelperP15UnityWebRequest
ENd:_ColorTween_get_ignoreTimeScale_m641454126_AdjustorThunk
wa:invoke_viiffiii
hBe:_ReadOnlyCollection_1_Contains_m1800950533_gshared
Eag:__ZL79TouchInputModule_t2561058385_CustomAttributesCacheGenerator_m_ForceModuleActiveP21CustomAttributesCache
iQj:_emscripten_glBindVertexArray__wrapper
Adf:_MD4__ctor_m2366413460
mbi:_Display__ctor_m563295973
v5f:__ZL97GUIStyle_t1799908754_CustomAttributesCacheGenerator_GUIStyle_Internal_CalcMinMaxWidth_m3660306863P21CustomAttributesCache
Khh:_Dictionary_2_InitArrays_m435313205_gshared
CF:__ZN10ObjectPoolIN4FMOD3DSPENS0_4DSPIEE7GetFreeEi
M4a:__ZN9Transform37InitializeTransformHierarchyRecursiveER18TransformHierarchyRii
H$b:__Z34DefaultPrepareDispatchBoundsUpdateR13RendererScene18MemLabelIdentifier
OQd:_Graphic_get_useLegacyMeshGeneration_m1366444625
Acg:__ZL65InputField_t1631627530_CustomAttributesCacheGenerator_m_InputTypeP21CustomAttributesCache
wQi:__ZL24UnresolvedVirtualCall_78P12Il2CppObjectPK10MethodInfo
g3e:_ModulusRing_Pow_m1137250399
Fyh:_InternalEnumerator_1_MoveNext_m2410670600_AdjustorThunk
kuf:_X509Chain_Build_m2341271288
NRa:__ZN17MeshRenderingData4InitEP4MeshS1_iP15SharedGfxBufferS3_
dHi:_InvokableCall_2_Find_m1763382885_gshared
SDe:_ReadOnlyCollection_1_System_Collections_ICollection_get_SyncRoot_m2779904122_gshared
mmh:_EqualityComparer_1_System_Collections_IEqualityComparer_Equals_m1682986002_gshared
End:_Hashtable__cctor_m2952659675
lwf:_X509ChainStatus__ctor_m3628359961_AdjustorThunk
G6d:_Array_InternalArray__set_Item_TisUICharInfo_t3056636800_m1953167516_gshared
q5c:_Evidence_get_HostEvidenceList_m2095478124
Fic:__Z57Register_UnityEngine_Transform_INTERNAL_set_localPositionv
bhf:_Context_Clear_m4000337070
fxa:__ZN13GfxDeviceGLES26SetRandomWriteTargetBufferEi15ComputeBufferID
Xyf:_IntervalCollection_Normalize_m538796191
eqd:_Console_SetEncodings_m342145566
VAi:_TrackedReference_op_Equality_m3491334086
FQd:_FontUpdateTracker_UntrackText_m3827316510
qeb:__ZN18AssetBundleManager19RegisterAssetBundleEP11AssetBundle
u8i:__ZN6il2cpp2gc19AppendOnlyGCHashMapINSt3__24pairIPK11Il2CppImageP11Il2CppClassEEP22Il2CppReflectionModule17ReflectionMapHashIS9_ENS2_8equal_toIS9_EEE10CopyValuesEPv
Sae:_Array_InternalArray__get_Item_TisSingle_t2076509932_m1495809753_gshared
y6d:_Array_InternalArray__set_Item_TisAnimatorClipInfo_t3905751349_m978873279_gshared
j8b:__ZNK11ICallString6ToUTF8Ev
bsi:_CaptureAssertion_get_Alternate_m2729005740
Rtj:_GC_number_stack_black_listed
fjj:__ZN24dense_hashtable_iteratorINSt3__24pairIK10KeyWrapperIP14Il2CppIUnknownEjEES5_N6il2cpp5utils11PointerHashIS3_EEN14dense_hash_mapIS5_jSB_NS5_14EqualsComparerINS0_8equal_toIS4_EEEENS0_9allocatorIS7_EEE9SelectKeyESG_SI_E30advance_past_empty_and_deletedEv
RVa:__ZNSt3__211__sift_downIR17ROSorterDepthPassP15RODataDepthPassEEvT0_S5_T_NS_15iterator_traitsIS5_E15difference_typeES5_
DEg:_Default_SelectMethod_m3081239996
jha:__ZN18UnityPropertySheet11UnityTexEnvC2Ev
iac:__ZNSt3__214__split_bufferIPN9BlobWrite11TypeContextENS_9allocatorIS3_EEE10push_frontERKS3_
ss:__ZN8Animator17ApplyOnAnimatorIKEiRNS_11AnimatorJobE
$4:__ZN12FileAccessor4ReadEyyPvPy
Lfa:__ZN13dynamic_arrayI16ShaderKeywordSetLj4EE6insertEPS0_PKS0_S4_
CRb:__Z29Transfer_Blittable_ArrayFieldI18StreamedBinaryReadILb0EE11QuaternionfEvRT_R9ArrayInfoRK23StaticTransferFieldInfo
fhg:_MethodDictionary_IsOverridenKey_m3922224650
Tod:_SyncHashtable_Contains_m3042906549
tqe:_List_1_System_Collections_IList_set_Item_m4016273526_gshared
Cwf:_X509KeyUsageExtension_CopyFrom_m931530012
q3a:__ZN13RenderTexture9SetHeightEi
lnb:__ZN16LevelGameManager8TransferI24GenerateTypeTreeTransferEEvRT_
Q9h:_Color32__ctor_m1932627809_AdjustorThunk
dRc:__Z36CanvasRenderer_CUSTOM_SetPopMaterialP12Il2CppObjectS0_i
L4g:_RectMask2D_PerformClipping_m1232012832
Uhj:__ZN6il2cpp6icalls8mscorlib6System2IO6MonoIO17GetFileAttributesEP12Il2CppStringPi
Tch:_Transform_1_Invoke_m4020530914_gshared
vFc:_tt_cmap8_char_index
F_:__Z24scripting_class_get_name17ScriptingClassPtr
U6:__ZN13RuntimeStaticI15GUIEventManagerLb0EE13StaticDestroyEPv
pEa:__ZN7ApiGLES14TextureSamplerEjj17TextureFilterMode15TextureWrapModeifb18ShadowSamplingModeN2gl17TextureSrgbDecodeE
Y4b:__ZN15DirectorManager18ScheduleGraphStartERK14HPlayableGraph
R3h:_CustomEventData_AddUInt16_m3349298376
wHb:__Z29Transfer_Blittable_ArrayFieldI14SafeBinaryReadjEvRT_R9ArrayInfoRK23StaticTransferFieldInfo
a8h:_Camera_FireOnPostRender_m94860165
RBb:__ZN23PreloadManagerOperationD0Ev
ge:_emscripten_set_keydown_callback
ood:_Enumerator_get_Value_m3684748062
xib:__ZN19StreamedBinaryWriteILb0EE21TransferSTLStyleArrayINSt3__26vectorI17SortingLayerEntryNS2_9allocatorIS4_EEEEEEvRT_17TransferMetaFlags
yzg:_UInt32_Parse_m3371984903
h5:__ZN12FileAccessorC2Ev
AUh:__Z52RuntimeInvoker_Void_t1841601450_ColorU26_t3402129837PK10MethodInfoPvPS2_
Qwi:_X509CertificateCollection_Compare_m1014334435
L5a:__ZN9Transform35SetLocalPositionWithoutNotificationERKN4math7_float3E
Rpi:_PatternLinkStack_GetCurrent_m2994645935
$He:_Comparison_1__ctor_m2929820459_gshared
wgi:_AnimatorControllerPlayable_PlayInFixedTime_m2629510873
bni:_AsyncResult__ctor_m1183194429
jB:__ZN4PPtrI13MonoBehaviourE8TransferI18StreamedBinaryReadILb0EEEEvRT_
hhg:_MethodDictionary_set_Item_m3475146889
p$h:__Z54RuntimeInvoker_Void_t1841601450_LabelFixup_t4090909514PK10MethodInfoPvPS2_
LKf:__ZL62WellKnownObjectMode_t2630225581_CustomAttributesCacheGeneratorP21CustomAttributesCache
ebh:_Toggle_PlayEffect_m3950629415
__d:_SetPropertyUtility_SetStruct_TisColorBlock_t2652774230_m2085520896_gshared
oZh:__Z69RuntimeInvoker_Void_t1841601450_Int32_t2071877448_Vector3_t2243707580PK10MethodInfoPvPS2_
PEb:__Z39WriteQueueForTransferSignatureIntoCacheRK31TransferFunctionScriptingTraitsRK24TransferRequestSignature17ScriptingClassPtrR23CachedSerializationDataRb
Jna:__ZN13RenderManager18UpdateAllRenderersEv
uUc:__ZN22BaseUnityConnectClient30OnEnteringStatePausedOrStoppedEv
aye:_Collection_1_System_Collections_ICollection_get_SyncRoot_m2157752542_gshared
RWi:__ZN13dynamic_arrayIPK10Il2CppTypeLj4EE6assignEPKS2_S5_
b9i:__ZN15dense_hashtableINSt3__24pairIK10KeyWrapperINS1_IPK12PropertyInfoP11Il2CppClassEEEjEES9_17ReflectionMapHashIS8_EN14dense_hash_mapIS9_jSD_NS9_14EqualsComparerINS0_8equal_toIS8_EEEENS0_9allocatorISB_EEE9SelectKeyESI_SK_E12resize_deltaEjj
Hx:__ZN7mecanim5human12HumanPoseAddERNS0_9HumanPoseERKS1_S4_
J$h:__Z76RuntimeInvoker_Void_t1841601450_Int32_t2071877448_KeyValuePair_2_t3716250094PK10MethodInfoPvPS2_
sHi:_UnityAction_1__ctor_m2836997866_gshared
j5h:_Animator_ResetTrigger_m865269317
XOf:__ZL64AssemblyLoadEventArgs_t4233815743_CustomAttributesCacheGeneratorP21CustomAttributesCache
exe:_Collection_1_IsFixedSize_m218241296_gshared
G5a:__Z24MergeTransformComponentsR9TransformS0_b
W6h:_DelegatePInvokeWrapper_AudioConfigurationChangeHandler_t3743753033
xVe:_MonoIO_get_PathSeparator_m2635828107
clg:_TypeInfo_get_TypeName_m1722081275
ryh:_InternalEnumerator_1_get_Current_m889125315_gshared
F_e:_MonoType_get_Name_m865859211
iEd:_CultureInfo__cctor_m2290268677
Qoh:_ArrayReadOnlyList_1_System_Collections_IEnumerable_GetEnumerator_m3039869667_gshared
N8c:_String_Trim_m3982520224
$jg:_RemotingConfiguration__cctor_m2129988840
vve:_Collection_1_Insert_m44548038_gshared
Zyh:_InternalEnumerator_1_MoveNext_m4175772187_AdjustorThunk
ABf:__ZL42Il2CppArray_CustomAttributesCacheGeneratorP21CustomAttributesCache
wsj:__ZN6il2cpp2vm13ComObjectBase19GetRuntimeClassNameEPP15Il2CppHString__
Oj:_emscripten_glVertexAttribPointer
Rla:__ZN14PreloadManager26UpdatePreloadingSingleStepENS_21UpdatePreloadingFlagsEi
NXg:_Material__ctor_m1440882780
X2c:_SHA512Managed_Initialize_m891287980
VTh:__Z82RuntimeInvoker_Boolean_t3825574718_Il2CppObject_TextGenerationSettings_t2543476768PK10MethodInfoPvPS2_
Qmb:__ZN26ProbeSetTetrahedralization8TransferI24GenerateTypeTreeTransferEEvRT_
E5c:_SecurityException__ctor_m1484114982
Hki:_SinkProviderData_get_Children_m100594762
vxi:_X509Crl_GetHashName_m183504634
Kdd:_Array_GetValue_m1507415734
Pgc:__Z57Register_UnityEngine_RectTransform_INTERNAL_set_anchorMinv
yJe:_Object_MemberwiseClone_m2655589444
lCe:_ReadOnlyCollection_1_System_Collections_IList_get_Item_m375043207_gshared
nja:__ZN6prcoreL25inner_stretch_i8_bilinearEPKNS_9InnerInfoE
jS:__ZN11UnityEngine15CloudWebService13WWWRestClient17GetResponseStatusEv
ZSe:_DirectoryInfo_ToString_m4208086799
dOg:_MonoMethod_get_IsGenericMethod_m4276550811
edh:_Transform_1_BeginInvoke_m3826027984_gshared
Y4h:_AnimationEvent_set_time_m2162176572
hR:__ZN11UnityEngine15CloudWebService16SessionContainer24GetSessionHeaderJsonDataERKN4core12basic_stringIcNS2_20StringStorageDefaultIcEEEERNS2_13StringBuilderE
zsd:_Decimal_op_Implicit_m2149927308
H6:__ZN13RuntimeStaticI21AssetReferenceStorageLb0EE13StaticDestroyEPv
Foj:__ZN6il2cpp6icalls8mscorlib6System9AppDomain22InternalGetProcessGuidEP12Il2CppString
eIc:_cf2_builder_moveTo
p5e:_KeyPairPersistence_get_UseMachineKeyStore_m560802076
Ore:_Collection_1_CopyTo_m1840908033_gshared
BBh:_Enumerator_System_Collections_IDictionaryEnumerator_get_Entry_m345330700_AdjustorThunk
T0i:__ZNSt3__214__split_bufferIP9FieldInfoRNS_9allocatorIS2_EEEC2EjjS5_
OEd:_AbstractEventData__ctor_m3586111519
$Kb:__Z18Transfer_BlittableI24GenerateTypeTreeTransferLb1EjEvRK29SerializationCommandArgumentsR31RuntimeSerializationCommandInfo
vdf:_MD2Managed_Padding_m410163267
Q8i:__ZNK15dense_hashtableINSt3__24pairIK10KeyWrapperINS1_IPK11Il2CppImageP11Il2CppClassEEEjEES9_17ReflectionMapHashIS8_EN14dense_hash_mapIS9_jSD_NS9_14EqualsComparerINS0_8equal_toIS8_EEEENS0_9allocatorISB_EEE9SelectKeyESI_SK_E10test_emptyERK30dense_hashtable_const_iteratorISB_S9_SD_SM_SI_SK_E
zbh:_Toggle_UnityEngine_UI_ICanvasElement_get_transform_m4177274032
dlb:__ZN11ColorRGBA328TransferI14SafeBinaryReadEEvRT_
FCb:__ZN24RingBufferMemoryFileData4LockEPPv
UCh:_Enumerator_Dispose_m401572848_AdjustorThunk
h7h:_Bounds__ctor_m1202659404_AdjustorThunk
Lf:_emscripten_glClearDepth
cob:__ZN8Playable12SetPlayStateE9PlayState
k2h:__Z70RuntimeInvoker_Boolean_t3825574718_Il2CppObject_BooleanU26_t3168250738PK10MethodInfoPvPS2_
Wsb:__ZN14SafeBinaryRead21TransferSTLStyleArrayINSt3__26vectorIN15QualitySettings14QualitySettingENS1_9allocatorIS4_EEEEEEvRT_17TransferMetaFlags
$8d:_Array_swap_TisVector2_t2243707579_m3359959735_gshared
mTe:_File_OpenText_m4058508963
Yya:__ZN7ApiGLES13CreateTextureEjN2gl9TexFormatEiiiii
KQh:__Z54RuntimeInvoker_Double_t4078015681_Interval_t2354235237PK10MethodInfoPvPS2_
jXf:__ZL101QualitySettings_t3238033062_CustomAttributesCacheGenerator_QualitySettings_set_vSyncCount_m1045847619P21CustomAttributesCache
Uyb:__ZNSt3__26vectorINS_4pairIPKN5Unity4TypeE7Hash128EENS_9allocatorIS7_EEE8__appendEj
dlg:_WellKnownClientTypeEntry__ctor_m670594074
Nbg:__ZL61FontData_t2614388407_CustomAttributesCacheGenerator_m_MinSizeP21CustomAttributesCache
udj:__ZN15dense_hashtableINSt3__24pairIK10KeyWrapperIP11Il2CppClassES4_EES5_N6il2cpp8metadata16SZArrayClassHashEN14dense_hash_mapIS5_S4_SA_NS5_14EqualsComparerINS9_19SZArrayClassCompareEEENS0_9allocatorIS7_EEE9SelectKeyESE_SG_EC2ERKSJ_j
Rvd:_DateTime_System_IConvertible_ToSingle_m3927769066_AdjustorThunk
JJc:_cff_font_load
IBi:_Enumerator_Reset_m950879083
alf:_RecordProtocol_SendRecord_m2977889250
Pac:__Z13IsPathCreatedRKN4core12basic_stringIcNS_20StringStorageDefaultIcEEEE
rpa:__ZL22stbir__encode_scanlineP11stbir__infoiPvPfiii
Xxc:__ZN20QuadTreeNodeRenderer13StaticDestroyEPv
uN:__ZN14AudioBehaviourD2Ev
x_d:_Array_InternalArray__ICollection_Remove_TisUInt32_t2149682021_m4198326168_gshared
t$b:__ZN9Transform12CleanupClassEv
qxj:__ZN6il2cpp6icalls8mscorlib6System9Threading16NativeEventCalls19CloseEvent_internalE12Il2CppIntPtr
Et:__ZN11UnityEngine9Animation33SetGenericTransformPropertyValuesERKNS0_30AnimatorGenericBindingConstantERKN7mecanim10ValueArrayEP9Transformb
$gf:_ClientContext_set_ClientHelloProtocol_m2246603449
sBc:_UNITY_FT_Set_Pixel_Sizes
bXd:_U3CMouseDragOutsideRectU3Ec__Iterator1_MoveNext_m2845491958
vUb:__ZNSt3__26vectorIN9ShaderLab19SerializedSubShaderENS_9allocatorIS2_EEE26__swap_out_circular_bufferERNS_14__split_bufferIS2_RS4_EE
NTh:__Z87RuntimeInvoker_Void_t1841601450_PlayableHandleU26_t3483893774_QuaternionU26_t4187826802PK10MethodInfoPvPS2_
N8d:_Array_swap_TisAnimatorClipInfo_t3905751349_TisAnimatorClipInfo_t3905751349_m1375833338_gshared
W1i:_AnalyticsTracker_TriggerEvent_m1494303835
QJd:_StandaloneInputModule_IsModuleSupported_m623598506
yej:__ZN6il2cpp2vmL24thread_cleanup_on_cancelEPv
AIh:__Z31RuntimeInvoker_Byte_t3683104436PK10MethodInfoPvPS2_
Fhi:_ResourceReader_Close_m3256966401
hpg:_SByte_ToString_m4105923225_AdjustorThunk
_gb:_LZ4_compress_generic
hng:_StreamingContext_t1417235061_marshal_pinvoke_cleanup
mEd:_CultureInfo_ConstructCurrentUICulture_m3363349599
Ptb:__ZN13dynamic_arrayI7SubMeshLj4EE18resize_initializedEjRKS0_12ResizePolicy
afg:__ZL75CanvasScaler_t2574720772_CustomAttributesCacheGenerator_m_FallbackScreenDPIP21CustomAttributesCache
c_e:_MonoType_GetEvent_m4160342003
v4g:_RawImage_set_texture_m2400157626
rLi:_PrimeHelper_ToPrime_m1606935350_gshared
qlb:__Z30ProcessDynamicBatchGeometryJobP25DynamicVBOGeometryJobDataj
jmh:_EqualityComparer_1__ctor_m81618677_gshared
zWa:__ZNSt3__27__sort4IRNS_6__lessI11CulledLightS2_EEPS2_EEjT0_S6_S6_S6_T_
D4i:__ZN6il2cpp2vm14TypeNameParser26ParseArrayModifierOptionalEv
C0e:_MSCompatUnicodeTable_Level3_m260824928
DXd:_LayoutElement_OnEnable_m3478706401
WZ:__Z26scripting_object_get_class18ScriptingObjectPtr
b2h:__Z72RuntimeInvoker_DictionaryEntry_t3048875398_Il2CppObject_SByte_t454417549PK10MethodInfoPvPS2_
X_b:__ZNK28MonoBehaviourPropertyBinding15GenerateBindingERKN4core12basic_stringIcNS0_20StringStorageDefaultIcEEEEbRN11UnityEngine9Animation14GenericBindingE
KVg:_GUIStyle_CalcMinMaxWidth_m2027503105
OOe:_Int32_FindExponent_m3187554672
B5e:_KeyPairPersistence_Load_m1355205585
S6g:_ScrollRect_get_horizontalScrollbarVisibility_m4152068235
QPe:_Int32_ToString_m2960866144_AdjustorThunk
IFi:_Predicate_1_Invoke_m3539717340_gshared
KLi:_HashSet_1_Contains_m3626542335_gshared
J7c:_Single_CompareTo_m2081476257_AdjustorThunk
X_h:__Z57RuntimeInvoker_Int32_t2071877448_RaycastHit2D_t4063908774PK10MethodInfoPvPS2_
Uqj:__ZN6il2cpp6icalls8mscorlib6System11Environment15internalGetHomeEv
ucb:__ZNK5Unity9Component7GetNameEv
R0h:__Z49RuntimeInvoker_Slot_t2267560602_Int32_t2071877448PK10MethodInfoPvPS2_
w1i:__ZNSt3__214__split_bufferIN6il2cpp6icalls8mscorlib6System12PropertyPairERNS_9allocatorIS5_EEEC2EjjS8_
wy:__ZN34AnimationStateMachineMixerPlayable7GetTypeEv
Qmg:__ZN21InterfaceFuncInvoker4IP12Il2CppObjectS1_P28SerializationInfo_t22898743028StreamingContext_t1417235061S1_E6InvokeEjP11Il2CppClassS1_S1_S3_S4_S1_
hRf:__ZL58IFormatProvider_t2849799027_CustomAttributesCacheGeneratorP21CustomAttributesCache
ZZi:_ObjectPool_1_Get_m3724675538_gshared
j7a:__ZN13ScreenManagerD0Ev
NQa:_UNITY_png_set_error_fn
pt:__ZN7mecanim8skeleton26SkeletonPoseComputeGlobalQEPKNS0_8SkeletonEPKNS0_13SkeletonPoseTIN4math4trsXEEEPS7_ii
Nvc:__ZN8JSONRead21TransferSTLStyleArrayI13dynamic_arrayIfLj4EEEEvRT_18MemLabelIdentifier17TransferMetaFlags
_ke:_List_1_GetEnumerator_m2672519407_gshared
Qs:__ZN9BlobWrite8TransferI22OffsetPtrArrayTransferIiEEEvRT_PKc17TransferMetaFlags
n0e:_ContractionComparer_Compare_m314873025
wtj:__ZN6il2cpp6icalls8mscorlib6System7Runtime15InteropServices8GCHandle15GetTargetHandleEP12Il2CppObjectii
FJb:__Z18Transfer_BlittableI17RemapPPtrTransferLb1EjEvRK29SerializationCommandArgumentsR31RuntimeSerializationCommandInfo
wWg:_GUIUtility_EndGUIFromException_m2091524531
gQe:_Int64_System_IConvertible_ToDouble_m638786774
$J:__ZN4FMOD6System7releaseEv
sod:_HashKeys_get_IsSynchronized_m4207641174
AMb:__Z18Transfer_BlittableI19StreamedBinaryWriteILb0EELb1E8BitFieldEvRK29SerializationCommandArgumentsR31RuntimeSerializationCommandInfo
L4:__Z18PathToAbsolutePathRKN4core12basic_stringIcNS_20StringStorageDefaultIcEEEE
mce:_Enumerator_MoveNext_m3078170540_AdjustorThunk
z3c:_SymmetricAlgorithm_get_Padding_m718051685
Csb:__ZNK8Renderer26GetTypeInfoVirtualInternalEv
K9h:_Color_Lerp_m3323752807
tfc:__Z22Mesh_CUSTOM_HasChannelP12Il2CppObject30InternalScriptingShaderChannel
h5b:__ZN15DirectorManager17AcquireOutputNodeEv
YCb:__ZN10MonoScript23VirtualRedirectTransferER17RemapPPtrTransfer
Jw:__ZN8Playable11SetDurationEd
iPf:__ZL76Convert_t2607082565_CustomAttributesCacheGenerator_Convert_ToChar_m541258017P21CustomAttributesCache
oGa:__ZN16GeometryJobTasks20ScheduleGeometryJobsER9GfxDevicePFvP15GeometryJobDataEPK22GeometryJobInstructionjb
oVg:_GUIUtility_Internal_GetHotControl_m2510727642
aI:__ZN12AudioManager29ShutdownReinitializeAndReloadEv
Xui:_NetscapeCertTypeExtension_Decode_m2210025005
r1g:_RectTransform_GetLocalCorners_m1836626405
mlg:_BaseFixupRecord_DoFixup_m1821597450
oNi:__ZN15dense_hashtableINSt3__24pairIK10KeyWrapperIPK22Il2CppGenericParameterEP11Il2CppClassEES6_N6il2cpp5utils11PointerHashIS4_EEN14dense_hash_mapIS6_S9_SE_NS6_14EqualsComparerINS0_8equal_toIS5_EEEENS0_9allocatorISA_EEE9SelectKeyESJ_SL_E6insertERKSA_
qTe:_FileLoadException__ctor_m1356374414
egf:_TlsStream_Reset_m1504601050
hfe:__ZN23InterfaceActionInvoker2IP23Int32U5BU5D_t3030399641iE6InvokeEjP11Il2CppClassP12Il2CppObjectS1_i
Hza:__ZN14DataBufferGLES16RecreateWithDataEjPKv
nac:__Z29GetGlobalAllowNameConversionsv
E6a:__ZN8Material8SetColorEN9ShaderLab16FastPropertyNameERK10ColorRGBAf
nMg:_Module_GetCustomAttributes_m3581287913
VCf:__ZL67Type_t_CustomAttributesCacheGenerator_Type_IsSubclassOf_m2450899481P21CustomAttributesCache
UL:__ZN11AudioSource23VirtualRedirectTransferER18StreamedBinaryReadILb0EE
qd:___syscall91
M6:__ZN21AssetReferenceStorageC2Ev
bNb:__ZN10RectOffset8TransferI19StreamedBinaryWriteILb0EEEEvRT_
Cyc:__ZNSt3__26vectorIN4core12basic_stringIcNS1_20StringStorageDefaultIcEEEE13stl_allocatorIS5_L18MemLabelIdentifier34ELi16EEEC2INS_11__wrap_iterIPS5_EEEET_SE_RKS8_PNS_9enable_ifIXaasr21__is_forward_iteratorISE_EE5valuesr16is_constructibleIS5_NS_15iterator_traitsISE_E9referenceEEE5valueEvE4typeE
J_:__ZL41AssemblyNameMatchesWithOrWithoutExtensionPKcS0_
g6h:_AssemblyIsEditorAssembly__ctor_m2639706522
YDa:__ZN14GfxContextGLES43AddRenderSurfaceToDeferredFBOInvalidateListEPK17RenderSurfaceGLES
wfj:__ZN6il2cpp6icalls8mscorlib6System9Threading6Thread15Thread_internalEP12Il2CppThreadP14Il2CppDelegate
Vea:__ZN11NamedObject23VirtualRedirectTransferER14SafeBinaryRead
gBc:__ZNSt3__26vectorIN20TextRenderingPrivate8FontImpl13CharacterInfoE13stl_allocatorIS3_L18MemLabelIdentifier1ELi16EEE6insertENS_11__wrap_iterIPKS3_EERS9_
$la:__ZN23PreloadManagerOperation6IsDoneEv
AZf:__ZL102DataUtility_t4181890362_CustomAttributesCacheGenerator_DataUtility_INTERNAL_CALL_GetOuterUV_m121019172P21CustomAttributesCache
g0i:__ZN6il2cpp2vm7Runtime15InvokeWithThrowEPK10MethodInfoPvPS5_
g9e:_X509Certificate_get_RawData_m3000055075
UNi:__ZNSt3__26vectorIPK10Il2CppTypeNS_9allocatorIS3_EEE21__push_back_slow_pathIRKS3_EEvOT_
Q5b:__Z33GetHasChangedDeprecatedSystemMaskv
Xnj:__ZN6il2cpp5utils11StringUtils11Utf16ToUtf8ERKNSt3__212basic_stringIDsNS2_11char_traitsIDsEENS2_9allocatorIDsEEEE
FSe:_MonoIO_GetException_m2577367044
pCh:_Enumerator_VerifyState_m1165543189_AdjustorThunk
xwd:_DateTime_AddSeconds_m722082155_AdjustorThunk
Fld:_SynchronizedArrayListWrapper_CopyTo_m956887031
vXi:__ZNSt3__213__lower_boundIRN6il2cpp5utils11collections13ArrayValueMapIPK10Il2CppType17Il2CppInteropData26InteropDataToTypeConverterNS1_8metadata14Il2CppTypeLessENSA_26Il2CppTypeEqualityComparerEE22LowerBoundFindComparerEPKS8_S7_EET0_SI_SI_RKT1_T_
dAh:_Comparer_1__ctor_m1202126643_gshared
T_f:__ZL92Transform_t3275118058_CustomAttributesCacheGenerator_Transform_get_parentInternal_m927919099P21CustomAttributesCache
vqa:__ZN21LightProbeProxyVolume18HasHardwareSupportEv
ija:__ZN6prcoreL31inner_stretch_argb8888_bilinearEPKNS_9InnerInfoE
gOb:__Z18Transfer_BlittableI18StreamedBinaryReadILb1EELb1E8BitFieldEvRK29SerializationCommandArgumentsR31RuntimeSerializationCommandInfo
LDc:_UNITY_FT_Outline_Decompose
ljf:_TlsClientCertificate_get_ClientCertificate_m3062440489
g5c:_StrongNamePublicKeyBlob_ToString_m3721281223
E7f:__ZL80UnityEvent_t408735097_CustomAttributesCacheGenerator_UnityEvent__ctor_m588741179P21CustomAttributesCache
Orh:_InternalEnumerator_1_get_Current_m198513457_AdjustorThunk
Kvh:_InternalEnumerator_1__ctor_m1240086835_AdjustorThunk
lUa:__Z20scripting_object_new17ScriptingClassPtr
ZR:__ZN11UnityEngine15CloudWebService10RestClientINS0_16WWWRestHeaderMapEED2Ev
Zcc:__Z31Display_CUSTOM_GetSystemExtImpl13Il2Cpp_IntPtrPiS0_
njc:__Z58Register_UnityEngine_Object_Internal_CloneSingleWithParentv
b7i:__ZN24dense_hashtable_iteratorINSt3__24pairIK10KeyWrapperINS1_IPK9FieldInfoP11Il2CppClassEEEjEES9_17ReflectionMapHashIS8_EN14dense_hash_mapIS9_jSD_NS9_14EqualsComparerINS0_8equal_toIS8_EEEENS0_9allocatorISB_EEE9SelectKeyESI_SK_E30advance_past_empty_and_deletedEv
hE:__Z75AnimatorControllerPlayable_CUSTOM_INTERNAL_CALL_GetAnimatorClipInfoInternalP12Il2CppObjectR9HPlayableihS0_
Jsc:__ZN9JSONWrite8TransferI13dynamic_arrayI8BitFieldLj4EEEEvRT_PKc17TransferMetaFlags
P_a:__ZN18ShadowMapJobHeaderD0Ev
UQd:_Graphic_OnRectTransformDimensionsChange_m1610753363
wud:_Convert_ToUInt16_m3265369225
P:Math_exp
JZe:_MonoEnumInfo_get_Cache_m3551569711
Co:FUNCTION_TABLE_iiifi
Qnj:__ZN6il2cpp2os5posix13PosixAutoLockD2Ev
MZd:_Array_InternalArray__ICollection_Contains_TisVector3_t2243707580_m3625701788_gshared
Esa:__ZNSt3__26vectorINS_4pairIyP17VertexDeclarationEENS_9allocatorIS4_EEE6insertENS_11__wrap_iterIPKS4_EERS9_
wmi:__ZN21InterfaceFuncInvoker0IP6Type_tE6InvokeEjP11Il2CppClassP12Il2CppObject
THc:_cff_get_advances
t4a:__ZN13MonoBehaviour9SetScriptERK4PPtrI10MonoScriptE18ScriptingObjectPtr
rDc:_UNITY_FT_Create_Class_sfnt_module_class
Rah:_Text_CalculateLayoutInputHorizontal_m1578553982
m_f:__ZL87Object_t1021602117_CustomAttributesCacheGenerator_Object_DestroyObject_m282495858____t1P21CustomAttributesCache
Mij:__ZNSt3__218uninitialized_copyIPNS_4pairIK10KeyWrapperIP14Il2CppIUnknownEjEES8_EET0_T_SA_S9_
hei:_AnimatorControllerPlayable_SetFloatString_m3937146789
Ryd:_Decimal_IsZero_m3557909184_AdjustorThunk
jjd:_Char_ToString_m1401375624
A$c:_MD5CryptoServiceProvider__cctor_m3309191799
HX:__ZNK10FileSystem16LastErrorMessageEv
Lkc:__ZN13ProduceHelperI18CrashReportManagerLb0EE7ProduceE18MemLabelIdentifier18ObjectCreationMode
Btj:__ZNK6il2cpp8metadata14Il2CppTypeLessclEPK10Il2CppTypeS4_
sNh:__Z51RuntimeInvoker_UInt32_t2149682021_Int16_t4041245914PK10MethodInfoPvPS2_
tyf:_InterpreterFactory_get_NamesMapping_m3186583301
Yki:_ConfigHandler_ReadCustomProviderData_m784203316
cYf:__ZL87Input_t1785128008_CustomAttributesCacheGenerator_Input_get_compositionString_m636835668P21CustomAttributesCache
Zde:_Enumerator_System_Collections_IEnumerator_Reset_m3052395060_gshared
zZc:__ZN22UnityWebRequestManager10InitializeEv
xue:_Collection_1_System_Collections_ICollection_get_SyncRoot_m1997144145_gshared
Ebf:_Kernel_DwordDivMod_m3728402123
xDb:__ZN13MonoBehaviour13AwakeFromLoadE17AwakeFromLoadMode
zQc:__ZZN2UI14CanvasRenderer15InitializeClassEvEN38FunctorImpl_810kCanvasHierarchyChanged4CallEPviR11MessageData
zJb:__ZL26Transfer_SimpleNativeClassI17RemapPPtrTransfer8GradientLb1EEvRK29SerializationCommandArgumentsR31RuntimeSerializationCommandInfo
c6b:__ZN12CachedWriter9InitWriteER15CacheWriterBase
K4b:__Z21UnsignedInt64ToStringy
atg:_UTF7Decoder__ctor_m549434986
k$g:_Quaternion_ToString_m2638853272
Uxh:_InternalEnumerator_1_get_Current_m1025321669_AdjustorThunk
e_g:_Object_t1021602117_marshal_pinvoke
Rfc:__Z36MonoBehaviour_CUSTOM_InvokeRepeatingP12Il2CppObjectP12Il2CppStringff
Qic:__Z66Register_UnityEngine_Transform_INTERNAL_CALL_InverseTransformPointv
kth:_InternalEnumerator_1_MoveNext_m2720582493_gshared
Fxi:_X509CrlEntry_get_RevocationDate_m1257876856
Exi:_X509Crl_VerifySignature_m1390212587
nxf:_Group__ctor_m4103922028
cRa:__ZN6Camera26ClearIntermediateRenderersEj
B$i:__ZNSt3__214__split_bufferI6pollfdRNS_9allocatorIS1_EEEC2EjjS4_
oQa:_UNITY_png_write_pCAL
TPj:_glLinkProgram__wrapper
Pja:__ZN6prcoreL12RemapGenericI17TexFormatARGB888815TexFormatBGR888EEvPKNS_9InnerInfoE
G$c:_MD5CryptoServiceProvider_ProcessFinalBlock_m1052610785
jE:__Z79AnimatorControllerPlayable_CUSTOM_INTERNAL_CALL_GetNextAnimatorClipInfoInternalR9HPlayablei
Vld:_BitArray_Set_m2878881714
LSi:__ZL25UnresolvedVirtualCall_201P12Il2CppObjectPK10MethodInfo
uye:_Collection_1_get_Item_m4215988522_gshared
wNe:_Guid_CompareTo_m2203922782_AdjustorThunk
h8g:_Selectable_get_colors_m3501193396
tjj:__ZN6il2cpp6icalls8mscorlib6System13Globalization11CultureInfo35construct_internal_locale_from_nameEP17Il2CppCultureInfoP12Il2CppString
aFh:__Z58RuntimeInvoker_Il2CppObject_Int32_t2071877448_Il2CppObjectPK10MethodInfoPvPS2_
lLb:__ZL22Transfer_ManagedObjectI24GenerateTypeTreeTransferLb1EEvRK29SerializationCommandArgumentsR31RuntimeSerializationCommandInfo
H_f:__ZL72SceneManager_t90660965_CustomAttributesCacheGenerator_activeSceneChangedP21CustomAttributesCache
nIf:__ZL55COMException_t1790481504_CustomAttributesCacheGeneratorP21CustomAttributesCache
Y3e:_ASN1_get_Count_m404940548
rmi:_ContextAttribute_Equals_m53324298
F8h:_Canvas_ForceUpdateCanvases_m2446828475
Xj:_emscripten_set_main_loop_timing
_cc:__Z34Display_CUSTOM_GetRenderingExtImpl13Il2Cpp_IntPtrPiS0_
RCg:_WeakReference_AllocateHandle_m1783929473
Cza:__ZN14DataBufferGLES12RecordRenderEv
Y5a:__ZN14ImageReference10FlipImageYEv
ibi:_DebugLogHandler_LogFormat_m177245518
gjb:__Z32TransferEnumWithNameForceIntSizeI14SafeBinaryRead13TargetEyeMaskEvRT_RT0_PKc17TransferMetaFlags
ymc:__Z14GetDefaultSkini
pEd:_CultureInfo_get_Name_m3316229893
nwd:_DateTime_get_Ticks_m310281298_AdjustorThunk
zF:__ZN4FMOD3DSP9setBypassEb
Bze:_Collection_1_System_Collections_IList_get_Item_m287847793_gshared
Xab:__Z19NormalizeWheelInputf
$wf:_CaptureCollection_CopyTo_m1982767892
e9a:__Z29StdTemplateConversionFunctionIsaEbPvR14SafeBinaryRead
UZd:_Array_InternalArray__ICollection_Remove_TisLink_t865133271_m1984184141_gshared
Ovc:__Z29Transfer_Blittable_ArrayFieldI8JSONReadhEvRT_R9ArrayInfoRK23StaticTransferFieldInfo
kYd:_LayoutRebuilder_IsDestroyed_m3442208294
m8b:__ZN11MonoManager25GetImageFromAssemblyIndexEi
CAj:__ZN6il2cpp2os20ThreadLocalValueImpl8SetValueEPv
ARa:__ZN22RenderingCommandBuffer20CleanupCommandBufferEv
YNa:__ZZ23InitPlayerLoopCallbacksvEN43PostLateUpdateClearImmediateRenderersstruct7ForwardEv
src:__Z18Transfer_BlittableI9JSONWriteLb1EtEvRK29SerializationCommandArgumentsR31RuntimeSerializationCommandInfo
rTe:_FileLoadException__ctor_m918124939
nk:___syscall85
sTa:__ZNSt3__26__sortIRPFbP10GUIElementS2_EPS2_EEvT0_S7_T_
lcf:_SequentialSearchPrimeGeneratorBase_GenerateSearchBase_m2930465198
v3b:__ZN16GraphicsSettings12CleanupClassEv
SL:__ZNK11AudioSource26GetTypeInfoVirtualInternalEv
JNi:__ZN6il2cpp2vmL21SetupInterfacesLockedEP11Il2CppClassRKNS_2os12FastAutoLockE
rFb:__ZN11MonoManager23VirtualRedirectTransferER24GenerateTypeTreeTransfer
gnb:__ZN19StreamedBinaryWriteILb0EE8TransferI13dynamic_arrayI8Vector3fLj4EEEEvRT_PKc17TransferMetaFlags
iA:__ZN23AnimationPlayableOutput17SetSourcePlayableEP8Playable
Pwf:_Capture__ctor_m885749277
NUg:_GUIStyle_set_clipOffset_m3871613343
cUd:_SubmitEvent__ctor_m222860306
Ui:_emscripten_glUniformMatrix4fv
dR:__ZN11UnityEngine15CloudWebService14DataDispatcher15SetupWebRequestEv
QLh:__Z94RuntimeInvoker_Int32_t2071877448_Il2CppObject_Int32_t2071877448_Il2CppObject_Int32_t2071877448PK10MethodInfoPvPS2_
BXe:_TextWriter__cctor_m4047845042
xlf:_ReceiveRecordAsyncResult_get_Record_m1336421357
nVc:__ZN11UnityEngine15PlatformWrapper13GetShaderCapsEv
U$a:__ZNSt3__211__sift_downIR26RenderDeferredObjectSorterP16RenderObjectDataEEvT0_S5_T_NS_15iterator_traitsIS5_E15difference_typeES5_
fPf:__ZL76Convert_t2607082565_CustomAttributesCacheGenerator_Convert_ToByte_m509311047P21CustomAttributesCache
wUd:_InputField_CaretBlink_m3960486606
Zj:_emscripten_glGetProgramiv
$5e:_SmallXmlParser_ReadCharacters_m1966365555
gnf:_InternalAsyncResult_get_CompletedWithError_m3993955322
e4b:__ZN21FixedBehaviourManager6UpdateEv
Cac:__ZN9Transform9SetParentEPS_NS_15SetParentOptionE
ECe:_ReadOnlyCollection_1_System_Collections_IList_Add_m527174473_gshared
a0:__ZN19ShaderPropertySheet8SetFloatEN9ShaderLab16FastPropertyNameEfNS_8SetFlagsE
Bcg:__ZL68InputField_t1631627530_CustomAttributesCacheGenerator_m_AsteriskCharP21CustomAttributesCache
lna:__ZN19RuntimeSceneManager24BeginIntegrateMainThreadEP10UnityScene
fRh:__Z42RuntimeInvoker_RuntimePlatform_t1869584967PK10MethodInfoPvPS2_
pPh:__Z80RuntimeInvoker_Void_t1841601450_Il2CppObject_Int32_t2071877448_Int16_t4041245914PK10MethodInfoPvPS2_
mqj:__ZNSt3__2plIcNS_11char_traitsIcEENS_9allocatorIcEEEENS_12basic_stringIT_T0_T1_EERKS9_S6_
iKh:__Z53RuntimeInvoker_MonoEventInfo_t2190036573_Il2CppObjectPK10MethodInfoPvPS2_
sYe:_LocalDataStoreSlot__cctor_m1192669356
bUb:__ZN9ShaderLab20SerializedSubProgramaSERKS0_
xGj:_roundf
yad:_String_CreateString_m2556700934
vib:__ZN18StreamedBinaryReadILb0EE21TransferSTLStyleArrayINSt3__26vectorI17SortingLayerEntryNS2_9allocatorIS4_EEEEEEvRT_17TransferMetaFlags
n8g:_Selectable_get_targetGraphic_m137842753
Rr:__ZN8Animator15SetPrepareStageEv
C9g:_Slider_get_axis_m162140813
cNg:_MonoEventInfo_t2190036573_marshal_pinvoke
KNi:__ZN6il2cpp2vmL24SetupTypeHierarchyLockedEP11Il2CppClassRKNS_2os12FastAutoLockE
cbb:__ZL11TextHandleriPK23EmscriptenKeyboardEventPv
dZa:__Z20CalculateLightMatrixRK15SharedLightDataP10Matrix4x4f
_7g:_ScrollRect_SetLayoutHorizontal_m3486408020
GAc:_destroy_face
$Ki:_GenericEqualityComparer_1_GetHashCode_m116190842_gshared
Mdi:_AnimationOffsetPlayable_INTERNAL_CALL_GetPosition_m602003518
gMj:_glBlendEquationSeparate__wrapper
txc:__ZN5physx19PxAllocatorCallbackD2Ev
eNa:__ZN24dense_hashtable_iteratorINSt3__24pairIKN4core12basic_stringIcNS2_20StringStorageDefaultIcEEEEP20ArchiveStorageReaderEES6_20StringHash32FunctionIS6_EN14dense_hash_mapIS6_S9_SC_NS0_8equal_toIS6_EE13stl_allocatorISA_L18MemLabelIdentifier54ELi16EEE9SelectKeyESF_SI_EC2EPK15dense_hashtableISA_S6_SC_SK_SF_SI_EPSA_SQ_b
Lxj:__ZN6il2cpp6icalls8mscorlib6System8Security12Cryptography24RNGCryptoServiceProvider13RngInitializeEP11Il2CppArray
uoe:_List_1_System_Collections_ICollection_get_IsSynchronized_m227393674_gshared
Rqf:_IPAddress__cctor_m3624830012
bM:__ZN20SoundChannelInstance7setMuteEb
Qnb:__ZN4PPtrI5LightE8TransferI19StreamedBinaryWriteILb0EEEEvRT_
O$f:__ZL115AnimatorStateInfo_t2577870592_CustomAttributesCacheGenerator_AnimatorStateInfo_t2577870592____nameHash_PropertyInfoP21CustomAttributesCache
Jsf:_AsnEncodedData_EnhancedKeyUsageExtension_m1452131166
bPb:__Z19TransferField_ArrayI18StreamedBinaryReadILb1EE27Converter_SimpleNativeClassI17AnimationCurveTplIfEEEvRK23StaticTransferFieldInfoR31RuntimeSerializationCommandInfoRT0_
uxf:_GroupCollection_get_IsSynchronized_m1100663675
kAa:__ZN18GfxFramebufferGLES22MakeCurrentFramebufferENS_7BuiltinE
Bxj:__ZN6il2cpp2vm12MarshalAlloc4FreeEPv
Vxf:_Interpreter_Close_m1500459069
mRi:__ZL25UnresolvedVirtualCall_122P12Il2CppObject32ScriptableRenderContext_t4271526S0_PK10MethodInfo
rk:_JS_SystemInfo_GetWidth
Opa:__ZN12CachedReader4ReadEPvj
b1f:__ZL113AnimatorControllerPlayable_t4078305555_CustomAttributesCacheGenerator_AnimatorControllerPlayable_Play_m3114724599P21CustomAttributesCache
nIc:_cf2_blues_init
Srh:_InternalEnumerator_1_System_Collections_IEnumerator_get_Current_m3600601141_gshared
l2c:_SHA1Internal_HashFinal_m3188468925
YCi:_Vector3_op_Inequality_m799191452
Qid:_Char_GetHashCode_m2343577184
vYa:__Z24CalculateLightShadowFadeRK6CamerafffR8Vector4f
z1:__ZN19RuntimeSceneManagerD2Ev
hSf:__ZL55HeaderHandler_t324204131_CustomAttributesCacheGeneratorP21CustomAttributesCache
cki:_ChannelData_get_CustomProperties_m1470957369
hja:__ZN6prcore17GetIntegerBlitterE13TextureFormatS0_N14ImageReference8BlitModeE
V7h:_Camera_INTERNAL_CALL_ScreenPointToRay_m2752248646
q8i:__ZN6il2cpp2gc19AppendOnlyGCHashMapINSt3__24pairIPK11Il2CppImageP11Il2CppClassEEP22Il2CppReflectionModule17ReflectionMapHashIS9_ENS2_8equal_toIS9_EEE11TryGetValueERKS9_PSB_
RCh:_Enumerator_VerifyState_m3173176371_AdjustorThunk
Vpf:_TypeConverterAttribute__cctor_m506796812
lcd:_Encoding_get_IsReadOnly_m3729101432
mac:__ZN9BlobWrite14ReduceCopyImplERK14ReduceCopyDataj
lCg:_ValueType_t3507792607_marshal_pinvoke_back
jAh:_Comparer_1_System_Collections_IComparer_Compare_m1790257529_gshared
M2h:__Z37RuntimeInvoker_Enumerator_t3220004478PK10MethodInfoPvPS2_
gMg:_MethodInfo_get_ContainsGenericParameters_m572340060
XKj:_glShaderSource__wrapper
EKa:__ZN25MultiBlocksMemoryFileData17AdjustBlocksCountEj
agj:__ZNSt3__214__split_bufferIN6il2cpp2vm22EmbeddedResourceRecordERNS_9allocatorIS3_EEED2Ev
ghf:_TlsClientHello__ctor_m1699671541
c2b:__ZZN12MeshRenderer15InitializeClassEvEN29FunctorImpl_134kDidModifyMesh4CallEPviR11MessageData
Lyc:__ZN13TextRendering4Font8TransferI24GenerateTypeTreeTransferEEvRT_
Mli:_Context_NotifyGlobalDynamicSinks_m2916447645
lNa:__ZN23ManagedAttributeManager15InitializeClassEv
Pcc:__Z27CullingGroup_CUSTOM_DisposeP12Il2CppObject
pfj:__ZN6il2cpp6icalls8mscorlib6SystemL23CheckWideningConversionEjjj
XRa:__ZN13ComputeShader15SetTextureParamEjRKN9ShaderLab16FastPropertyNameE9TextureID16TextureDimension
T8g:_Shadow_set_effectDistance_m1951993364
IRg:_GUILayoutEntry_ApplyStyleSettings_m371609721
Shh:_Dictionary_2_ContainsKey_m416495915_gshared
Vwe:_Collection_1_Remove_m1798559666_gshared
xm:_glStencilMask
Hpj:__ZN6il2cpp2os10ThreadImpl16GetCurrentThreadEv
And:_Hashtable__ctor_m2337481811
vCh:_Enumerator_System_Collections_IEnumerator_get_Current_m2010873149_gshared
POd:_Resources_t2975512894_marshal_pinvoke_cleanup
Z4h:_AnimationEvent_get_messageOptions_m3547411650
_Cf:__ZL88Type_t_CustomAttributesCacheGenerator_Type_MakeGenericType_m2765875033____typeArguments0P21CustomAttributesCache
Beg:__ZL74SpriteState_t1353336012_CustomAttributesCacheGenerator_m_HighlightedSpriteP21CustomAttributesCache
Ijg:_RealProxy__ctor_m2505535530
cvj:_GC_push_conditional_with_exclusions
iAg:_UInt32_System_IConvertible_ToUInt16_m2798641702_AdjustorThunk
Jlg:_BinaryFormatter_get_DefaultSurrogateSelector_m219714691
Px:__ZN21AnimationPosePlayableD0Ev
OZf:__ZL76Time_t31991979_CustomAttributesCacheGenerator_Time_get_deltaTime_m2233168104P21CustomAttributesCache
y7:__ZN15dense_hashtableINSt3__24pairIKiiEEi21InstanceIDHashFunctorN14dense_hash_mapIiiS4_NS0_8equal_toIiEE13stl_allocatorIS3_L18MemLabelIdentifier65ELi16EEE9SelectKeyES7_SA_E9copy_fromERKSD_j
zze:_Collection_1_System_Collections_IList_get_IsFixedSize_m3252091801_gshared
GZh:__Z57RuntimeInvoker_Boolean_t3825574718_LabelFixup_t4090909514PK10MethodInfoPvPS2_
_Nd:_FloatTween_get_ignoreTimeScale_m4161298485_AdjustorThunk
IOg:_MonoProperty_GetOptionalCustomModifiers_m3827844355
ADj:_strrchr
bli:__ZN21InterfaceFuncInvoker1IP8String_tS1_E6InvokeEjP11Il2CppClassP12Il2CppObjectS1_
i1e:_SimpleCollator_GetSortKey_m2188419329
tfg:__ZL56LayoutElement_t2808691390_CustomAttributesCacheGeneratorP21CustomAttributesCache
r5g:_Scrollbar_Set_m244028386
hjc:__Z27Object_CUSTOM_DestroyObjectP12Il2CppObjectf
Vnb:__ZN14RenderSettings27UpdateIndirectSpecularColorEv
Ezb:__ZN14PlayerSettings8TransferI18StreamedBinaryReadILb0EEEEvRT_
c1i:__ZN6il2cpp6icalls8mscorlib6System8MonoType16GetMethodsByNameEP20Il2CppReflectionTypeP12Il2CppStringibS5_
Pii:_GCHandle__ctor_m2952050298
eae:_LayoutGroup_SetProperty_TisAxis_t1431825778_m2174054513_gshared
jsb:__ZN4PPtrI10GameObjectE8TransferI14SafeBinaryReadEEvRT_
$2g:_Mask_IsRaycastLocationValid_m62488857
x$:__ZN17DirectorFrameTime10SampleTimeEfff
Jsa:__ZNSt3__27__sort3IRNS_4lessIN22BuiltinResourceManager8ResourceEEEPS3_EEjT0_S7_S7_T_
xzh:_DefaultComparer_Compare_m3472472212_gshared
RTe:_MonoIO_GetLength_m2812344043
XGc:_ps_hints_t2mask
u8f:__ZL68UsedByNativeCodeAttribute_t3212052468_CustomAttributesCacheGeneratorP21CustomAttributesCache
aF:__Z110Register_UnityEngine_Experimental_Director_AnimatorControllerPlayable_INTERNAL_CALL_GetParametersArrayInternalv
vwb:__ZN10BlendShape8TransferI19StreamedBinaryWriteILb0EEEEvRT_
ZSi:__ZL25UnresolvedVirtualCall_215P12Il2CppObject40CustomAttributeTypedArgument_t1498197914PK10MethodInfo
Pgi:_PlayableHandle_INTERNAL_CALL_IsValidInternal_m2792360706
CBi:_Transform_IsChildOf_m10844547
dG:__Z32TransferEnumWithNameForceIntSizeI14SafeBinaryReadN10SampleClip8LoadTypeEEvRT_RT0_PKc17TransferMetaFlags
jRe:__Z21il2cpp_codegen_sizeofP11Il2CppClass
fba:__Z19GetTimeSinceStartupv
R6c:_SecurityFrame_get_Assembly_m2816566490
xpj:__ZN6il2cpp2os10ThreadImpl11SetPriorityENS0_14ThreadPriorityE
mMc:_TT_Load_Composite_Glyph
qTi:__ZL25UnresolvedVirtualCall_234P12Il2CppObjecti19Vector3_t2243707580PK10MethodInfo
HDi:_NetFxCoreExtensions_CreateDelegate_m2492743074
NDh:__Z51RuntimeInvoker_Boolean_t3825574718_Int64_t909078037PK10MethodInfoPvPS2_
jed:_Array_Sort_m2994254654
dqe:_List_1__ctor_m593058937_gshared
a0d:_Array_InternalArray__IEnumerable_GetEnumerator_TisColor32_t874517518_m2198639025_gshared
iMi:_Hacker_terminalLine_m3008669431
RWa:__ZN29RenderNodeQueuePrepareContextC2Ev
ON:__ZN10SampleClipC2E18MemLabelIdentifier18ObjectCreationMode
$Ub:__ZN9ShaderLab20SerializedSubProgram16TextureParameter8TransferI24GenerateTypeTreeTransferEEvRT_
Wug:_Thread_set_Name_m1343706609
ozj:__ZN6il2cpp2os11MutexHandle4WaitEj
h9b:__ZL34GetComponentsImplementationRecurseILb1ELi1ELi1EEbR10GameObjectbRK17CompareParametersRK39GetComponentsImplementation_ReturnValue
nzj:__ZN6il2cpp2os11MutexHandle4WaitEv
Fjd:_ArrayList_set_Capacity_m592558035
Yka:__ZN6prcoreL17RemapGenericFloatI15TexFormatRGHalf18TexFormatARGBFloatEEvPKNS_9InnerInfoE
Vjc:__ZN18CrashReportManager23VirtualRedirectTransferER14SafeBinaryRead
bda:__ZNK13RenderTexture13GetDataHeightEv
TQa:__ZN13RenderManager23AddRemoveCamerasDelayedEv
qQa:_UNITY_png_write_pHYs
bma:__ZN23PreloadManagerOperation11GetPriorityEv
OCd:_Exception_get_InnerException_m3722561235
m_d:_Array_InternalArray__ICollection_Remove_TisILTokenInfo_t149559338_m1523907845_gshared
kTc:__ZN11UnityEngine9Analytics15AnalyticsConfigC2Ev
vXf:__ZL84RectOffset_t3387826427_CustomAttributesCacheGenerator_RectOffset_get_left_m439065308P21CustomAttributesCache
Ume:_List_1_GetEnumerator_m4053501645_gshared
f$i:__ZN6il2cpp2gc9AllocatorIP17Il2CppAsyncResultE10deallocateEPvj
dLi:_Enumerator_CheckState_m1761755727_gshared
Tnd:_Hashtable_Rehash_m2877670513
p3a:__ZN13RenderTexture8SetWidthEi
uWd:_InputField_Insert_m1593238693
h$b:__ZNK28RectTransformPropertyBinding12SetPPtrValueERKN11UnityEngine9Animation10BoundCurveEi
UPb:__Z18Transfer_BlittableI18StreamedBinaryReadILb0EELb0EfEvRK29SerializationCommandArgumentsR31RuntimeSerializationCommandInfo
Jwb:__ZN10MeshFilterD0Ev
oMc:_UNITY_FT_GlyphLoader_CheckSubGlyphs
_Lh:__Z132RuntimeInvoker_Int32_t2071877448_Il2CppObject_Int32_t2071877448_Int32_t2071877448_Il2CppObject_Int32_t2071877448_Int32U26_t455636984PK10MethodInfoPvPS2_
h$i:__ZN6il2cpp2vm21ThreadPoolCompartment20SpawnNewWorkerThreadEv
h3d:_Array_InternalArray__ICollection_Add_TisCustomAttributeTypedArgument_t1498197914_m3260005285_gshared
ZYa:__Z25SetupObjectBakedOcclusionbRK15SharedLightDataRK26SharedLightmapSettingsDataRK15LightmapIndicesR17ShaderPassContext
Iod:_SyncHashtable_GetObjectData_m3774367030
Goi:__ZN21InterfaceFuncInvoker4IP17Match_t3164245899P17Regex_t1803876613P8String_tiiE6InvokeEjP11Il2CppClassP12Il2CppObjectS3_S5_ii
zNe:_Guid_GetHashCode_m1401300871
LZi:_ListPool_1_U3Cs_ListPoolU3Em__0_m1243609651_gshared
ipc:__Z42Register_UnityEngine_GUIStyle_set_fontSizev
bQd:_FontData__ctor_m3822008992
$5h:_LogCallback__ctor_m898185969
dPi:__ZL23UnresolvedVirtualCall_5P12Il2CppObjectsPK10MethodInfo
UA:__ZN4PPtrI6AvatarE8TransferI19StreamedBinaryWriteILb0EEEEvRT_
bs:__ZN8Animator9BuildJobsERK13dynamic_arrayIP14PlayableOutputLj4EERS0_INS_11AnimatorJobELj4EEPS7_bb
B$:__ZN9ShaderLab16FastPropertyName4InitEPKc
o_b:__Z13RegisterClassIN2UI13RectTransformEEvv
G0e:_MSCompatUnicodeTable_ToWidthCompat_m2299599532
LMi:__ZN13Il2CppHashMapIPK22Il2CppGenericParameterP11Il2CppClassN6il2cpp5utils11PointerHashIS1_EENSt3__28equal_toIS2_EENS9_9allocatorINS9_4pairIK10KeyWrapperIS2_ES4_EEEEEC2EjRKS8_RKSB_
s$e:_NumberFormatter_get_IsFloatingSource_m2830957202
Ytb:__ZN10VertexData8TransferI17RemapPPtrTransferEEvRT_
Hca:__ZN13RenderTexture9SetMipMapEb
aUi:__ZN15dense_hashtableINSt3__24pairIK10KeyWrapperIPK11Il2CppClassEPKcEES6_N6il2cpp5utils11PointerHashIS3_EEN14dense_hash_mapIS6_S9_SE_NS6_14EqualsComparerINS0_8equal_toIS5_EEEENS0_9allocatorISA_EEE9SelectKeyESJ_SL_E13set_empty_keyERKSA_
_6g:_ScrollRect_set_verticalScrollbarSpacing_m2356851539
JZ:__Z18GetDirectorManagerv
$$e:_OperatingSystem_GetObjectData_m2276196875
Uhb:__ZNK10TagManager26GetTypeInfoVirtualInternalEv
a2g:_ResourceRequest_t2560315377_marshal_pinvoke_back
mCb:__ZN21ArchiveStorageCreator13AppendRawNodeERKN4core12basic_stringIcNS0_20StringStorageDefaultIcEEEEN20ArchiveStorageHeader9NodeFlagsEyy
oic:__Z38Transform_CUSTOM_INTERNAL_get_rotationP12Il2CppObjectP11Quaternionf
l5i:__ZNSt3__26vectorIN6il2cpp2vm17TypeNameParseInfoENS_9allocatorIS3_EEE8allocateEj
cgi:_AnimatorControllerPlayable_CrossFadeInFixedTime_m1082259778
iIf:__ZL66CriticalFinalizerObject_t1920899984_CustomAttributesCacheGeneratorP21CustomAttributesCache
ASi:__ZL25UnresolvedVirtualCall_190P12Il2CppObject20TimeSpan_t3430258949S1_PK10MethodInfo
f8i:__ZNK15dense_hashtableINSt3__24pairIK10KeyWrapperINS1_IPK10MethodInfoP11Il2CppClassEEEjEES9_17ReflectionMapHashIS8_EN14dense_hash_mapIS9_jSD_NS9_14EqualsComparerINS0_8equal_toIS8_EEEENS0_9allocatorISB_EEE9SelectKeyESI_SK_E5beginEv
yCa:__ZN7ApiGLES19UploadBufferSubDataEjN2gl12BufferTargetEllPKv
l8c:_String_System_IConvertible_ToInt32_m1927223638
H_d:_Array_InternalArray__ICollection_Remove_TisContentType_t1028629049_m3085152315_gshared
fTh:__Z62RuntimeInvoker_AnimatorStateInfo_t2577870592_Int32_t2071877448PK10MethodInfoPvPS2_
u8h:_Canvas_set_sortingOrder_m2922819993
$1h:__Z72RuntimeInvoker_KeyValuePair_2_t3749587448_Int32_t2071877448_Il2CppObjectPK10MethodInfoPvPS2_
nYi:__ZNSt3__26__treeINS_12__value_typeIP11Il2CppClassS3_EENS_19__map_value_compareIS3_S4_NS_4lessIS3_EELb1EEENS_9allocatorIS4_EEE25__emplace_unique_key_argsIS3_JNS_4pairIS3_S3_EEEEENSD_INS_15__tree_iteratorIS4_PNS_11__tree_nodeIS4_PvEEiEEbEERKT_DpOT0_
nad:_ASCIIEncoding__ctor_m4127831672
E0f:__ZL117AnimatorControllerPlayable_t4078305555_CustomAttributesCacheGenerator_AnimatorControllerPlayable_CrossFade_m437921439P21CustomAttributesCache
cHb:__Z19TransferField_ArrayI14SafeBinaryRead27Converter_SimpleNativeClassI8GUIStyleEEvRK23StaticTransferFieldInfoR31RuntimeSerializationCommandInfoRT0_
jtg:_UTF8Encoding__ctor_m3336862259
rij:__ZN15dense_hashtableINSt3__24pairIK10KeyWrapperIP14Il2CppIUnknownEjEES5_N6il2cpp5utils11PointerHashIS3_EEN14dense_hash_mapIS5_jSB_NS5_14EqualsComparerINS0_8equal_toIS4_EEEENS0_9allocatorIS7_EEE9SelectKeyESG_SI_ED2Ev
Wxj:__ZN6il2cpp5utils10MemoryPoolC2Ej
AVh:__Z54RuntimeInvoker_Boolean_t3825574718_HitInfo_t1761367055PK10MethodInfoPvPS2_
cvf:_X509Chain_GetAuthorityKeyIdentifier_m2607407678
Sxj:__ZN6il2cpp5utils10MemoryPoolC2Ev
vnb:__ZN14RenderSettings5ResetEv
wgj:__ZNSt3__212basic_stringIDsNS_11char_traitsIDsEENS_9allocatorIDsEEE6appendEPKDsj
sJd:_RaycastResult_set_gameObject_m1138581891_AdjustorThunk
u7h:_Bounds_get_extents_m4077324178_AdjustorThunk
PHh:__Z117RuntimeInvoker_Int32_t2071877448_Il2CppObject_Il2CppObject_Int32_t2071877448_Int32_t2071877448_BooleanU26_t3168250738PK10MethodInfoPvPS2_
Ywh:_InternalEnumerator_1_get_Current_m3724267862_AdjustorThunk
w9d:_Dictionary_2_Do_ICollectionCopyTo_TisKeyValuePair_2_t3716250094_m1740410536_gshared
BQg:_GUI_CallWindowDelegate_m2039577415
rpj:__ZN6il2cpp2os10ThreadImplD2Ev
f7e:_RSAManaged_Dispose_m3018788098
iqc:__ZN8Gradient8TransferI9JSONWriteEEvRT_
pug:_Monitor_Monitor_pulse_m2135582245
Mrd:_DateTime_ToUniversalTime_m1815024752
rpf:_NameObjectCollectionBase_get_Count_m2353593692
Cbb:__ZNK12TLSAllocatorI14StackAllocatorE22GetAllocatedMemorySizeEv
$Gf:__ZL54AssemblyName_t894705941_CustomAttributesCacheGeneratorP21CustomAttributesCache
Jud:_Convert_ToUInt32_m3394039268
y5a:__ZN17RemapPPtrTransfer12PushMetaFlagE17TransferMetaFlags
_M:__ZNK7WeakPtrI20SoundChannelInstanceE10SharedData9GetRawPtrEv
tLa:__ZN12HandlerChain4NameEv
dyb:__ZNSt3__26vectorI9InputAxisNS_9allocatorIS1_EEE10deallocateEv
KWi:__ZNK15dense_hashtableINSt3__24pairIK10KeyWrapperI13dynamic_arrayIPK10Il2CppTypeLj4EEEPFvvEEES8_N6il2cpp8metadata19Il2CppSignatureHashEN14dense_hash_mapIS8_SB_SF_NS8_14EqualsComparerINSE_22Il2CppSignatureCompareEEENS0_9allocatorISC_EEE9SelectKeyESJ_SL_E10test_emptyERK30dense_hashtable_const_iteratorISC_S8_SF_SN_SJ_SL_E
xOe:_Int16_Equals_m3925135434_AdjustorThunk
GRc:__Z44Register_UnityEngine_CanvasRenderer_get_cullv
peh:_Enumerator_Dispose_m2532362830_AdjustorThunk
KEf:__ZL60IHashCodeProvider_t1980576455_CustomAttributesCacheGeneratorP21CustomAttributesCache
K_b:__ZN13ProduceHelperI13MonoBehaviourLb0EE7ProduceE18MemLabelIdentifier18ObjectCreationMode
nde:_Enumerator_VerifyState_m1677639504_AdjustorThunk
G9a:__Z29StdTemplateConversionFunctionIbbEbPvR14SafeBinaryRead
Wrj:__ZNK15dense_hashtableINSt3__24pairIK10KeyWrapperIPK19Il2CppGenericMethodEP10MethodInfoEES6_N6il2cpp8metadata23Il2CppGenericMethodHashEN14dense_hash_mapIS6_S9_SD_NS6_14EqualsComparerINSC_26Il2CppGenericMethodCompareEEENS0_9allocatorISA_EEE9SelectKeyESH_SJ_E12test_deletedEj
qgf:_CipherSuiteCollection_get_Item_m280627160
KFb:__Z44InitializeTransferFunctionScriptingTraitsForI17RemapPPtrTransferEvR31TransferFunctionScriptingTraits
ajg:_SerializationInfoEnumerator_MoveNext_m1876990879
Bwg:_TimeSpan_Duration_m4205681645
X6a:__ZN14UnityWebStream24UpdateAllUnityWebStreamsEv
Ote:_Collection_1_System_Collections_IList_get_IsReadOnly_m2329986891_gshared
mDf:__ZL60ObsoleteAttribute_t3878847927_CustomAttributesCacheGeneratorP21CustomAttributesCache
Bti:_Uri_ParseAsWindowsAbsoluteFilePath_m1108586962
qR:__ZN11UnityEngine15CloudWebService14DataErrorEventD2Ev
D4d:_Array_InternalArray__ICollection_CopyTo_TisRaycastHit2D_t4063908774_m3837098618_gshared
jna:__ZN18LoadSceneOperation21MustCompleteNextFrameEv
EK:__ZNK12AudioManager16GetAudioListenerEv
jNg:_MonoField_get_FieldType_m598011426
Nte:_Collection_1_System_Collections_IList_get_IsFixedSize_m1624702704_gshared
QGd:_EventTrigger_OnScroll_m626934407
rVf:__ZL48Camera_t189460977_CustomAttributesCacheGeneratorP21CustomAttributesCache
K2a:__ZNSt3__26vectorI11CameraStackNS_9allocatorIS1_EEE8__appendEj
Wfj:__ZNSt3__212basic_stringIcNS_11char_traitsIcEENS_9allocatorIcEEE6__initINS_11__wrap_iterIPcEEEENS_9enable_ifIXsr21__is_forward_iteratorIT_EE5valueEvE4typeESB_SB_
DVd:_InputField_OnDisable_m1865339380
fAg:_UInt32_System_IConvertible_ToType_m747769316
sx:__ZN7mecanim9animation12GetHumanPoseERKNS0_18ClipMuscleConstantEPKNS0_10ValueDeltaERNS_5human9HumanPoseE
W8i:__ZN6il2cpp2vm10Reflection17GetPropertyObjectEP11Il2CppClassPK12PropertyInfo
WSc:__ZN11UnityEngine9Analytics15UserCustomEvent12CustomParams6InsertEPKcRNS1_11CustomValueE
vMj:_glDeleteVertexArrays__wrapper
gNb:__Z29Transfer_Blittable_ArrayFieldI19StreamedBinaryWriteILb0EEjEvRT_R9ArrayInfoRK23StaticTransferFieldInfo
vX:__Z13GetFileSystemv
a3b:__ZZL23RegisterLightPropertiesR22GenericPropertyBindingEN29Wrapper_LightColorTemperature13SetFloatValueEPvf
_5:__ZNK5Unity4Type21FindAllDerivedClassesER13dynamic_arrayIPKS0_Lj4EENS0_17TypeFilterOptionsE
T6:__ZN13RuntimeStaticI15GUIEventManagerLb0EE16StaticInitializeEPv
sgh:_Dictionary_2_ToTKey_m2900575080_gshared
OQb:__ZL12InvokeMethodI18StreamedBinaryReadILb0EEEvRK29SerializationCommandArgumentsR31RuntimeSerializationCommandInfo
tLe:_DaylightTime_get_Delta_m2316831491
JZd:_Array_InternalArray__ICollection_Contains_TisUILineInfo_t3621277874_m1175659630_gshared
Rvg:_WaitHandle_WaitOne_m370363697
N9f:__ZL114PointerEventData_t1599784723_CustomAttributesCacheGenerator_PointerEventData_set_pointerCurrentRaycast_m2431897513P21CustomAttributesCache
ixf:_FactoryCache_Lookup_m1681894361
Rwd:_DateTime_Subtract_m698282245_AdjustorThunk
Tzh:_DefaultComparer__ctor_m2470932885_gshared
yFf:__ZL55BinaryReader_t2491843768_CustomAttributesCacheGeneratorP21CustomAttributesCache
xAe:_Collection_1_InsertItem_m724820684_gshared
PQf:__ZL79Convert_t2607082565_CustomAttributesCacheGenerator_Convert_ToUInt64_m1896191125P21CustomAttributesCache
iSa:__ZN19ShaderPropertySheet9SetMatrixEN9ShaderLab16FastPropertyNameERK10Matrix4x4fNS_8SetFlagsE
E0c:_RIPEMD160Managed_Initialize_m3365407578
Zpb:__Z29GetTextureSizeAllowedMultiple13TextureFormat
Qqf:_IPAddress_HostToNetworkOrder_m1092199707
k$d:_SetPropertyUtility_SetStruct_TisSpriteState_t1353336012_m2898060836_gshared
V4c:_SecurityAttribute__ctor_m3425755778
D4b:__ZN21IntermediateRenderers3AddEP20IntermediateRenderer
E2i:_il2cpp_array_element_size
ETh:__Z80RuntimeInvoker_Int32_t2071877448_PlayableHandleU26_t3483893774_Int32_t2071877448PK10MethodInfoPvPS2_
P0f:__ZL139AnimatorControllerPlayable_t4078305555_CustomAttributesCacheGenerator_AnimatorControllerPlayable_INTERNAL_CALL_CrossFadeInternal_m698817831P21CustomAttributesCache
Yf:_glCheckFramebufferStatus
Y1f:__ZL55TextGenerator_t647235000_CustomAttributesCacheGeneratorP21CustomAttributesCache
x0d:_Array_compare_TisInt32_t2071877448_m840310202_gshared
jLh:__Z57RuntimeInvoker_Il2CppObject_Il2CppObject_Byte_t3683104436PK10MethodInfoPvPS2_
Wyh:_InternalEnumerator_1_System_Collections_IEnumerator_get_Current_m442726479_AdjustorThunk
rqg:_DESTransform_ECB_m2629024873
wxh:_InternalEnumerator_1_System_Collections_IEnumerator_get_Current_m790514740_AdjustorThunk
mad:__Z37il2cpp_codegen_get_executing_assemblyPK10MethodInfo
vYb:__ZN9Transform23VirtualRedirectTransferER17RemapPPtrTransfer
GDf:__ZL57TypedReference_t1025199857_CustomAttributesCacheGeneratorP21CustomAttributesCache
D1d:_Array_InternalArray__IndexOf_TisByte_t3683104436_m3605266236_gshared
cWg:_GUIStyle_set_richText_m1853532836
gAe:_Collection_1_System_Collections_IList_Insert_m435904526_gshared
N2b:__ZZL23RegisterLightPropertiesR22GenericPropertyBindingEN22Wrapper_LightIntensity13GetFloatValueEPv
c5g:_RaycastAllCallback_Invoke_m981876639
Yrg:_UnicodeEncoding__ctor_m72484327
JBf:__ZL74Il2CppArray_CustomAttributesCacheGenerator_Array_GetUpperBound_m1352329707P21CustomAttributesCache
uij:__ZN14dense_hash_mapI10KeyWrapperIP14Il2CppIUnknownEjN6il2cpp5utils11PointerHashIS1_EENS3_14EqualsComparerINSt3__28equal_toIS2_EEEENS9_9allocatorINS9_4pairIKS3_jEEEEE15set_deleted_keyERSF_
D6:__ZN22BuiltinResourceManager16StaticInitializeEPv
wKe:_NumberFormatter_ScaleOrder_m1915154678
Dej:__ZN6il2cpp2gc9AllocatorIP12Il2CppThreadE10deallocateEPvj
KIi:_UnityEvent_1_GetDelegate_m2720691419_gshared
lif:_ClientSessionInfo_SetContext_m2649357891
oPe:_Int32_System_IConvertible_ToInt64_m3790029067_AdjustorThunk
sFh:__Z69RuntimeInvoker_Boolean_t3825574718_Il2CppObject_DoubleU26_t1208767207PK10MethodInfoPvPS2_
sGd:_RaycasterManager_GetRaycasters_m1154876874
ynf:_SslStreamBase_InternalReadCallback_m2524917586
B5:__ZN8Remapper6RemoveEi
mie:_List_1_CheckCollection_m2608305187_gshared
KKa:__ZN10MemoryFile4ReadEyPvPy
syg:_Type_get_ContainsGenericParameters_m505913180
nBc:__ZL36CleanupTextRenderingScriptingClassesv
jZf:__ZL82Material_t193706927_CustomAttributesCacheGenerator_Material_SetIntImpl_m4157631275P21CustomAttributesCache
bEe:_ReadOnlyCollection_1__ctor_m3532148437_gshared
Rdd:_Array_BinarySearch_m3270245097
rfc:__Z34Mesh_CUSTOM_SetArrayForChannelImplP12Il2CppObject30InternalScriptingShaderChannel34InternalScriptingVertexChannelTypeiP11Il2CppArrayi
dTe:_MonoIO_DeleteFile_m3273821223
Bwh:_InternalEnumerator_1_Dispose_m3642485841_AdjustorThunk
q2e:_BigInteger_GenerateRandom_m2507308768
Hvd:_DateTime_System_IConvertible_ToDouble_m1431748426_AdjustorThunk
wZd:_Array_InternalArray__ICollection_Contains_TisUInt16_t986882611_m510319131_gshared
D5d:_Array_InternalArray__Insert_TisRaycastHit2D_t4063908774_m3174907903_gshared
fzd:_Decimal_ToString_m541380585
Xxf:_RepeatContext_get_Previous_m808449037
FMh:__Z60RuntimeInvoker_DateTime_t693205669_Il2CppObject_Il2CppObjectPK10MethodInfoPvPS2_
FLg:_MemberFilter__ctor_m1775909550
W2i:_il2cpp_class_is_valuetype
gYc:__ZZN18UnityConnectClient23RegisterGlobalCallbacksEvEN41EarlyUpdateUnityConnectClientUpdatestruct7ForwardEv
EB:__ZN11UnityEngine9Animation28GenericAnimationBindingCache25RegisterIAnimationBindingEPKN5Unity4TypeEiP17IAnimationBinding
QE:__Z106Register_UnityEngine_Experimental_Director_AnimatorControllerPlayable_INTERNAL_CALL_GetLayerWeightInternalv
KRc:__Z70RectTransformUtility_CUSTOM_INTERNAL_CALL_RectangleContainsScreenPointP12Il2CppObjectRK13Vector2fIcallS0_
jCd:_Enum_ToObject_m2601523252
Zmf:_InternalAsyncResult_get_FromWrite_m2893408424
BNi:__ZN6il2cpp2vm5Class15GetElementClassEP11Il2CppClass
bYd:_U3CDelayedSetDirtyU3Ec__Iterator0_System_Collections_IEnumerator_get_Current_m851854792
xVa:__Z20RenderSceneDepthPassRK19SharedRendererSceneRK17ShaderReplaceDatabR17ShaderPassContext
ESc:__ZN14UnityAnalytics25UnregisterGlobalCallbacksEv
o1a:__Z40ProcessCameraIndexListIsNodeVisibleInOutRK22SceneCullingParametersPK9SceneNodePK4AABBR9IndexList
Tkb:__ZN16GraphicsSettings8TransferI17RemapPPtrTransferEEvRT_
ecf:_BigInteger_op_LessThanOrEqual_m3528380540
kWe:_StreamReader__ctor_m2654332332
iPc:__ZN2UI6Canvas13UpdateBatchesEb
bqa:__ZN7Texture19SupportsAsyncUploadI19StreamedBinaryWriteILb0EEEEbRT_
TKj:_glGetShaderInfoLog__wrapper
e_e:_MonoType_GetFields_internal_m2022019979
sge:_List_1_CheckCollection_m3968030679_gshared
lFi:_Predicate_1_BeginInvoke_m3556950370_gshared
Crg:_StringBuilder_ToString_m617673931
fua:__ZNK13GfxDeviceGLES12GetWireframeEv
XEe:_ReadOnlyCollection_1_System_Collections_ICollection_get_IsSynchronized_m3127987432_gshared
MVc:__ZN11UnityEngine7Connect13ConfigHandler12GetListenersERKN4core12basic_stringIcNS2_20StringStorageDefaultIcEEEE
xva:__ZN9GfxDevice18AllocRenderSurfaceEb
gZb:__ZN10TagManager32GetSortingLayerUniqueIDFromValueEi
Cri:_AnchorInfo_get_IsComplete_m1247624133
vPd:_Dropdown_Show_m324374589
s_:__ZL27CleanupCoreScriptingClassesv
jWf:__ZL85Component_t3819376471_CustomAttributesCacheGenerator_Component_SendMessage_m913946877P21CustomAttributesCache
GBe:_ReadOnlyCollection_1_System_Collections_ICollection_get_SyncRoot_m769863805_gshared
LId:_RaycastResult_get_isValid_m2482925612
gfc:__Z26AnimationCurve_CUSTOM_InitP12Il2CppObjectP11Il2CppArray
yOj:_glUniform1uiv__wrapper
taj:__ZN6il2cpp2vm10Reflection7IsEventEP12Il2CppObject
ZXi:__ZNSt3__26__treeINS_12__value_typeIPFvvEPK10MethodInfoEENS_19__map_value_compareIS3_S7_NS_4lessIS3_EELb1EEENS_9allocatorIS7_EEE16__insert_node_atEPNS_16__tree_node_baseIPvEERSI_SI_
i2:__ZN17PersistentManager26GetStreamNameSpaceInternalEi
lG:__ZN4FMOD6System11createSoundEPKcjP22FMOD_CREATESOUNDEXINFOPPNS_5SoundE
m9h:_CanvasRenderer_get_cull_m3577089379
Uwe:__ZN23InterfaceActionInvoker2Ii22UICharInfo_t3056636800E6InvokeEjP11Il2CppClassP12Il2CppObjectiS0_
Wn:FUNCTION_TABLE_iiifiiii
yUh:__Z66RuntimeInvoker_Void_t1841601450_Int32_t2071877448_Rect_t3681755626PK10MethodInfoPvPS2_
q_g:_Object_Destroy_m4145850038
C$f:__ZL86AudioSource_t1135106623_CustomAttributesCacheGenerator_AudioSource_set_clip_m738814682P21CustomAttributesCache
iTh:__Z109RuntimeInvoker_Void_t1841601450_PlayableHandleU26_t3483893774_Int32_t2071877448_SByte_t454417549_Il2CppObjectPK10MethodInfoPvPS2_
M5i:__ZN6il2cpp2vm4Type14IsSystemDBNullEPK10Il2CppType
x0:__ZN9ShaderLab19CommonPropertyNames13StaticCleanupEPv
q3:__Z31scripting_method_get_returntype18ScriptingMethodPtr
g7g:_ScrollRect_UpdateBounds_m3266596336
grb:__ZN15SerializeTraitsI12LightmapDataE8TransferI24GenerateTypeTreeTransferEEvRS0_RT_
YPa:_unity_z_zcfree
cNd:_ColorBlock_GetHashCode_m649325222
ZKj:_glStencilOpSeparate__wrapper
O6b:__ZN4Mesh5SetUvEiPKfjj
Mna:__ZN7Texture13SetAnisoLimitENS_20AnisotropicFilteringE
boa:__ZN28LightProbeProxyVolumeManager25UpdateSHCoeffsTextureDataER21LightProbeProxyVolume
vJa:__Z18CreateDecompressor15CompressionType18MemLabelIdentifier
HO:__ZN11AudioModule16SetListenerPauseEb
Qh:_emscripten_glCompressedTexSubImage2D
ODa:__ZN13GfxDeviceGLES22MemoryBarrierImmediateEyN2gl17MemoryBarrierTypeE
Iud:_Convert_ToUInt32_m1336475941
u1f:__ZL132AnimatorControllerPlayable_t4078305555_CustomAttributesCacheGenerator_AnimatorControllerPlayable_INTERNAL_CALL_SetBoolID_m2987425503P21CustomAttributesCache
hhj:__ZN6il2cpp6icalls8mscorlib6System4Type18internal_from_nameEP12Il2CppStringbb
lla:__ZN6prcoreL26RemapGenericFloatToIntegerI18TexFormatARGBFloat17TexFormatARGB8888EEvPKNS_9InnerInfoE
vZb:__ZN6Object27GetOffsetOfInstanceIdMemberEv
vKc:_cff_ps_has_glyph_names
XGi:_InvokableCall_1__ctor_m2837611051_gshared
_kh:_EqualityComparer_1__ctor_m1389939323_gshared
vdh:_Transform_1_EndInvoke_m1025924012_gshared
HBf:__ZL81Il2CppArray_CustomAttributesCacheGenerator_Array_GetValue_m3550694941____indices0P21CustomAttributesCache
TFe:_ReadOnlyCollection_1_System_Collections_Generic_ICollectionU3CTU3E_get_IsReadOnly_m2873538493_gshared
opi:_PatternCompiler_EmitPosition_m3013268572
Gwf:_X509SubjectKeyIdentifierExtension__ctor_m1109455121
RPi:__ZL24UnresolvedVirtualCall_45P12Il2CppObject19DateTime_t693205669PK10MethodInfo
HRd:_Graphic_CreateColorFromAlpha_m2614574534
qsg:_UnicodeEncoding_GetHashCode_m2443440683
upc:__Z44Register_UnityEngine_GUIStyle_SetDefaultFontv
HIg:_GenericTypeParameterBuilder_GetPropertyImpl_m3566422383
CNb:__Z18Transfer_BlittableI18StreamedBinaryReadILb1EELb1EiEvRK29SerializationCommandArgumentsR31RuntimeSerializationCommandInfo
Os:__ZN9BlobWrite8TransferI22OffsetPtrArrayTransferIKN4math7_float3EEEEvRT_PKc17TransferMetaFlags
Q3c:_TripleDES_IsWeakKey_m483013953
Vtf:_X509Certificate2_get_PrivateKey_m2662162956
veh:_Enumerator__ctor_m3819430617_AdjustorThunk
i9i:__ZN15dense_hashtableINSt3__24pairIK10KeyWrapperINS1_IPK12PropertyInfoP11Il2CppClassEEEjEES9_17ReflectionMapHashIS8_EN14dense_hash_mapIS9_jSD_NS9_14EqualsComparerINS0_8equal_toIS8_EEEENS0_9allocatorISB_EEE9SelectKeyESI_SK_E12maybe_shrinkEv
UNb:__Z18Transfer_BlittableI18StreamedBinaryReadILb1EELb1EsEvRK29SerializationCommandArgumentsR31RuntimeSerializationCommandInfo
fz:__ZN26AnimatorControllerPlayable17IsMultithreadableEv
lQi:__ZL24UnresolvedVirtualCall_67P12Il2CppObject18OpCode_t2247480392PK10MethodInfo
t7c:_Single_System_IConvertible_ToSByte_m3757385387
BZh:__Z51RuntimeInvoker_Boolean_t3825574718_Slot_t2022531261PK10MethodInfoPvPS2_
dUe:_StreamAsyncResult_SetComplete_m2141125667
Rna:__ZL21SetAnisoLimitEnumImplN7Texture20AnisotropicFilteringEb
rUc:__ZN22BaseUnityConnectClient17OnEnterStateReadyEv
sY:__GLOBAL__sub_I_platformdependent_webgl_source_lump_cpp
vW:__Z21GetManagerFromContexti
uje:_List_1_get_Count_m634584594_gshared
Bkb:__ZN14GrowableBufferD2Ev
uXg:_Keyframe_get_tangentMode_m1869200796_AdjustorThunk
zec:__Z29Input_CUSTOM_GetMouseButtonUpi
C1i:__ZN6il2cpp6icalls8mscorlib6System8MonoType16InternalGetEventEP20Il2CppReflectionTypeP12Il2CppStringi
jAg:_UInt32_System_IConvertible_ToUInt32_m1257480358_AdjustorThunk
LFf:__ZL50FileMode_t236403845_CustomAttributesCacheGeneratorP21CustomAttributesCache
eEc:_UNITY_tt_face_load_maxp
Lec:__Z46Input_CUSTOM_INTERNAL_set_compositionCursorPosRK13Vector2fIcall
hu:__ZN7mecanim5human12FullBodyMaskEv
HOf:__ZL98Activator_t1850728717_CustomAttributesCacheGenerator_Activator_CreateInstance_m1465989661____args1P21CustomAttributesCache
gSi:__ZL25UnresolvedVirtualCall_170P12Il2CppObject19Vector3_t2243707580PK10MethodInfo
Y$:__ZN19ShaderPropertySheet11ComputeHashEv
Z2h:__Z111RuntimeInvoker_Il2CppObject_AnimatorClipInfo_t3905751349_AnimatorClipInfo_t3905751349_Il2CppObject_Il2CppObjectPK10MethodInfoPvPS2_
HOb:__ZN4PPtrI6ObjectE8TransferI18StreamedBinaryReadILb1EEEEvRT_
yNd:_ColorTween_get_tweenMode_m2919867230_AdjustorThunk
u5d:_Array_InternalArray__Insert_TisUInt16_t986882611_m2263078_gshared
gMd:_CanvasScaler_HandleScaleWithScreenSize_m80056230
HR:__ZN11UnityEngine15CloudWebService16SessionContainer16GetJsonDataBlockEjRKN4core12basic_stringIcNS2_20StringStorageDefaultIcEEEERS6_PjSA_
cXf:__ZL89GameObject_t1756533147_CustomAttributesCacheGenerator_GameObject_AddComponent_m3757565614P21CustomAttributesCache
L0i:__ZNK6il2cpp5utils10functional6FilterINSt3__212basic_stringIcNS3_11char_traitsIcEENS3_9allocatorIcEEEENS0_11StringUtils21CaseSensitiveComparerEEclIPKcEEbRKT_
UIg:_GenericTypeParameterBuilder_get_AssemblyQualifiedName_m902593295
Tsg:_UTF7Encoding_InternalGetBytes_m2772055844
Dmh:_EqualityComparer_1__ctor_m831468288_gshared
S0e:_SimpleCollator__cctor_m2693747668
_yd:_Decimal_CompareTo_m2454501434_AdjustorThunk
x2:__ZN14SafeBinaryReadD2Ev
Syg:_UInt16_System_IConvertible_ToChar_m4055364664
h_b:__Z13RegisterClassI7TextureEvv
Gsi:_ExpressionCollection_OnValidate_m1703610065
$Ob:__ZN8Gradient8TransferI18StreamedBinaryReadILb1EEEEvRT_
Tdh:_Enumerator_Dispose_m2369319718_AdjustorThunk
jQf:__ZL79Convert_t2607082565_CustomAttributesCacheGenerator_Convert_ToUInt16_m3991499696P21CustomAttributesCache
epc:__Z45Register_UnityEngine_GUIStyle_SetFontInternalv
K0i:__ZN6il2cpp6icalls8mscorlib6SystemL16CheckMemberMatchI9FieldInfoNS_5utils10functional6FilterINSt3__212basic_stringIcNS8_11char_traitsIcEENS8_9allocatorIcEEEENS5_11StringUtils21CaseSensitiveComparerEEEEEbPKT_PK11Il2CppClassSN_iRKT0_
fre:_Enumerator_Dispose_m1520016780_AdjustorThunk
khj:__ZN6il2cpp6icalls8mscorlib6System4Type15MakeGenericTypeEP20Il2CppReflectionTypeP11Il2CppArray
kj:_SDL_PauseAudio
$2i:_il2cpp_class_from_type
xed:_Array_Sort_m2323017822
Ruj:_GC_clear_mark_bit
K5g:_Scrollbar_UpdateDrag_m3839695926
ASg:_GUILayoutUtility__cctor_m2957755459
Z6h:_AudioConfigurationChangeHandler_EndInvoke_m2237100787
w0:__ZN9ShaderLab19CommonPropertyNames16StaticInitializeEPv
QYe:_MissingMemberException__ctor_m3710131950
vma:__ZN13MemoryManager31DisallowAllocationsOnThisThreadEv
uA:__ZN7mecanim9animation18CreateAvatarOutputEPKNS0_14AvatarConstantEbbRNS_6memory9AllocatorE
Epc:__Z45GUIUtility_CUSTOM_Internal_GetKeyboardControlv
Tpg:_CspParameters__ctor_m2546931874
WL:__ZN11AudioSource23VirtualRedirectTransferER24GenerateTypeTreeTransfer
qTc:__ZN14UnityAnalytics15SendCustomEventERN11UnityEngine9Analytics15UserCustomEventE
zub:__ZN14Texture2DArray23VirtualRedirectTransferER14SafeBinaryRead
qYa:__ZNK6Camera21CalculateCanDoShadowsEv
Bih:_Dictionary_2_make_pair_m2631942124_gshared
PRd:_Graphic__cctor_m1643894470
dpj:__ZN6il2cpp2os6Thread12SetStackSizeEj
puf:_X509ChainElementEnumerator_get_Current_m2232618221
LBb:__ZNK20ArchiveStorageReader15HasStreamBlocksEv
i7b:__ZNK8Renderer16IsVisibleInSceneEv
YSh:__Z44RuntimeInvoker_AnimatorStateInfo_t2577870592PK10MethodInfoPvPS2_
a7g:_ScrollRect_set_onValueChanged_m3957749575
VX:__Z13VFormatBufferPciPKcz
TPb:__Z18Transfer_BlittableI18StreamedBinaryReadILb0EELb1EhEvRK29SerializationCommandArgumentsR31RuntimeSerializationCommandInfo
QEi:_U3CCreateWhereIteratorU3Ec__Iterator1D_1_Dispose_m1879652802_gshared
MIf:__ZL90SafeHandle_t2733794115_CustomAttributesCacheGenerator_SafeHandle_get_IsInvalid_m3910183075P21CustomAttributesCache
HTd:_Image_GenerateSimpleSprite_m4275440988
sbi:_Display_get_systemHeight_m3377672024
Hzg:_UInt16_ToString_m3280699191
DIi:_UnityEvent_1_GetDelegate_m2566156550_gshared
pla:__ZN6prcoreL27StretchGenericFloatBilinearI15TexFormatRFloatEEvPKNS_9InnerInfoE
HJf:__ZL62IDynamicMessageSink_t3056162262_CustomAttributesCacheGeneratorP21CustomAttributesCache
lGh:__Z33RuntimeInvoker_UInt32_t2149682021PK10MethodInfoPvPS2_
REh:__Z130RuntimeInvoker_Int32_t2071877448_Il2CppObject_Int32_t2071877448_Int32_t2071877448_Il2CppObject_Int32_t2071877448_Int32_t2071877448PK10MethodInfoPvPS2_
p$d:_Array_InternalArray__IEnumerable_GetEnumerator_TisBoolean_t3825574718_m798244337_gshared
Nne:_List_1_CopyTo_m158925060_gshared
SJh:__Z102RuntimeInvoker_Il2CppObject_Int32_t2071877448_Int32_t2071877448_Il2CppObject_Il2CppObject_Il2CppObjectPK10MethodInfoPvPS2_
n1d:_Array_IndexOf_TisCustomAttributeNamedArgument_t94157543_m745056346_gshared
ZBa:__Z14PadImageBorderR14ImageReferenceii
N7i:__ZN15dense_hashtableINSt3__24pairIK10KeyWrapperINS1_IPK10MethodInfoP11Il2CppClassEEEjEES9_17ReflectionMapHashIS8_EN14dense_hash_mapIS9_jSD_NS9_14EqualsComparerINS0_8equal_toIS8_EEEENS0_9allocatorISB_EEE9SelectKeyESI_SK_E4findERSA_
TYi:__ZN6il2cpp2vm13MetadataCache28GetFieldDefaultValueForFieldEPK9FieldInfo
Ooh:_ArrayReadOnlyList_1_ReadOnlyError_m2289309720_gshared
yy:__ZN27AnimationLayerMixerPlayableD2Ev
O$i:__ZN6il2cpp2vm8basepathEPKc
nkh:_DefaultComparer_GetHashCode_m320514092_gshared
kI:__ZN12AudioManager39HandlePendingAudioConfigurationCallbackEv
gk:_emscripten_glIsFramebuffer
NEa:__ZNK13TranslateGLES9GetFormatE13TextureFormat17TextureColorSpace
U3b:__ZN12_GLOBAL__N_16qAtan2Eff
Ttd:_Convert_ToInt64_m954367741
RRi:__ZL25UnresolvedVirtualCall_153P12Il2CppObject40CustomAttributeTypedArgument_t1498197914S1_PK10MethodInfo
kk:_JS_Sound_SetLoopPoints
xjd:_ArrayList__ctor_m1467563650
fN:__ZN12AudioManager17ShouldSourcePauseEb
lyj:__ZN6il2cpp2vm26MetadataAllocGenericMethodEv
pGa:__ZN19ConstantBuffersGLES12RecordRenderEv
iqa:__ZN18AsyncUploadManager22UploadStreamingTextureEP28FileTextureUploadInstruction
ksc:__ZN9JSONWrite8TransferI10RectOffsetEEvRT_PKc17TransferMetaFlags
FBa:__ZN4crnd12symbol_codec11decode_bitsEj
txi:_X509Crl_get_Extensions_m1795830276
PIc:_cf2_doFlex
i8d:_Array_Sort_TisRaycastResult_t21186376_TisRaycastResult_t21186376_m38820193_gshared
k5h:_Animator_ResetTriggerString_m1445965342
d4b:__ZN21FixedBehaviourManagerD0Ev
s$f:__ZL55RaycastHit2D_t4063908774_CustomAttributesCacheGeneratorP21CustomAttributesCache
Smb:__ZN10Matrix3x4f8TransferI24GenerateTypeTreeTransferEEvRT_
nTe:_StreamReader__ctor_m3454466728
pI:__ZN4FMOD6System12createReverbEPPNS_6ReverbE
hBg:_UInt64_Equals_m1243465002
TBi:_Vector2_get_Item_m2792130561
xma:__Z16MarkDependenciesR27GarbageCollectorThreadStatej
hwf:_X509ChainElementEnumerator_Reset_m3832280427
I8f:__ZL75EventSystem_t3466835263_CustomAttributesCacheGenerator_U3CU3Ef__mgU24cache0P21CustomAttributesCache
Y_e:_MulticastDelegate_RemoveImpl_m2024746777
qMd:_CanvasUpdateRegistry_ParentCount_m2367607495
S_e:_MulticastDelegate_Equals_m3064081489
sXh:__Z54RuntimeInvoker_Void_t1841601450_ColorBlock_t2652774230PK10MethodInfoPvPS2_
baf:_Activator_CreateInstance_m1465989661
r0:__ZNK9Transform11GetPositionEv
bti:_PositionAssertion_GetWidth_m2294218483
h8f:__ZL111PlayerConnection_t3517219175_CustomAttributesCacheGenerator_PlayerConnection_MessageCallbackInternal_m267902474P21CustomAttributesCache
YSa:__ZN23SharedMeshRenderingData18UnloadVertexStreamEi
cDi:_Vector4_set_Item_m3077071044
C4b:__ZN31CanvasBatchIntermediateRenderer11AddSubBatchERK16DrawBuffersRangePK19ShaderPropertySheet
c3b:__ZN19RenderEventsContextC2Ei
VP:__Z6simd4fRKf
z4d:_Array_InternalArray__ICollection_CopyTo_TisColor32_t874517518_m379086718_gshared
A9g:_Slider_ClampValue_m2851810895
Nk:_emscripten_glEnable
aTg:_GUISkin_set_font_m4009958323
CIi:_UnityEvent_1_FindMethod_Impl_m3813546_gshared
Xkj:__ZN6il2cpp2gc16GarbageCollector29RegisterFinalizerForNewObjectEP12Il2CppObject
_hb:__ZN10TagManager23VirtualRedirectTransferER14SafeBinaryRead
kji:_MarshalAsAttribute__ctor_m1892084128
ADc:_UNITY_FT_Init_Class_ft_grays_raster
JRh:__Z53RuntimeInvoker_Void_t1841601450_Vector3U26_t425862308PK10MethodInfoPvPS2_
h$a:__Z15InitLightMeshesv
COf:__ZL97WaitHandle_t677569169_CustomAttributesCacheGenerator_WaitHandle_t677569169____Handle_PropertyInfoP21CustomAttributesCache
i_i:_KeyValuePair_2_ToString_m1391611625_AdjustorThunk
wn:FUNCTION_TABLE_iifiii
Xli:__ZN23InterfaceActionInvoker1IP18Context_t502196753E6InvokeEjP11Il2CppClassP12Il2CppObjectS1_
m_e:_MonoType_HasElementTypeImpl_m1040892148
cnb:__Z13TransferArrayILi4Ei19StreamedBinaryWriteILb0EEEjRAT__T0_PKcRT1_
HRa:__ZN22RenderingCommandBuffer36AcquireAndRegisterSharedMaterialDataEP8Material
Ghe:_List_1_System_Collections_Generic_IEnumerableU3CTU3E_GetEnumerator_m1503548298_gshared
eMb:__Z18Transfer_BlittableI19StreamedBinaryWriteILb0EELb1E8Vector2fEvRK29SerializationCommandArgumentsR31RuntimeSerializationCommandInfo
vIc:_cf2_arrstack_init
qIf:__ZL65ClassInterfaceAttribute_t910653559_CustomAttributesCacheGeneratorP21CustomAttributesCache
$5i:__ZN15dense_hashtableINSt3__24pairIK10KeyWrapperINS1_IPK14Il2CppAssemblyP11Il2CppClassEEEjEES9_17ReflectionMapHashIS8_EN14dense_hash_mapIS9_jSD_NS9_14EqualsComparerINS0_8equal_toIS8_EEEENS0_9allocatorISB_EEE9SelectKeyESI_SK_E15insert_noresizeERKSB_
CV:__Z15CleanLogHandler7LogTypePKcz
CVb:__ZN9ShaderLab19SerializedSubShader8TransferI19StreamedBinaryWriteILb0EEEEvRT_
tN:__ZN14AudioBehaviour15ThreadedCleanupEv
wsg:_UTF32Encoding_GetBytes_m2290150495
TDb:__ZN6Camera17RemoveImageFilterERK11ImageFilter
oDa:__ZNSt3__218__insertion_sort_3IR25ValueParameterArraySorterPN20GpuProgramParameters14ValueParameterEEEvT0_S6_T_
mmd:_CaseInsensitiveHashCodeProvider_AreEqual_m2456617355
F5f:__ZL102GUIUtility_t3275770671_CustomAttributesCacheGenerator_GUIUtility_EndContainerGUIFromException_m8097082P21CustomAttributesCache
bQc:__ZZN2UI11CanvasGroup15InitializeClassEvEN38FunctorImpl_117kTransformParentChanged4CallEPviR11MessageData
y2g:_LayoutUtility_GetLayoutProperty_m4052007472
$Gi:_InvokableCall_1_Invoke_m3239892614_gshared
zGc:_Horizontal_Sweep_Init
FSa:__ZNSt3__214__split_bufferI20ComputeShaderVariantRNS_9allocatorIS1_EEED2Ev
zyc:__ZNSt3__26vectorIN4core12basic_stringIcNS1_20StringStorageDefaultIcEEEE13stl_allocatorIS5_L18MemLabelIdentifier34ELi16EEE7reserveEj
N9i:__ZNK10KeyWrapperINSt3__24pairIPK9EventInfoP11Il2CppClassEEE14EqualsComparerINS0_8equal_toIS7_EEEclERKS8_SE_
Jif:_Context_set_WriteSequenceNumber_m3356252710
QPc:__ZN2UI26InitializeDeviceForOverlayEi
xNe:_Guid_Equals_m2389236871
M0:__Z27LogRepeatingStringWithFlagsRKN4core12basic_stringIcNS_20StringStorageDefaultIcEEEE15LogMessageFlagsi
Kw:__ZNK8Playable11GetDurationEv
cx:__ZN17AnimationPlayable28ComputeNeedsBindingRebuildedEv
Czh:_DefaultComparer__ctor_m2859550749_gshared
V4h:_AnimationEvent_get_functionName_m4178006856
ufe:_List_1_CheckIndex_m3609163576_gshared
sWi:__ZNK15dense_hashtableINSt3__24pairIK10KeyWrapperI13dynamic_arrayIPK10Il2CppTypeLj4EEEPFvvEEES8_N6il2cpp8metadata19Il2CppSignatureHashEN14dense_hash_mapIS8_SB_SF_NS8_14EqualsComparerINSE_22Il2CppSignatureCompareEEENS0_9allocatorISC_EEE9SelectKeyESJ_SL_E12test_deletedERK30dense_hashtable_const_iteratorISC_S8_SF_SN_SJ_SL_E
Qzb:__ZN15ResourceManagerD0Ev
Rtf:_X509ExtensionCollection__ctor_m1324282194
LWc:__ZN18UnityConnectClient33OnPlayerSessionStateChangedStaticEPS_jyy
oEf:__ZL74CaseInsensitiveHashCodeProvider_t2307530285_CustomAttributesCacheGeneratorP21CustomAttributesCache
BBg:_UIntPtr__ctor_m3900568171_AdjustorThunk
Qya:__ZN7ApiGLES4LoadE16GfxDeviceLevelGL
trb:__ZN18StreamedBinaryReadILb0EE21TransferSTLStyleArrayI13dynamic_arrayI31EnlightenSystemAtlasInformationLj8EEEEvRT_17TransferMetaFlags
mQi:__ZL24UnresolvedVirtualCall_68P12Il2CppObject18OpCode_t2247480392S0_PK10MethodInfo
yBa:__ZN4crnd12crn_unpacker22decode_color_endpointsEv
ckj:__ZN15dense_hashtableI10KeyWrapperIP18Il2CppGenericClassES3_N6il2cpp8metadata22Il2CppGenericClassHashEN14dense_hash_setIS3_S6_NS3_14EqualsComparerINS5_25Il2CppGenericClassCompareEEENSt3__29allocatorIS3_EEE8IdentityESA_SD_E15insert_noresizeERKS3_
FCe:_ReadOnlyCollection_1_System_Collections_IList_Clear_m3006875897_gshared
A1b:__ZZL31RegisterOtherRendererPropertiesR22GenericPropertyBindingEN30Wrapper_RendererReceiveShadows13GetFloatValueEPv
Hee:_Enumerator_System_Collections_IEnumerator_get_Current_m3866069145_gshared
d2e:_PreviousInfo_t581002487_marshal_pinvoke_cleanup
Bba:__ZN8Material11SetPassFastEPN9ShaderLab4PassER17ShaderPassContextP6Shaderib
o7a:__ZNK13ScreenManager13GetLockCursorEv
JWc:__ZN11UnityEngine7Connect20BasePersistentValues10SaveValuesER9JSONWrite
i0g:_Rect_get_max_m96665935_AdjustorThunk
S4f:__ZL87GUIStyle_t1799908754_CustomAttributesCacheGenerator_GUIStyle_set_fixedWidth_m2562018757P21CustomAttributesCache
wii:_RuntimeHelpers_InitializeArray_m3920580167
sHd:_ExecuteEvents_get_pointerDownHandler_m1172742772
Oue:_Collection_1_RemoveAt_m560005219_gshared
T7b:__Z14ScaleCurveTimeR17AnimationCurveTplIfEf
Evf:_X509CertificateEnumerator_System_Collections_IEnumerator_MoveNext_m3708362145
bVa:__Z12SetupLODFadeR9GfxDeviceR17ShaderPassContextf
hwi:_X501_ToString_m3328169518
W_a:__ZL24CollectForwardObjectsJobP27CollectForwardObjectsHeader
QZ:__ZN8Playable13SetGameObjectEP10GameObject
lYi:__ZNK15dense_hashtableINSt3__24pairIK10KeyWrapperIPK11Il2CppClassEPKcEES6_N6il2cpp5utils11PointerHashIS3_EEN14dense_hash_mapIS6_S9_SE_NS6_14EqualsComparerINS0_8equal_toIS5_EEEENS0_9allocatorISA_EEE9SelectKeyESJ_SL_E12test_deletedERK24dense_hashtable_iteratorISA_S6_SE_SN_SJ_SL_E
RLf:__ZL53HMACSHA256_t2622794722_CustomAttributesCacheGeneratorP21CustomAttributesCache
C2a:__ZNK25CameraStackRenderingState24ResolveTempToEyeTexturesEv
O0a:__Z13IsNodeVisibleRK9SceneNodeRK4AABBRK22SceneCullingParameters
mLg:_EventInfo__ctor_m1190141300
Gqh:_InternalEnumerator_1_MoveNext_m3585886944_gshared
MRc:__Z57RectTransformUtility_CUSTOM_INTERNAL_CALL_PixelAdjustRectP12Il2CppObjectS0_R5RectTIfE
qlg:_DelayedFixupRecord_FixupImpl_m4249966635
vQj:_emscripten_glStencilMask__wrapper
FBc:__ZZ29InitializeTextRenderingModulevEN40CleanUpTextRenderingGarbageCollectstruct7ForwardEv
E3:__ZN11TypeManager19ClassNameToTypeInfoEPKcb
C2e:_BigInteger_ToString_m3837784224
CRa:__ZN15RenderNodeQueue7CleanupEv
aMa:__ZNK17ArchiveFileSystem8PositionERK13FileEntryData
vxc:__ZN16NovodexAllocator8allocateEjPKcS1_i
AAd:_DllNotFoundException__ctor_m267198482
v_a:__Z17PrepareShadowMapsRK11CullResultsRK11ActiveLightRK10MinMaxAABB
adg:__ZL81U3CMouseDragOutsideRectU3Ec__Iterator1_t2599668326_CustomAttributesCacheGeneratorP21CustomAttributesCache
Ytg:_NativeEventCalls_CreateEvent_internal_m1605829321
mge:_List_1_GetIndex_m3409004147_gshared
F6f:__ZL73RuntimePlatform_t1869584967_CustomAttributesCacheGenerator_MetroPlayerX64P21CustomAttributesCache
lPi:__ZL24UnresolvedVirtualCall_13P12Il2CppObjectaPK10MethodInfo
ouh:_InternalEnumerator_1_System_Collections_IEnumerator_get_Current_m3239681450_AdjustorThunk
wTb:__ZNSt3__26vectorIN9ShaderLab20SerializedSubProgram15VectorParameterENS_9allocatorIS3_EEEC2ERKS6_
T_a:__ZN9ShaderLab10GrabPassesD2Ev
MZg:_MonoBehaviour_set_useGUILayout_m2666356651
Kub:__ZN14Texture2DArray13UploadTextureEv
EXh:__Z69RuntimeInvoker_TextGenerationSettings_t2543476768_Vector2_t2243707579PK10MethodInfoPvPS2_
G6c:_SecurityFrame_t1002202659_marshal_pinvoke
OFc:_tt_cmap14_done
mna:__ZN18AwakeFromLoadQueue25RegisterObjectInstanceIDsEv
Pgd:_Buffer_BlockCopy_m1586717258
pLf:__ZL93X509Certificate_t283079845_CustomAttributesCacheGenerator_X509Certificate_GetName_m2354987368P21CustomAttributesCache
vzc:__ZN20TextRenderingPrivate19NativeTextGenerator15InsertCharacterEiPj
ssh:_InternalEnumerator_1__ctor_m3589241961_AdjustorThunk
VDd:_CompareInfo_GetSortKey_m3691382873
Uxd:_DBNull_ToString_m3228904745
zmc:__ZN5IMGUI20MoveWindowFromLayoutER8GUIStateiRK5RectTIfE
r2c:_SHA1Managed_HashCore_m2658295635
KOh:__Z80RuntimeInvoker_Void_t1841601450_Int32_t2071877448_Int32_t2071877448_Il2CppObjectPK10MethodInfoPvPS2_
Oy:__ZN17AnimationPlayableD0Ev
yef:_RC4_get_IV_m506011366
qxi:_X509Crl__ctor_m2469408229
NMb:__Z18Transfer_BlittableI19StreamedBinaryWriteILb0EELb0EyEvRK29SerializationCommandArgumentsR31RuntimeSerializationCommandInfo
EIf:__ZL82SafeHandle_t2733794115_CustomAttributesCacheGenerator_SafeHandle_Close_m1146946803P21CustomAttributesCache
NBh:_Enumerator_get_CurrentValue_m3562053380_AdjustorThunk
Mwf:_X509SubjectKeyIdentifierExtension_CopyFrom_m136762226
Ece:_Enumerator_System_Collections_IEnumerator_Reset_m610822832_AdjustorThunk
ggc:__Z41MonoBehaviour_Set_Custom_PropUseGUILayoutP12Il2CppObjecth
qAc:_UNITY_FT_Open_Face
nMj:_glGenRenderbuffers__wrapper
G7h:_Bounds_ToString_m1966597703
x3e:_BigInteger_op_Division_m1581119694
ORb:__ZN16ScriptingManagerD0Ev
a4h:_UnityAnalyticsHandler_CustomEvent_m2884790978
Dmg:_CallbackHandler_Invoke_m1498072969
yqg:_DSACryptoServiceProvider__ctor_m701823690
qSg:_Mathf_Clamp_m2354025655
_Eg:_CustomAttributeData_GetCustomAttributes_m2421330738
Vlf:_SecurityParameters_set_ClientWriteMAC_m1970377285
umj:__ZN30dense_hashtable_const_iteratorINSt3__24pairIK10KeyWrapperINS1_IPKcS4_EEEiEES6_24NamespaceAndNamePairHashN14dense_hash_mapIS6_iS9_NS6_14EqualsComparerI26NamespaceAndNamePairEqualsEENS0_9allocatorIS8_EEE9SelectKeyESD_SF_EppEv
xxg:_Type_get_IsEnum_m313908919
Gcc:__Z44Register_UnityEngine_Component_get_transformv
_ne:_List_1_Reverse_m3395936565_gshared
$ue:_Collection_1_System_Collections_ICollection_CopyTo_m1335644572_gshared
Vle:_List_1_CheckMatch_m2830747427_gshared
oJa:__ZN17ArchiveFileSystem12MountArchiveEPKcS1_
jAd:_StackFrame_GetMethod_m72881026
urc:__Z18Transfer_BlittableI9JSONWriteLb1E8Vector4fEvRK29SerializationCommandArgumentsR31RuntimeSerializationCommandInfo
w_:__Z11RequireTypePKcS0_S0_
ZBh:_Enumerator_System_Collections_IEnumerator_Reset_m70453843_gshared
Zrb:__ZThn32_NK8Renderer14GetSubsetIndexEi
vCi:_Vector3_get_Item_m3616014016
weg:__ZL59Slider_t297367283_CustomAttributesCacheGenerator_m_MinValueP21CustomAttributesCache
o0b:__ZN13ProduceHelperI15ResourceManagerLb0EE7ProduceE18MemLabelIdentifier18ObjectCreationMode
mwa:__ZN9GfxDevice15ImmediateVertexEfff
RZb:__Z13RegisterClassI8MaterialEvv
HMf:__ZL51Evidence_t1407710183_CustomAttributesCacheGeneratorP21CustomAttributesCache
Ujb:__ZN16GraphicsSettings13AwakeFromLoadE17AwakeFromLoadMode
$Cd:_FieldAccessException__ctor_m3893881490
KUh:__Z82RuntimeInvoker_Int32_t2071877448_Rect_t3681755626_Il2CppObject_Vector2_t2243707579PK10MethodInfoPvPS2_
yp:__ZN6Object13AwakeFromLoadE17AwakeFromLoadMode
_ta:__ZN13GfxDeviceGLES15SetStencilStateEPK18DeviceStencilStatei
Q7i:__ZN15dense_hashtableINSt3__24pairIK10KeyWrapperINS1_IPK10MethodInfoP11Il2CppClassEEEjEES9_17ReflectionMapHashIS8_EN14dense_hash_mapIS9_jSD_NS9_14EqualsComparerINS0_8equal_toIS8_EEEENS0_9allocatorISB_EEE9SelectKeyESI_SK_E6insertERKSB_
DCj:_cycle
V_h:__Z53RuntimeInvoker_Int32_t2071877448_Keyframe_t1449471340PK10MethodInfoPvPS2_
Yzi:_TextGenerator_Populate_m4139823822
FSf:__ZL72PKCS12_t1362584795_CustomAttributesCacheGenerator_U3CU3Ef__switchU24map5P21CustomAttributesCache
Gd:_emscripten_glUniform1iv
Xah:_Text_get_preferredHeight_m452532789
j8c:_String_System_IConvertible_ToDouble_m3860911722
X9a:__ZN16MemoryFileSystemD2Ev
Jgh:_Dictionary_2_System_Collections_Generic_ICollectionU3CSystem_Collections_Generic_KeyValuePairU3CTKeyU2CTValueU3EU3E_Contains_m842343255_gshared
GUb:__ZN9ShaderLab18SerializedPropertyD2Ev
Hzc:__Z17dynamic_pptr_castIP9Texture2D7TextureET_RK4PPtrIT0_E
Ax:__ZN7mecanim14ValueArrayLoopERKNS_10ValueArrayES2_RS0_fRKNS_14ValueArrayMaskE
WDe:_ReadOnlyCollection_1_System_Collections_IList_set_Item_m1272038804_gshared
Sph:_InternalEnumerator_1_System_Collections_IEnumerator_get_Current_m1931522460_AdjustorThunk
R4c:_SecurityPermission_IsEmpty_m1869313067
xvf:_X509CertificateCollection__ctor_m3709509050
jcc:__Z37Register_UnityEngine_Camera_get_depthv
K6e:_EncryptedPrivateKeyInfo_get_Salt_m2734354394
SFe:_ReadOnlyCollection_1_System_Collections_Generic_IListU3CTU3E_set_Item_m1918537449_gshared
Dte:_Collection_1_System_Collections_ICollection_CopyTo_m3896480607_gshared
YHd:_PointerEventData_set_position_m794507622
IUh:__Z115RuntimeInvoker_Void_t1841601450_Rect_t3681755626_Il2CppObject_Int32_t2071877448_Int32_t2071877448_Int32_t2071877448PK10MethodInfoPvPS2_
r9:__ZN15dense_hashtableINSt3__24pairIKPKcPK4RTTIEES3_N11TypeManager23ConstCharPtrHashFunctorEN14dense_hash_mapIS3_S7_SA_NS9_19ConstCharPtrEqualToE13stl_allocatorIS8_L18MemLabelIdentifier6ELi16EEE9SelectKeyESC_SF_E12resize_deltaEjj
nZb:__ZN15ApplicationInfo16GetInstallerNameEv
I9a:__Z23ConvertIntegerToTypePtrItEbPvR14SafeBinaryRead
_ei:_AnimatorControllerPlayable_IsParameterControlledByCurveID_m4183631446
xu:__ZN7mecanim5human29HumanGetGoalOrientationOffsetENS0_4GoalE
Xd:_emscripten_glStencilFunc
dKh:__Z101RuntimeInvoker_Void_t1841601450_Il2CppObject_Il2CppObject_Il2CppObject_Il2CppObject_Int32_t2071877448PK10MethodInfoPvPS2_
nld:_SynchronizedArrayListWrapper_get_Capacity_m2541698837
ePi:__ZL23UnresolvedVirtualCall_6P12Il2CppObjectiPK10MethodInfo
kjh:_DefaultComparer_GetHashCode_m3315096533_gshared
aOg:_MonoMethod_MakeGenericMethod_impl_m2063853616
H6c:__Z46il2cpp_codegen_get_marshal_directive_exceptionPKc
EWb:__ZN9ShaderLab20SerializedSubProgram14AddMatrixParamEPKcii15ShaderParamTypei
be:_glGetActiveUniformBlockName
yQd:_FontData_set_verticalOverflow_m4211463083
tD:__ZN26AnimatorControllerPlayable23ValidateParameterStringE17GetSetValueResultRKN4core12basic_stringIcNS1_20StringStorageDefaultIcEEEE
vCf:__ZL65Il2CppArray_CustomAttributesCacheGenerator_Array_Sort_m2090966156P21CustomAttributesCache
FNe:_Guid_AppendByte_m2890893073
KJg:_MethodBuilder_Invoke_m1874904900
$hd:_Char_System_IConvertible_ToType_m3106771703_AdjustorThunk
aSi:__ZL25UnresolvedVirtualCall_164P12Il2CppObject22UILineInfo_t3621277874PK10MethodInfo
Pyf:_Interval_Intersects_m3480157390_AdjustorThunk
bfc:__Z39Quaternion_CUSTOM_INTERNAL_CALL_InverseRK11QuaternionfRS_
Wii:_GCHandle_Alloc_m1063472408
hJ:__ZN4FMOD7Channel20set3DConeOrientationEP11FMOD_VECTOR
wag:__ZL86StandaloneInputModule_t70867863_CustomAttributesCacheGenerator_m_InputActionsPerSecondP21CustomAttributesCache
ln:FUNCTION_TABLE_iiifii
nBh:_Comparer_1__ctor_m4052560291_gshared
W$f:__ZL54SkeletonBone_t345082847_CustomAttributesCacheGeneratorP21CustomAttributesCache
Gpg:_CryptoConfig_CreateFromName_m391442950
tnj:__ZN6il2cpp2vm12GenericClass11SetupEventsEP11Il2CppClass
WLc:_tt_delta_interpolate
HFc:_tt_cmap12_get_info
$od:_SortedList__ctor_m3698381356
t1h:__Z31RuntimeInvoker_Slot_t2022531261PK10MethodInfoPvPS2_
Xij:__ZN6il2cpp2vm15ReboxIReferenceEP14Il2CppIUnknownP11Il2CppClass
PWe:_StreamWriter_LowLevelWrite_m4205372900
TJi:__ZN6il2cpp6icalls8mscorlib6System7Decimal14decimalCompareEP19il2cpp_decimal_reprS5_
axj:__ZThn4_N6il2cpp2vm13CachedCCWBaseINS0_13ManagedObjectEE7ReleaseEv
kMg:_Module__ctor_m3853650010
Fmd:_CollectionBase_System_Collections_IList_get_Item_m2370387510
EKf:__ZL59RemotingException_t109604560_CustomAttributesCacheGeneratorP21CustomAttributesCache
Z7d:_Array_Sort_TisCustomAttributeNamedArgument_t94157543_m3436077809_gshared
ANj:_glCopyTexImage2D__wrapper
c2g:_ResourceRequest__ctor_m3340010930
ONf:__ZL88UTF7Encoding_t741406939_CustomAttributesCacheGenerator_UTF7Encoding_GetBytes_m3015176946P21CustomAttributesCache
kXd:_LayoutElement__ctor_m789941073
Y8f:__ZL77ExecuteEvents_t1693084770_CustomAttributesCacheGenerator_U3CU3Ef__mgU24cache9P21CustomAttributesCache
Z7h:_Camera_FireOnPreCull_m1679634170
VHf:__ZL68TargetInvocationException_t4098620458_CustomAttributesCacheGeneratorP21CustomAttributesCache
MRf:__ZL56RankException_t1539875949_CustomAttributesCacheGeneratorP21CustomAttributesCache
Sia:__Z18ClearByDrawingQuad13GfxClearFlagsRK10ColorRGBAffjR17ShaderPassContext
Gli:_DynamicPropertyCollection_FindProperty_m1233265924
Nka:__ZN6prcoreL17RemapGenericFloatI14TexFormatRHalf15TexFormatRFloatEEvPKNS_9InnerInfoE
QUa:__Z16ShouldUseShadowsb
FZ:__ZN15DirectorManager21RebuildStageCallbacksEv
Ola:__ZN19RuntimeSceneManager9LoadSceneERKN4core12basic_stringIcNS0_20StringStorageDefaultIcEEEES6_S6_RK9UnityGUIDiNS_11LoadingModeE
DPi:__ZL24UnresolvedVirtualCall_31P12Il2CppObjectiS0_S0_PK10MethodInfo
Z_h:__Z55RuntimeInvoker_Int32_t2071877448_UICharInfo_t3056636800PK10MethodInfoPvPS2_
rCa:__ZN7ApiGLES10DrawArraysE16GfxPrimitiveTypejjj
eci:_Event_PopEvent_m1952528237
QG:__ZN10SampleClip13LoadBaseSoundEv
DIh:__Z62RuntimeInvoker_Il2CppObject_Int32_t2071877448_SByte_t454417549PK10MethodInfoPvPS2_
jlj:__ZN15dense_hashtableINSt3__24pairIK10KeyWrapperIP12Il2CppObjectEN6il2cpp2gc9CachedCCWEEES5_NS7_5utils11PointerHashIS3_EEN14dense_hash_mapIS5_S9_SD_NS5_14EqualsComparerINS0_8equal_toIS4_EEEENS0_9allocatorISA_EEE9SelectKeyESI_SK_E15insert_noresizeERKSA_
jye:_Collection_1_Contains_m643401393_gshared
Ria:__ZN22DeviceMVPMatricesStateC2ER9GfxDevice
_Mh:__Z48RuntimeInvoker_Int64_t909078037_Int64_t909078037PK10MethodInfoPvPS2_
b8c:_String__ctor_m372528291
Ym:FUNCTION_TABLE_iifii
Icj:__ZN6il2cpp2vm10Reflection12HasAttributeEP9FieldInfoP11Il2CppClass
Xma:__ZNSt3__26__treeIiNS_4lessIiEE13stl_allocatorIiL18MemLabelIdentifier1ELi16EEE7destroyEPNS_11__tree_nodeIiPvEE
jc:invoke_viiifi
rdi:_AnimationClipPlayable_GetSpeed_m668389965
NZe:_LongComparer_Compare_m3981323622
xGh:__Z64RuntimeInvoker_UInt64_t2909196914_Il2CppObject_Int32_t2071877448PK10MethodInfoPvPS2_
fNd:_ContentSizeFitter_get_horizontalFit_m892469688
kgg:__ZL109LayoutUtility_t4076838048_CustomAttributesCacheGenerator_LayoutUtility_U3CGetFlexibleHeightU3Em__7_m947156537P21CustomAttributesCache
_5e:__ZN23InterfaceActionInvoker2IP8String_tP12Il2CppObjectE6InvokeEjP11Il2CppClassS3_S1_S3_
M9g:_Slider_FindSelectableOnUp_m15474611
Ora:__ZNK11AssetBundle14GetPreloadDataEiR13dynamic_arrayIiLj4EE
S7e:_EncryptedData_get_EncryptedContent_m2732115576
nLh:__Z81RuntimeInvoker_Boolean_t3825574718_SByte_t454417549_Il2CppObject_SByte_t454417549PK10MethodInfoPvPS2_
lf:_JS_Sound_SetPosition
Eqi:_Assertion_set_FalseExpression_m1781616372
Iwf:_X509SubjectKeyIdentifierExtension_FromHexChars_m2515150420
Voa:__ZNK9Texture3D26CanReuploadDataToGfxDeviceEv
uYi:__ZL13GetSharedInstPK17Il2CppGenericInst
cDf:__ZL51IReflect_t3412036974_CustomAttributesCacheGeneratorP21CustomAttributesCache
XJd:_StandaloneInputModule_SendSubmitEventToSelectedObject_m3421155293
ehi:_RenderPipelineManager_CleanupRenderPipeline_m2242901458
bai:_Component_GetComponentsInChildren_m908027537
zUc:__ZN22BaseUnityConnectClient17SaveSessionValuesEv
tni:_CallContextRemotingData_Clone_m2226242476
Y1:__Z63ThreadAndSerializationSafeCheckSetMonoBehaviourBeingTransferredP13MonoBehaviour
Z_a:__Z24SetupActiveLightsContextR21ActiveLightingContextRK12ActiveLightsRK11CullResultsP14ShadowMapCacheRK10MinMaxAABB
zhh:_Dictionary_2_System_Collections_Generic_ICollectionU3CSystem_Collections_Generic_KeyValuePairU3CTKeyU2CTValueU3EU3E_Contains_m3400497673_gshared
vhc:__Z38Sprite_CUSTOM_INTERNAL_get_textureRectP12Il2CppObjectP5RectTIfE
Qxd:_DBNull_System_IConvertible_ToUInt32_m2681284284
ubj:__ZNK15dense_hashtableINSt3__24pairIK10KeyWrapperIPK22Il2CppGenericParameterEPK24MonoGenericParameterInfoEES6_N6il2cpp5utils11PointerHashIS4_EEN14dense_hash_mapIS6_SA_SF_NS6_14EqualsComparerINS0_8equal_toIS5_EEEENS0_9allocatorISB_EEE9SelectKeyESK_SM_E3endEv
GWg:_HumanBone_set_boneName_m2410239828_AdjustorThunk
hjb:__ZN6Camera8TransferI24GenerateTypeTreeTransferEEvRT_
fmh:_EqualityComparer_1__cctor_m416314417_gshared
Ia:invoke_iiiiiiif
Fa:invoke_iiiiiiii
uCb:__ZN24RingBufferMemoryFileData16ConsumeReadBytesEy
_Yg:_Mesh_GetUVChannel_m364477864
$uf:_X509ChainElementCollection_Contains_m3599995067
k2a:__ZN8Renderer17PendingAddToSceneEv
tRj:b123
sRj:b122
vRj:b125
uRj:b124
xRj:b127
wRj:b126
ERj:b129
Ngc:__Z52Register_UnityEngine_RectTransform_INTERNAL_get_rectv
cDh:__Z53RuntimeInvoker_Il2CppObject_Il2CppObject_Il2CppObjectPK10MethodInfoPvPS2_
i_:__Z21PostprocessStacktracePKcRN4core12basic_stringIcNS1_20StringStorageDefaultIcEEEE
Kmf:_SslClientStream_OnLocalPrivateKeySelection_m3649986106
NIf:__ZL70TypeLibImportClassAttribute_t2390314680_CustomAttributesCacheGeneratorP21CustomAttributesCache
dca:__ZN19RenderBufferManager13GetTempBufferEii17DepthBufferFormat19RenderTextureFormatj22RenderTextureReadWrite14VRTextureUsagei
Izb:__ZN18StreamedBinaryReadILb0EE21TransferSTLStyleArrayI13dynamic_arrayI16SplashScreenLogoLj4EEEEvRT_17TransferMetaFlags
xOa:__ZNSt3__26vectorIPN9ShaderLab9SubShaderENS_9allocatorIS3_EEE21__push_back_slow_pathIKS3_EEvRT_
s_d:_Array_InternalArray__ICollection_Remove_TisX509ChainStatus_t4278378721_m4127982424_gshared
tcc:__Z47Register_UnityEngine_Camera_get_allCamerasCountv
J2h:__Z37RuntimeInvoker_Enumerator_t2809602155PK10MethodInfoPvPS2_
p1c:___clang_call_terminate
CUc:__ZN22BaseUnityConnectClient20StartEventDispatcherEv
X6b:__ZNSt3__26vectorIj13stl_allocatorIjL18MemLabelIdentifier1ELi16EEE6assignIPKtEENS_9enable_ifIXaasr21__is_forward_iteratorIT_EE5valuesr16is_constructibleIjNS_15iterator_traitsIS9_E9referenceEEE5valueEvE4typeES9_S9_
qs:__ZN7mecanim9animation16EvaluateAvatarIKEPKNS0_14AvatarConstantEPKNS0_11AvatarInputEPNS0_12AvatarOutputEPNS0_12AvatarMemoryEPNS0_15AvatarWorkspaceEb
UCa:__ZL25ProgramUniformMatrix4x3fvPK7ApiGLESjiihPKv
$8a:__Z29StdTemplateConversionFunctionIsiEbPvR14SafeBinaryRead
DOa:__ZN12InputManager13InputEndFrameEv
God:_SyncHashtable__ctor_m2029869827
Z0i:__ZNSt3__26__treeIP11Il2CppClassNS_4lessIS2_EENS_9allocatorIS2_EEE25__emplace_unique_key_argsIS2_JRKS2_EEENS_4pairINS_15__tree_iteratorIS2_PNS_11__tree_nodeIS2_PvEEiEEbEERKT_DpOT0_
Gej:__ZN6il2cpp2vm6Thread5SetupEP12Il2CppThread
fHe:_ReadOnlyCollection_1_System_Collections_IList_Remove_m2200089035_gshared
yte:_Collection_1_CheckWritable_m2756357359_gshared
IDj:___munmap
FUd:_InputField_get_characterLimit_m2386380888
hbg:__ZL68ColorBlock_t2652774230_CustomAttributesCacheGenerator_m_PressedColorP21CustomAttributesCache
Ftd:_Convert_ToInt64_m1722087499
cg:_localtime_r
WRh:__Z74RuntimeInvoker_Vector3_t2243707580_Vector3_t2243707580_Vector3_t2243707580PK10MethodInfoPvPS2_
pRh:__Z80RuntimeInvoker_Il2CppObject_Ray_t2469606224_Single_t2076509932_Int32_t2071877448PK10MethodInfoPvPS2_
KOf:__ZL81AppDomain_t2719102437_CustomAttributesCacheGenerator_assembly_resolve_in_progressP21CustomAttributesCache
zIf:__ZL65InterfaceTypeAttribute_t4113096249_CustomAttributesCacheGeneratorP21CustomAttributesCache
eg:_strftime
nca:__ZN7Texture33SetStoredColorSpaceNoDirtyNoApplyE17TextureColorSpace
bY:__ZN12FileAccessorD2Ev
Nha:__ZN10ColorRGBAf8TransferI18StreamedBinaryReadILb0EEEEvRT_
rvb:__ZN14VertexDataInfoC2Ev
WCd:_Exception_GetObjectData_m2653827630
FYf:__ZL75Mesh_t1356156583_CustomAttributesCacheGenerator_Mesh_HasChannel_m3616583481P21CustomAttributesCache
CCi:_Vector3_Equals_m2692262876_AdjustorThunk
Zsh:_InternalEnumerator_1_get_Current_m2415979394_gshared
yOb:__ZL17Transfer_GUIStyleI18StreamedBinaryReadILb1EELb1EEvRK29SerializationCommandArgumentsR31RuntimeSerializationCommandInfo
M6g:_ScrollRect_SetDirtyCaching_m1491302821
s1i:__ZN6il2cpp6icalls8mscorlib6SystemL9IsPrivateEPK12PropertyInfo
aFg:_CustomAttributeData_GetCustomAttributes_m3258419955
I0:__ZN9shadertag10InitializeEv
dVa:__ZN13BatchRenderer20RenderSingleWithPassER17ShaderPassContextPK18SharedMaterialDataP6ShaderPN9ShaderLab4PassEiPKNS7_10GrabPassesEjib15BatchBreakCause
x_f:__ZL80Object_t1021602117_CustomAttributesCacheGenerator_Object_Instantiate_m2489341053P21CustomAttributesCache
Jbd:_EncoderFallback__ctor_m1639180960
PD:__Z92Register_UnityEngine_Experimental_Director_AnimationOffsetPlayable_INTERNAL_CALL_SetRotationv
qzh:_InternalEnumerator_1_MoveNext_m1441038493_gshared
ftb:__ZN15QualitySettings14QualitySetting8TransferI24GenerateTypeTreeTransferEEvRT_
l4d:_Array_InternalArray__ICollection_CopyTo_TisParameterModifier_t1820634920_m4127516211_gshared
gbd:_DecoderReplacementFallback__ctor_m2344783488
dch:_Enumerator_System_Collections_IDictionaryEnumerator_get_Key_m467957770_AdjustorThunk
XQd:_GraphicRegistry_UnregisterGraphicForCanvas_m820096873
HMc:__Z28Font_Get_Custom_PropMaterialP12Il2CppObject
ixj:__ZN6il2cpp6icalls8mscorlib6System9Threading16NativeEventCalls19ResetEvent_internalE12Il2CppIntPtr
O8f:__ZL65EventTrigger_t1967201810_CustomAttributesCacheGenerator_delegatesP21CustomAttributesCache
hxc:__ZL34CleanupModule_PerformanceReportingv
yve:_Collection_1_Remove_m4136193368_gshared
MGd:_EventTrigger_OnPointerUp_m2791622548
V8g:_Shadow_set_useGraphicAlpha_m141905402
k6b:__ZN22BlockMemoryCacheWriter14LockCacheBlockEjPPhS1_
epj:__ZN6il2cpp2os6Thread10RunWrapperEPv
Qlc:__ZNSt3__218__insertion_sort_3IRPFbPKN5IMGUI9GUIWindowES4_EPPS2_EEvT0_SA_T_
WKi:_GenericEqualityComparer_1_Equals_m1109000020_gshared
Vjg:_RealProxy_InternalGetTransparentProxy_m3415358600
Duc:__Z22TransferField_NonArrayI8JSONRead27Converter_SimpleNativeClassI8GUIStyleEEvRK23StaticTransferFieldInfoR31RuntimeSerializationCommandInfoRT0_
BVi:__ZN15dense_hashtableI10KeyWrapperIPK19Il2CppGenericMethodES4_N6il2cpp8metadata23Il2CppGenericMethodHashEN14dense_hash_setIS4_S7_NS4_14EqualsComparerINS6_26Il2CppGenericMethodCompareEEENSt3__29allocatorIS4_EEE8IdentityESB_SE_E16reset_thresholdsEv
dge:__ZN23InterfaceActionInvoker2IP24ObjectU5BU5D_t3614634134iE6InvokeEjP11Il2CppClassP12Il2CppObjectS1_i
j1f:__ZL131AnimatorControllerPlayable_t4078305555_CustomAttributesCacheGenerator_AnimatorControllerPlayable_PlayInternal_m3385259863____layer2P21CustomAttributesCache
Kg:_llvm_eh_typeid_for
j4b:__Z13RegisterClassI10GameObjectEvv
EEf:__ZL53HashValues_t2390200547_CustomAttributesCacheGeneratorP21CustomAttributesCache
Ltf:_X509BasicConstraintsExtension_get_PathLengthConstraint_m3004531343
mGf:__ZL125GenericTypeParameterBuilder_t1370236603_CustomAttributesCacheGenerator_GenericTypeParameterBuilder_GetConstructors_m103067670P21CustomAttributesCache
WYe:_MissingMemberException__ctor_m4277447068
kge:_List_1_Find_m1881447651_gshared
qPg:_StrongNameKeyPair_System_Runtime_Serialization_ISerializable_GetObjectData_m1693082120
Ipf:_NameValueCollection__ctor_m1767369537
nQb:__Z18Transfer_BlittableI18StreamedBinaryReadILb0EELb1E8Vector4fEvRK29SerializationCommandArgumentsR31RuntimeSerializationCommandInfo
Ynh:_EqualityComparer_1__ctor_m3155445483_gshared
Tpj:__ZN6il2cpp2vm6Method8GetParamEPK10MethodInfoj
AQe:_Int64_CompareTo_m1953686218
rKi:_GenericComparer_1__ctor_m221205314_gshared
$hj:__ZN6il2cpp6icalls8mscorlib6System2IO6MonoIO4ReadE12Il2CppIntPtrP11Il2CppArrayiiPi
XPj:_glBindVertexArray__wrapper
uqg:_DSA_Create_m3450041777
Hga:__ZN8Material8TransferI14SafeBinaryReadEEvRT_
dbi:_Debug_LogWarningFormat_m79553173
apb:__ZN12CubemapArray17UploadToGfxDeviceEv
m7g:_ScrollRect_AdjustBounds_m1033723448
_ka:__ZN6prcoreL17RemapGenericFloatI15TexFormatRGHalf17TexFormatRGBAHalfEEvPKNS_9InnerInfoE
Dde:_Enumerator_System_Collections_IEnumerator_Reset_m2200349770_gshared
fze:_Collection_1_get_Item_m3791221403_gshared
$Lf:__ZL54PaddingMode_t3032142640_CustomAttributesCacheGeneratorP21CustomAttributesCache
qej:__ZN24dense_hashtable_iteratorINSt3__24pairIK10KeyWrapperIP11Il2CppClassES4_EES5_N6il2cpp8metadata16SZArrayClassHashEN14dense_hash_mapIS5_S4_SA_NS5_14EqualsComparerINS9_19SZArrayClassCompareEEENS0_9allocatorIS7_EEE9SelectKeyESE_SG_E30advance_past_empty_and_deletedEv
SYh:__Z75RuntimeInvoker_Void_t1841601450_ConstraintU26_t2775779428_Int32_t2071877448PK10MethodInfoPvPS2_
XCg:_OrdinalComparer__ctor_m2952942058
_Oh:__Z107RuntimeInvoker_Boolean_t3825574718_Int32_t2071877448_Int64U5BU5DU26_t2476256456_StringU5BU5DU26_t3730240492PK10MethodInfoPvPS2_
xuf:_X509Chain_CheckRevocationOnChain_m2441901351
Vwj:__ZN6il2cpp2vm13ManagedObject14QueryInterfaceERK10Il2CppGuidPPv
B3c:_SymmetricAlgorithm_CreateDecryptor_m4240570785
cyg:_Type_GetMethod_m3650909507
kH:__ZN11AudioSource4StopEb
jCj:_frexp
gIb:__ZN14SafeBinaryRead21TransferSTLStyleArrayI13dynamic_arrayI10Matrix4x4fLj4EEEEvRT_17TransferMetaFlags
kze:_Collection_1_CheckWritable_m732350052_gshared
ahd:_Byte_System_IConvertible_ToDecimal_m1036493607
AOf:__ZL47Timer_t791717973_CustomAttributesCacheGeneratorP21CustomAttributesCache
hba:__Z25GetSplashScreenBackgroundRK5RectTIfE
q9:__ZN14dense_hash_mapIPKcPK4RTTIN11TypeManager23ConstCharPtrHashFunctorENS5_19ConstCharPtrEqualToE13stl_allocatorINSt3__24pairIKS1_S4_EEL18MemLabelIdentifier6ELi16EEEixERSB_
ocg:__ZL65Image_t2042527209_CustomAttributesCacheGenerator_m_PreserveAspectP21CustomAttributesCache
FXc:__ZN13RuntimeStaticI19UnityConnectServiceLb0EE16StaticInitializeEPv
Qzh:_DefaultComparer_Compare_m1247109616_gshared
qhi:_ResourceManager__ctor_m498829021
XGa:__ZN18GlslGpuProgramGLESD2Ev
K6a:__ZN13RenderTexture14SetVolumeDepthEi
Emg:_SerializationCallbacks__ctor_m722356782
hvc:__ZN10Matrix4x4f8TransferI8JSONReadEEvRT_
G3:__ZN14dense_hash_mapIPKcPK4RTTIN11TypeManager23ConstCharPtrHashFunctorENS5_19ConstCharPtrEqualToE13stl_allocatorINSt3__24pairIKS1_S4_EEL18MemLabelIdentifier6ELi16EEE5beginEv
AIf:__ZL49Marshal_t785896760_CustomAttributesCacheGeneratorP21CustomAttributesCache
M1:__ZN17PersistentManager18ReadObjectThreadedEi
_xa:__ZN25TransformFeedbackSkinning31CleanupTransformFeedbackShadersEv
ytj:__ZN6il2cpp6icalls8mscorlib6System7Runtime16CompilerServices14RuntimeHelpers15InitializeArrayEP11Il2CppArray12Il2CppIntPtr
wuh:_InternalEnumerator_1_System_Collections_IEnumerator_get_Current_m2851415307_gshared
xzc:__ZNK20TextRenderingPrivate8FontImpl19GetCharacterAdvanceEjijfPj
vzj:__ZN6il2cpp6icalls8mscorlib4Mono8Security12Cryptography18KeyPairPersistence16_IsUserProtectedEP12Il2CppString
bFe:_ReadOnlyCollection_1_Contains_m3936562733_gshared
Zpf:_DefaultUriParser__ctor_m4218024811
AGg:_DerivedType_GetField_m3960169619
ryd:_Decimal_System_IConvertible_ToInt16_m3159038792_AdjustorThunk
aub:__ZN10VertexData8TransferI18StreamedBinaryReadILb0EEEEvRT_
_Li:_OnCommandSentHandler__ctor_m3467892046
v8e:_PKCS12_GetExistingParameters_m2413397265
xxe:_Collection_1_ClearItems_m4268731177_gshared
W6a:__ZN14PreloadManager16UpdatePreloadingEv
Bib:__ZN12BaseRendererD2Ev
vmb:__ZN14SafeBinaryRead21TransferSTLStyleArrayI19StaticArrayTransferIiLi4EEEEvRT_17TransferMetaFlags
evi:_X509CertificateCollection__ctor_m858704242
Dee:_Enumerator__ctor_m425576865_AdjustorThunk
IHh:__Z148RuntimeInvoker_Int32_t2071877448_Il2CppObject_Int32_t2071877448_Int32_t2071877448_Il2CppObject_Int32_t2071877448_Int32_t2071877448_Int32_t2071877448PK10MethodInfoPvPS2_
cHe:_ReadOnlyCollection_1_System_Collections_IList_Contains_m1545447998_gshared
srj:__ZN14dense_hash_mapI10KeyWrapperIPK19Il2CppGenericMethodEP10MethodInfoN6il2cpp8metadata23Il2CppGenericMethodHashENS4_14EqualsComparerINS8_26Il2CppGenericMethodCompareEEENSt3__29allocatorINSD_4pairIKS4_S6_EEEEEC2EjRKS9_RKSC_
ccb:__ZNK21UnityDefaultAllocatorI17LowLevelAllocatorE8ContainsEPKv
e$i:__ZNSt3__213__vector_baseI6pollfdNS_9allocatorIS1_EEED2Ev
eif:_ClientSessionInfo_get_Id_m3046630969
Uh:_emscripten_get_main_loop_timing
VSe:_DirectoryInfo__ctor_m3750996792
oLd:_BaseMeshEffect_ModifyMesh_m2134816219
g7d:_Array_qsort_TisVector2_t2243707579_m3527759534_gshared
etb:__ZN24GenerateTypeTreeTransfer21TransferSTLStyleArrayINSt3__26vectorIN15QualitySettings14QualitySettingENS1_9allocatorIS4_EEEEEEvRT_17TransferMetaFlags
b2g:_ResourceRequest_t2560315377_marshal_pinvoke_cleanup
_4a:__ZN23ManagedAttributeManager52CallManagedGetParentTypeDisallowingMultipleInclusionE17ScriptingClassPtr
Zae:_Array_InternalArray__get_Item_TisAnimatorClipInfo_t3905751349_m2163447872_gshared
one:_List_1_System_Collections_Generic_IEnumerableU3CTU3E_GetEnumerator_m166627113_gshared
$xb:__ZNSt3__26vectorI9InputAxisNS_9allocatorIS1_EEE6resizeEj
X0d:__ZN21InterfaceFuncInvoker2Ii19Vector2_t2243707579S0_E6InvokeEjP11Il2CppClassP12Il2CppObjectS0_S0_
kVa:__ZN13BatchRendererC2ER15RenderLoopStatsRK15RenderNodeQueuebbb
Y4c:_SecurityElement_IsValidAttributeValue_m483287146
hbd:_Decoder_set_Fallback_m1780632169
ep:getTempRet0
LTh:__Z81RuntimeInvoker_Void_t1841601450_PlayableHandleU26_t3483893774_Vector3_t2243707580PK10MethodInfoPvPS2_
ydi:_AnimationClipPlayable_set_applyFootIK_m1054409049
Icd:_ArithmeticException__ctor_m104771799
rKh:__Z114RuntimeInvoker_Void_t1841601450_Il2CppObject_Il2CppObject_Int32_t2071877448_Il2CppObject_Il2CppObject_Il2CppObjectPK10MethodInfoPvPS2_
sEg:_AssemblyTitleAttribute__ctor_m1696431446
PTd:_Image_AddQuad_m1603575622
Yrj:__ZN24dense_hashtable_iteratorINSt3__24pairIK10KeyWrapperIPK19Il2CppGenericMethodEP10MethodInfoEES6_N6il2cpp8metadata23Il2CppGenericMethodHashEN14dense_hash_mapIS6_S9_SD_NS6_14EqualsComparerINSC_26Il2CppGenericMethodCompareEEENS0_9allocatorISA_EEE9SelectKeyESH_SJ_E30advance_past_empty_and_deletedEv
tef:_PrivateKeyInfo_RemoveLeadingZero_m3396807048
TAe:_ReadOnlyCollection_1_System_Collections_Generic_ICollectionU3CTU3E_get_IsReadOnly_m1251192075_gshared
bge:_List_1_GrowIfNeeded_m185971996_gshared
Bfj:__ZN6il2cpp6icalls8mscorlib6System9ThreadingL21lookup_cached_cultureEP12Il2CppThreadi
V$a:__ZN18DeferredRenderLoopD2Ev
FIg:_GenericTypeParameterBuilder_GetMethods_m1243855818
z4:__ZNK16TypeTreeIterator4NameEv
aBf:__ZL40UIntPtr_t_CustomAttributesCacheGeneratorP21CustomAttributesCache
AX:__ZN15FileSystemEntry3SetEPKc
Ryh:_InternalEnumerator_1__ctor_m2808001655_gshared
m$c:_MACTripleDES__ctor_m884945242
fbc:__Z52Register_UnityEngine_Application_set_targetFrameRatev
SI:__ZN20SoundChannelInstance15ParameterBuffer5ApplyEPN4FMOD7ChannelE
oxb:__ZN23SharedMeshRenderingDataD0Ev
UE:__Z117Register_UnityEngine_Experimental_Director_AnimatorControllerPlayable_INTERNAL_CALL_GetAnimatorTransitionInfoInternalv
uzc:__ZN20TextRenderingPrivate19NativeTextGenerator9InsertTabEv
qBf:__ZL73Enum_t2459695545_CustomAttributesCacheGenerator_Enum_ToObject_m1688724857P21CustomAttributesCache
GRg:_Rect_set_y_m4294916608
PUc:__ZN11UnityEngine15PlatformWrapper24GetRuntimePlatformStringEv
Di:_glIsEnabled
YRb:__ZN15CacheWriterBaseD2Ev
zeg:__ZL56Slider_t297367283_CustomAttributesCacheGenerator_m_ValueP21CustomAttributesCache
xEb:__Z25scripting_class_get_image17ScriptingClassPtr
kZf:__ZL85Material_t193706927_CustomAttributesCacheGenerator_Material_GetTextureImpl_m623159197P21CustomAttributesCache
Hi:_emscripten_glDrawElementsInstanced
uz:__ZN26AnimatorControllerPlayable27SetupStateMachineBehavioursEv
Vcf:_ARC4Managed_Dispose_m4102232694
ndf:_HMAC_Initialize_m3052649104
Jqa:__ZN18JobBatchDispatcherD2Ev
FXb:__ZN9Transform17MainThreadCleanupEv
Ivj:_GC_clear_hdr_marks
WKj:_glScissor__wrapper
SQj:_emscripten_glCreateShader__wrapper
rUd:_InputField_get_caretSelectPositionInternal_m3523572533
ZHc:_cff_fd_select_get
Q0f:__ZL123AnimatorControllerPlayable_t4078305555_CustomAttributesCacheGenerator_AnimatorControllerPlayable_PlayInFixedTime_m172593751P21CustomAttributesCache
eIf:__ZL73CompilationRelaxationsAttribute_t238494011_CustomAttributesCacheGeneratorP21CustomAttributesCache
a3f:__ZL95CanvasRenderer_t261436805_CustomAttributesCacheGenerator_CanvasRenderer_SetMaterial_m1462355522P21CustomAttributesCache
dYc:__ZN11UnityEngine15PlatformWrapper23GetApplicationBuildGUIDEv
Wah:_Text_get_minHeight_m1562513104
$2c:_SHA512Managed_processBlock_m3220567420
mpf:_NameObjectCollectionBase_get_Keys_m446053925
Ri:_emscripten_glGetShaderiv
odh:_Transform_1__ctor_m353209818_gshared
ENa:__ZZ23InitPlayerLoopCallbacksvEN41EarlyUpdateUpdateAllUnityWebStreamsstruct7ForwardEv
UJ:__ZN4FMOD6System10getVersionEPj
uTe:_FileLoadException_GetObjectData_m2047020314
j6f:__ZL96RemoteSettings_t392466225_CustomAttributesCacheGenerator_RemoteSettings_CallOnUpdate_m1624968574P21CustomAttributesCache
d2d:_Array_InternalArray__IndexOf_TisSByte_t454417549_m1427585061_gshared
fEh:__Z75RuntimeInvoker_Byte_t3683104436_Il2CppObject_Int32_t2071877448_Il2CppObjectPK10MethodInfoPvPS2_
oNc:__ZN2UI6Canvas23VirtualRedirectTransferER24GenerateTypeTreeTransfer
Mqd:_Decimal_u64_m3991988111
CDi:_YieldInstruction_t3462875981_marshal_pinvoke
BFi:_Predicate_1_BeginInvoke_m2959352225_gshared
Aih:_Dictionary_2_CopyToCheck_m2147716750_gshared
yvi:_X509Certificate_Parse_m1764345628
Jmi:_SynchronizationAttribute_GetClientContextSink_m1264319894
ayc:__ZN13TextRendering4Font13AwakeFromLoadE17AwakeFromLoadMode
Zua:__ZN9GfxDevice21ReleaseSharedMeshDataEP14SharedMeshData
K9e:_SmallXmlParser_Peek_m2814840810
Ryb:__ZNSt3__27__sort5IRNS_6__lessINS_4pairIPKN5Unity4TypeE7Hash128EES8_EEPS8_EEjT0_SC_SC_SC_SC_T_
rwe:_Collection_1_ConvertItem_m3168406667_gshared
tUi:__ZNK15dense_hashtableINSt3__24pairIK10KeyWrapperIPKcEP11Il2CppClassEES5_N6il2cpp5utils11StringUtils12StringHasherIS4_EEN14dense_hash_mapIS5_S8_SE_NS5_14EqualsComparerINSC_21CaseSensitiveComparerEEENS0_9allocatorIS9_EEE9SelectKeyESI_SK_E10test_emptyEj
vHi:_UnityAction_1_EndInvoke_m2822290096_gshared
Puj:_GC_unreachable_finalize_mark_proc
aTh:__Z75RuntimeInvoker_Il2CppObject_PlayableHandleU26_t3483893774_Int32_t2071877448PK10MethodInfoPvPS2_
lwj:_maybe_finalize
ive:_Collection_1_System_Collections_ICollection_get_SyncRoot_m2547259708_gshared
Gni:_ConstructionCall_GetObjectData_m3974358557
Fgc:__Z43RectTransform_CUSTOM_INTERNAL_get_anchorMaxP12Il2CppObjectP13Vector2fIcall
xxd:_DateTimeOffset_get_DateTime_m229084964_AdjustorThunk
uga:__ZN8Material28UpdateHashesOnPropertyChangeEN9ShaderLab16FastPropertyNameE
phc:__Z53Register_UnityEngine_SortingLayer_GetLayerValueFromIDv
Cde:_Enumerator__ctor_m3512622280_AdjustorThunk
_mh:_EqualityComparer_1_System_Collections_IEqualityComparer_Equals_m349194518_gshared
jmd:_CaseInsensitiveComparer_Compare_m1192858479
jGb:__Z18Transfer_BlittableI14SafeBinaryReadLb1E8Vector4fEvRK29SerializationCommandArgumentsR31RuntimeSerializationCommandInfo
cWe:_StreamAsyncResult_set_Done_m4272090534
hYd:_LayoutRebuilder_Clear_m2390054824
Dwe:_Collection_1_System_Collections_IList_Insert_m2968289909_gshared
MEg:_Default_SelectMethod_m622251293
_L:__ZN11AudioSource12AddToManagerEv
Hr:__ZN8Animator23VirtualRedirectTransferER19StreamedBinaryWriteILb0EE
jni:_AsyncResult_get_NextSink_m1172723924
Kv:__ZN11UnityEngine9Animation32CreateAnimatorGenericBindingsOptERKNS0_20AnimationSetBindingsER9TransformPKN7mecanim9animation14AvatarConstantEPKNS0_21AvatarBindingConstantEbRNS6_6memory9AllocatorER8Animator
Ulj:__ZN6il2cpp2vm5Image13ClassFromNameEPK11Il2CppImagePKcS6_
dHj:dynCall_vdddddd
QUb:__ZN24GenerateTypeTreeTransfer21TransferSTLStyleArrayINSt3__26vectorIN9ShaderLab14SerializedPassENS1_9allocatorIS4_EEEEEEvRT_17TransferMetaFlags
r1:__ZL32MarkLevelGameManagerDependenciesR27GarbageCollectorThreadState
sQh:__Z49RuntimeInvoker_Void_t1841601450_UInt16_t986882611PK10MethodInfoPvPS2_
hxa:__ZNK13GfxDeviceGLES26HasActiveRandomWriteTargetEv
x1h:__Z37RuntimeInvoker_ILTokenInfo_t149559338PK10MethodInfoPvPS2_
NLj:_glGetActiveUniformsiv__wrapper
mhc:__Z43Register_UnityEngine_Material_EnableKeywordv
R2:__ZN13MonoBehaviour19SetupScriptingCacheE17ScriptingClassPtrP10MonoScript
JOh:__Z59RuntimeInvoker_Il2CppObject_Double_t4078015681_Il2CppObjectPK10MethodInfoPvPS2_
Zq:__Z20AnimationEventToMonoRK14AnimationEventR18MonoAnimationEvent
GYf:__ZL85Mesh_t1356156583_CustomAttributesCacheGenerator_Mesh_ExtractArrayFromList_m1349408169P21CustomAttributesCache
BPh:__Z83RuntimeInvoker_Void_t1841601450_Il2CppObject_Il2CppObject_Il2CppObject_Il2CppObjectPK10MethodInfoPvPS2_
v1:__ZNK15dense_hashtableINSt3__24pairIKiiEEi21InstanceIDHashFunctorN14dense_hash_mapIiiS4_NS0_8equal_toIiEE13stl_allocatorIS3_L18MemLabelIdentifier1ELi16EEE9SelectKeyES7_SA_E13find_positionERS2_
X3g:_Navigation_get_selectOnLeft_m3980387574_AdjustorThunk
Sqe:_List_1_Sort_m2158253314_gshared
C7f:__ZL74UnityEventBase_t828812576_CustomAttributesCacheGenerator_m_PersistentCallsP21CustomAttributesCache
gjh:_DefaultComparer__ctor_m2265472997_gshared
Dhj:__ZN6il2cpp2vm13LivenessState18ShouldProcessValueEP12Il2CppObjectP11Il2CppClass
yxb:__ZN4PPtrI6SpriteE8TransferI14SafeBinaryReadEEvRT_
wdj:__ZN15dense_hashtableINSt3__24pairIK10KeyWrapperIP11Il2CppClassES4_EES5_N6il2cpp8metadata16SZArrayClassHashEN14dense_hash_mapIS5_S4_SA_NS5_14EqualsComparerINS9_19SZArrayClassCompareEEENS0_9allocatorIS7_EEE9SelectKeyESE_SG_E16reset_thresholdsEv
bKh:__Z45RuntimeInvoker_Il2CppObject_IntPtr_t_IntPtr_tPK10MethodInfoPvPS2_
mUb:__ZNSt3__26vectorIN9ShaderLab14SerializedPassENS_9allocatorIS2_EEE8__appendEj
FTb:__ZNSt3__26vectorIN9ShaderLab20SerializedSubProgram13BufferBindingENS_9allocatorIS3_EEEC2INS_11__wrap_iterIPS3_EEEET_SB_RKS5_PNS_9enable_ifIXaasr21__is_forward_iteratorISB_EE5valuesr16is_constructibleIS3_NS_15iterator_traitsISB_E9referenceEEE5valueEvE4typeE
Gif:_Context_get_SupportedCiphers_m2172827298
F2b:__ZZL23RegisterLightPropertiesR22GenericPropertyBindingEN20Wrapper_LightColorb213GetFloatValueEPv
nW:__ZNK13ScreenManager21IsMultiDisplayEnabledEv
RHh:__Z170RuntimeInvoker_Int32_t2071877448_Il2CppObject_Int32_t2071877448_Int32_t2071877448_Il2CppObject_Int16_t4041245914_Int32_t2071877448_SByte_t454417549_ContextU26_t3131521781PK10MethodInfoPvPS2_
mqb:__ZN9Texture2D23VirtualRedirectTransferER18StreamedBinaryReadILb0EE
_Ad:_Double_System_IConvertible_ToUInt16_m286326038_AdjustorThunk
Okg:_TypeInfo__ctor_m1475908211
nib:__ZNSt3__26__treeINS_12__value_typeIN4core12basic_stringIcNS2_20StringStorageDefaultIcEEEEjEENS_19__map_value_compareIS6_S7_NS_4lessIS6_EELb1EEE13stl_allocatorIS7_L18MemLabelIdentifier6ELi16EEE7destroyEPNS_11__tree_nodeIS7_PvEE
x3:__ZN16ScriptingManager27NativeTypeForScriptingClassE17ScriptingClassPtr
yuf:_X509Chain_WrapUp_m1072032285
Uwi:_X509CertificateEnumerator_System_Collections_IEnumerator_MoveNext_m1448966539
$Ec:_get_sfnt_table
vbe:_Object_FindObjectOfType_TisIl2CppObject_m2967490724_gshared
Uhf:_TlsServerHelloDone__ctor_m2125611008
GPa:_unity_z_tr_stored_block
nDh:__Z46RuntimeInvoker_Single_t2076509932_Il2CppObjectPK10MethodInfoPvPS2_
OZb:__Z13RegisterClassI5LightEvv
z0d:_Array_compare_TisIl2CppObject_m1481822507_gshared
_Hd:_PointerEventData_set_pressPosition_m2094137883
Orb:__ZN8Renderer20RendererAddedToSceneEv
e1f:__ZL132AnimatorControllerPlayable_t4078305555_CustomAttributesCacheGenerator_AnimatorControllerPlayable_Play_m1100499576____normalizedTime2P21CustomAttributesCache
h1a:__ZL22ScheduleSceneNodesJobsP25ScheduleSceneNodesJobDataj
Fk:_emscripten_set_canvas_size
oCf:__ZL65Il2CppArray_CustomAttributesCacheGenerator_Array_Sort_m3645766612P21CustomAttributesCache
Hbf:_BigInteger_op_Subtraction_m972393015
gBh:_Comparer_1__cctor_m2253684996_gshared
XTb:__ZNSt3__26vectorIN9ShaderLab20SerializedSubProgramENS_9allocatorIS2_EEE8__appendEj
PU:__ZN20DynamicHeapAllocatorI17LowLevelAllocatorE8AllocateEji
SSc:__ZN11UnityEngine9Analytics15UserCustomEvent12ToJsonStringER9JSONWrite
MVa:__ZN20DynamicPropertySheet15SetVectorQueuedERKN9ShaderLab16FastPropertyNameERK8Vector4fN19ShaderPropertySheet8SetFlagsE
I8e:_PKCS12_get_IterationCount_m3572300030
G6h:_DefaultExecutionOrder_get_order_m1561221759
PEe:_ReadOnlyCollection_1_System_Collections_IEnumerable_GetEnumerator_m4248982967_gshared
os:__ZN7mecanim9animation22EvaluateAvatarRetargetEPKNS0_14AvatarConstantEPKNS0_11AvatarInputEPNS0_12AvatarOutputEPNS0_12AvatarMemoryEPNS0_15AvatarWorkspaceEb
rYd:_LayoutRebuilder_GetHashCode_m2745108660
xnb:__ZN14RenderSettings23VirtualRedirectTransferER19StreamedBinaryWriteILb0EE
Jrc:__ZL26Transfer_SimpleNativeClassI9JSONWrite10RectOffsetLb0EEvRK29SerializationCommandArgumentsR31RuntimeSerializationCommandInfo
hvj:_GC_push_conditional
dTc:__ZN21UnityAnalyticsManager23VirtualRedirectTransferER24GenerateTypeTreeTransfer
JAa:__ZN17GenericDynamicVBO10AllocateVBEjR21DynamicVBOChunkHandle
Bhe:_List_1_get_Item_m1547593893_gshared
m$h:__Z70RuntimeInvoker_Void_t1841601450_CustomAttributeNamedArgument_t94157543PK10MethodInfoPvPS2_
GSe:_Path_GetPathRoot_m1269357080
Qjj:__ZN30dense_hashtable_const_iteratorI10KeyWrapperIP18Il2CppGenericClassES3_N6il2cpp8metadata22Il2CppGenericClassHashEN14dense_hash_setIS3_S6_NS3_14EqualsComparerINS5_25Il2CppGenericClassCompareEEENSt3__29allocatorIS3_EEE8IdentityESA_SD_EppEv
jnd:_KeyNotFoundException__ctor_m264393096
pGd:_EventSystem_SetSelectedGameObject_m2211816110
Adh:_Transform_1__ctor_m4161450529_gshared
bl:_glMapBufferRange
fqb:__ZN9Texture2D8TransferI18StreamedBinaryReadILb0EEEEvRT_
yec:__Z31Input_CUSTOM_GetMouseButtonDowni
tCf:__ZL65Il2CppArray_CustomAttributesCacheGenerator_Array_Sort_m1730553742P21CustomAttributesCache
Rrj:__ZN15dense_hashtableINSt3__24pairIK10KeyWrapperIPK19Il2CppGenericMethodEP10MethodInfoEES6_N6il2cpp8metadata23Il2CppGenericMethodHashEN14dense_hash_mapIS6_S9_SD_NS6_14EqualsComparerINSC_26Il2CppGenericMethodCompareEEENS0_9allocatorISA_EEE9SelectKeyESH_SJ_E3endEv
W4b:__ZN13PlayableGraph4PlayEv
wTa:__ZNK9Transform16GetLocalPositionEv
aYf:__ZL89Input_t1785128008_CustomAttributesCacheGenerator_Input_get_imeCompositionMode_m4250689464P21CustomAttributesCache
Zcd:_Array_System_Collections_ICollection_get_Count_m2897196527
Tra:__ZN13LoadOperation19IntegrateTimeSlicedEi
Psb:__ZNK15QualitySettings26GetTypeInfoVirtualInternalEv
myf:_InterpreterFactory__ctor_m3331468903
a9e:_X501__cctor_m3795360380
uxa:__ZN13GfxDeviceGLES22DispatchComputeProgramE12ObjectHandleI18ComputeProgram_TagPvE15ComputeBufferIDj
VVg:_GUIStyle_set_contentOffset_m2138084868
oue:_Collection_1_System_Collections_ICollection_CopyTo_m4193844941_gshared
ytd:_Convert_ToInt32_m2297793940
nqa:__Z17TransformAABBSlowRK4AABBRK10Matrix4x4fRS_
_qb:__ZN15SerializeTraitsI13dynamic_arrayI7Hash128Lj8EEE19ResizeSTLStyleArrayERS2_i18MemLabelIdentifier
qcj:__ZN13Il2CppHashMapINSt3__24pairIPK9FieldInfoP11Il2CppClassEEj17ReflectionMapHashIS7_ENS0_8equal_toIS7_EENS0_9allocatorINS1_IK10KeyWrapperIS7_EjEEEEEC2EjRKS9_RKSB_
MSb:__ZN9ShaderLab21SerializedShaderState8TransferI14SafeBinaryReadEEvRT_
JMi:_Terminal_NotifyCommandHandlers_m2901839470
Z1c:_RSAPKCS1SignatureFormatter_SetKey_m2365816458
yOe:_Int16_GetHashCode_m304503362_AdjustorThunk
WIc:_cf2_stack_pushInt
aB:__ZN7mecanim9animation20DestroyLayerConstantEPNS0_13LayerConstantERNS_6memory9AllocatorE
Mtg:_CompressedStack__ctor_m276924800
EHd:_ExecuteEvents_get_cancelHandler_m1964324668
Fha:__ZN15SerializeTraitsINSt3__24pairIN4core12basic_stringIcNS2_20StringStorageDefaultIcEEEES6_EEE8TransferI24GenerateTypeTreeTransferEEvRS7_RT_
mOj:b89
lOj:b88
R3f:__ZL70GUISettings_t622856320_CustomAttributesCacheGenerator_m_SelectionColorP21CustomAttributesCache
NNj:b81
GNj:b80
VNj:b83
a4:__ZN18ResourceImageGroup7CleanupEv
eOj:b85
Jei:_AnimatorControllerPlayable_SetTrigger_m3144166126
gOj:b87
fOj:b86
Yp:__ZN11Quaternionf8TransferI24GenerateTypeTreeTransferEEvRT_
gbh:_ToggleGroup_RegisterToggle_m3118973598
k2b:__ZN13ProduceHelperI4MeshLb0EE7ProduceE18MemLabelIdentifier18ObjectCreationMode
ref:_PrivateKeyInfo_Decode_m1053025782
cwf:_X509ChainElementCollection_System_Collections_ICollection_CopyTo_m1467895312
d8e:_PKCS12_Decrypt_m2457743414
T$f:__ZL87Animator_t69676727_CustomAttributesCacheGenerator_Animator_SetTriggerString_m2002790359P21CustomAttributesCache
kob:__ZN8Playable19SetOutputConnectionEPS_i
MTi:__ZN15dense_hashtableINSt3__24pairIK10KeyWrapperIPK11Il2CppClassEPKcEES6_N6il2cpp5utils11PointerHashIS3_EEN14dense_hash_mapIS6_S9_SE_NS6_14EqualsComparerINS0_8equal_toIS5_EEEENS0_9allocatorISA_EEE9SelectKeyESJ_SL_EC2ERKSO_j
Rl:_glDeleteShader
RCd:_Exception_GetType_m3898489832
Vka:__ZN6prcoreL17RemapGenericFloatI15TexFormatRGHalf16TexFormatRGFloatEEvPKNS_9InnerInfoE
pre:_Stack_1_Peek_m1548778538_gshared
zNa:__ZZ23InitPlayerLoopCallbacksvEN38EarlyUpdateExecuteMainThreadJobsstruct7ForwardEv
iDi:_Vector4_Dot_m2285943745
S8g:_Shadow_set_effectColor_m3110056844
cac:__Z27scripting_add_internal_callPKcPKv
x5d:_Array_InternalArray__Insert_TisUriScheme_t1876590943_m2728325409_gshared
acj:__ZN13Il2CppHashMapINSt3__24pairIPK9EventInfoP11Il2CppClassEEj17ReflectionMapHashIS7_ENS0_8equal_toIS7_EENS0_9allocatorINS1_IK10KeyWrapperIS7_EjEEEEEC2EjRKS9_RKSB_
ukj:__GLOBAL__sub_I_GarbageCollector_cpp
f0:__Z17GetPlayerSettingsv
oYh:__Z65RuntimeInvoker_KeyValuePair_2_t38854645_Il2CppObject_Il2CppObjectPK10MethodInfoPvPS2_
Ts:__ZN34BlobWriteTransferSTLStyleArrayImplI22OffsetPtrArrayTransferIiEEclERS1_17TransferMetaFlagsR9BlobWrite
fxi:_X509Store_CheckStore_m1027496478
f_h:__Z87RuntimeInvoker_Int32_t2071877448_UIVertex_t1204258818_UIVertex_t1204258818_Il2CppObjectPK10MethodInfoPvPS2_
AHf:__ZL82MethodBase_t904190842_CustomAttributesCacheGenerator_MethodBase_Invoke_m1075809207P21CustomAttributesCache
WTh:__Z93RuntimeInvoker_TextGenerationError_t780770201_Il2CppObject_TextGenerationSettings_t2543476768PK10MethodInfoPvPS2_
Mu:__ZN26AnimatorControllerPlayable18SetLayerAutoWeightEv
Hb:invoke_vffff
PEj:__ZNSt3__212basic_stringIcNS_11char_traitsIcEENS_9allocatorIcEEEC2ERKS5_jjRKS4_
s9c:_String_Contains_m4017059963
J8d:_Array_swap_TisCustomAttributeNamedArgument_t94157543_TisCustomAttributeNamedArgument_t94157543_m3600072996_gshared
uzh:_DefaultComparer_Compare_m1606207039_gshared
yPc:__ZN2UI14CanvasRenderer12SyncMaterialENS0_8SyncFlagE
jzj:__ZN6il2cpp2vm9Parameter30GetDefaultParameterValueObjectEPK10MethodInfoPK13ParameterInfoPb
i6d:_Array_InternalArray__set_Item_TisLabelData_t3712112744_m2253365137_gshared
EMg:_MonoCMethod_get_Attributes_m3914742834
Qwh:_InternalEnumerator_1__ctor_m142220063_AdjustorThunk
tZg:_MonoBehaviour_Invoke_m666563676
dGg:_ConstructorBuilder_get_DeclaringType_m4264602248
ilf:_RecordProtocol_InternalReceiveRecordCallback_m2228921492
WWe:_StringReader__ctor_m643998729
Uqf:_IPv6Address_TryParse_m2220524278
WNh:__Z75RuntimeInvoker_DateTime_t693205669_DateTime_t693205669_TimeSpan_t3430258949PK10MethodInfoPvPS2_
aYd:_U3CDelayedSetDirtyU3Ec__Iterator0_System_Collections_Generic_IEnumeratorU3CobjectU3E_get_Current_m2210283424
RZf:__ZL86Time_t31991979_CustomAttributesCacheGenerator_Time_get_realtimeSinceStartup_m357614587P21CustomAttributesCache
SEc:_UNITY_tt_face_done_kern
xli:_Context_get_DefaultContext_m2211922324
YEg:_CustomAttributeData_get_NamedArguments_m708818174
soc:__Z59GUIStyle_CUSTOM_Internal_GetNumCharactersThatFitWithinWidth13Il2Cpp_IntPtrP12Il2CppStringf
Ief:_RSAManaged_GetPaddedValue_m2972141669
B7g:_ScrollRect_OnDrag_m1424848249
_jf:_TlsServerCertificate_ProcessAsSsl3_m277089231
X$d:_Array_InternalArray__IEnumerable_GetEnumerator_TisUInt16_t986882611_m3665860884_gshared
xaa:__Z19scripting_gc_enablev
mkc:__ZN20UnityWebRequestProtoI19TransportJavaScript16AtomicRefCounter14RedirectHelper14ResponseHelper15DownloadHandler13UploadHandler12HeaderHelper14AsyncOperationE9DoRequestEv
xri:_AnchorInfo__ctor_m617409099
E8a:__Z29StdTemplateConversionFunctionIihEbPvR14SafeBinaryRead
GIg:_GenericTypeParameterBuilder_GetMethodImpl_m528545634
sRc:__Z55Register_UnityEngine_CanvasRenderer_DisableRectClippingv
Tyf:_Interval_CompareTo_m2909556284_AdjustorThunk
nvb:__ZN14SafeBinaryRead21TransferSTLStyleArrayI13dynamic_arrayI11ColorRGBA32Lj4EEEEvRT_17TransferMetaFlags
xrh:_InternalEnumerator_1_System_Collections_IEnumerator_Reset_m1090540230_AdjustorThunk
_7f:__ZL83Logger_t3328995178_CustomAttributesCacheGenerator_Logger_get_logHandler_m4190583509P21CustomAttributesCache
L3g:_Navigation_t1571958496_marshal_pinvoke
Kxf:_Interpreter_GetLastDefined_m2450713313
Oqi:_Parser_ParseAssertionType_m3316669790
t8g:_Selectable_get_isPointerDown_m774209881
uBf:__ZL73Enum_t2459695545_CustomAttributesCacheGenerator_Enum_ToObject_m2460371738P21CustomAttributesCache
zXb:__ZNSt3__27__sort4IRNS_6__lessIN4core12basic_stringIcNS2_20StringStorageDefaultIcEEEES6_EEPS6_EEjT0_SA_SA_SA_T_
IHj:dynCall_viiiifii
U_g:_Plane_get_distance_m1834776091_AdjustorThunk
Eaj:__ZN6il2cpp2gc19AppendOnlyGCHashMapINSt3__24pairIPK11Il2CppImageP11Il2CppClassEEP22Il2CppReflectionModule17ReflectionMapHashIS9_ENS2_8equal_toIS9_EEEC2Ev
J1:__Z20GetPersistentManagerv
hMc:_UNITY_TT_Set_Var_Design
wli:_Context_Finalize_m1386439645
_9:__ZN21SystemInfoStringCache16StaticInitializeEPv
dgf:_TlsStream__ctor_m4117943603
r7i:__ZN15dense_hashtableINSt3__24pairIK10KeyWrapperIPK10Il2CppTypeEjEES6_N6il2cpp8metadata14Il2CppTypeHashEN14dense_hash_mapIS6_jSB_NS6_14EqualsComparerINSA_26Il2CppTypeEqualityComparerEEENS0_9allocatorIS8_EEE9SelectKeyESF_SH_E12maybe_shrinkEv
iah:_Text_FontTextureChanged_m4236993972
Hqj:__ZN6il2cpp2gc16GarbageCollector23MakeDescriptorForObjectEPji
Bkj:__ZNK10KeyWrapperIP12Il2CppObjectE14EqualsComparerINSt3__28equal_toIS1_EEEclERKS2_S9_
fPg:_ParameterModifier_t1820634920_marshal_pinvoke
ADb:__ZNK13MonoBehaviour7GetNameEv
Fhj:__ZN13dynamic_arrayIP12Il2CppObjectLj4EE9push_backEv
Dma:__ZN19ScriptingInvocation28AdjustArgumentsToMatchMethodEv
akj:__ZN15dense_hashtableI10KeyWrapperIP18Il2CppGenericClassES3_N6il2cpp8metadata22Il2CppGenericClassHashEN14dense_hash_setIS3_S6_NS3_14EqualsComparerINS5_25Il2CppGenericClassCompareEEENSt3__29allocatorIS3_EEE8IdentityESA_SD_E6insertERKS3_
QEd:_AbstractEventData_Use_m1797212290
klb:__Z20RenderMultipleMeshesRK15RenderNodeQueueRK18RenderMultipleData17ShaderChannelMask
Ibg:__ZL150U3CDelayedDestroyDropdownListU3Ec__Iterator0_t3461999471_CustomAttributesCacheGenerator_U3CDelayedDestroyDropdownListU3Ec__Iterator0_Reset_m3485957852P21CustomAttributesCache
z5i:__ZN6il2cpp2vm4Type19GetGenericParameterEPK10Il2CppType
UQc:__Z51Register_UnityEngine_CanvasGroup_get_blocksRaycastsv
Zxh:_InternalEnumerator_1_get_Current_m2826780083_gshared
pRj:b119
evc:__ZN8JSONRead21TransferSTLStyleArrayI13dynamic_arrayI11ColorRGBA32Lj4EEEEvRT_18MemLabelIdentifier17TransferMetaFlags
hgg:__ZL105LayoutUtility_t4076838048_CustomAttributesCacheGenerator_LayoutUtility_U3CGetMinHeightU3Em__4_m1769295917P21CustomAttributesCache
Rih:_Dictionary_2_GetEnumerator_m1752238884_gshared
N8i:__ZNK15dense_hashtableINSt3__24pairIK10KeyWrapperINS1_IPK11Il2CppImageP11Il2CppClassEEEjEES9_17ReflectionMapHashIS8_EN14dense_hash_mapIS9_jSD_NS9_14EqualsComparerINS0_8equal_toIS8_EEEENS0_9allocatorISB_EEE9SelectKeyESI_SK_E3endEv
azh:_InternalEnumerator_1__ctor_m2782443954_AdjustorThunk
vd:_glBeginQuery
ADg:_Assembly_GetCustomAttributes_m95309865
RQg:_GUILayoutUtility_INTERNAL_CALL_Internal_GetWindowRect_m3236664463
_Qa:__ZN6Camera12RenderStereoENS_10RenderFlagE8CullFlagPNS_24PerformEyeRenderFunctionE
JW:__ZN20LocalFileSystemPosix10ToAbsoluteEPKc
fSd:_GridLayoutGroup__ctor_m1099847132
OHh:__Z136RuntimeInvoker_Boolean_t3825574718_Il2CppObject_Il2CppObject_Int32_t2071877448_Int32_t2071877448_SByte_t454417549_ContextU26_t3131521781PK10MethodInfoPvPS2_
Bqd:_Convert_ToBoolean_m48997236
DQa:_UNITY_png_default_flush
fp:__ZN6Object17MainThreadCleanupEv
pkd:_ArrayListWrapper_set_Capacity_m2792463350
Fkb:__Z32TransferEnumWithNameForceIntSizeI14SafeBinaryRead7HDRModeEvRT_RT0_PKc17TransferMetaFlags
eDj:_getcwd
Irg:_StringBuilder_Append_m1128243247
yri:_AnchorInfo_get_Offset_m142119297
Nbb:__ZN25ThreadsafeLinearAllocatorD2Ev
mvd:_DateTime_get_Year_m1985210972
Waa:__Z21SendMessageToEveryoneRK17MessageIdentifier11MessageData
STg:_GUISkin_get_settings_m626844463
n7:__ZN21BillboardBatchManager16StaticInitializeEPv
WTg:_Object_get_name_m2079638459
nRj:b117
oZ:__ZN12_GLOBAL__N_138ArchiveRedirectFileSystemStaticDestroyEPv
vGi:_InvokableCall_1_add_Delegate_m3048312905_gshared
ICd:_EventHandler_Invoke_m1137722757
GWi:__ZNK15dense_hashtableINSt3__24pairIK10KeyWrapperI13dynamic_arrayIPK10Il2CppTypeLj4EEEPFvvEEES8_N6il2cpp8metadata19Il2CppSignatureHashEN14dense_hash_mapIS8_SB_SF_NS8_14EqualsComparerINSE_22Il2CppSignatureCompareEEENS0_9allocatorISC_EEE9SelectKeyESJ_SL_E5beginEv
r_e:_MonoType_IsSubclassOf_m2211166238
yPg:_TypeFilter_EndInvoke_m997625354
Mve:_Collection_1_System_Collections_ICollection_CopyTo_m2859266050_gshared
Hu:__ZN7mecanim14ValueArrayCopyEPKNS_10ValueArrayEPS0_PKNS_14ValueArrayMaskE
lAh:_Comparer_1__ctor_m2876014041_gshared
Svj:_GC_continue_reclaim
CRe:_InvalidCastException__ctor_m2730571470
dwf:_X509ChainElementCollection_System_Collections_IEnumerable_GetEnumerator_m2559704689
zSf:__ZL86BigInteger_t925946153_CustomAttributesCacheGenerator_BigInteger_op_Implicit_m622924526P21CustomAttributesCache
rbg:__ZL59Dropdown_t1985816271_CustomAttributesCacheGenerator_m_ValueP21CustomAttributesCache
qyf:_InterpreterFactory_set_Gap_m2761943153
ttf:_PublicKey_get_Key_m126090744
oAc:__ZNSt3__23mapIN20TextRenderingPrivate7FontRefEP11FT_FaceRec_NS_4lessIS2_EENS_9allocatorINS_4pairIKS2_S4_EEEEEixERS9_
tJa:__ZN17ArchiveFileSystem10AddStorageEP20ArchiveStorageReader
WQi:__ZL25UnresolvedVirtualCall_104P12Il2CppObjectS0_S0_S0_iPK10MethodInfo
G9h:_Color_Equals_m661618137
VEa:__ZN12_GLOBAL__N_112UploadFormatE13TextureFormat
flh:_EqualityComparer_1_System_Collections_IEqualityComparer_GetHashCode_m1203798961_gshared
E4f:__ZL89GUIStyle_t1799908754_CustomAttributesCacheGenerator_GUIStyle_AssignRectOffset_m2998103580P21CustomAttributesCache
CNi:__ZN6il2cpp2vm5Class15GetEnumBaseTypeEP11Il2CppClass
SSe:_DirectoryNotFoundException__ctor_m3713860966
UAh:_Comparer_1_get_Default_m4282764954_gshared
zpb:__ZNK9Texture2D16GetNpotTexelSizeEv
Zrh:_InternalEnumerator_1__ctor_m245588437_gshared
Vwf:_Capture_get_Text_m3472127896
Q2g:_Mask_get_rectTransform_m3304369086
wAi:_TooltipAttribute__ctor_m2640804852
SQh:__Z35RuntimeInvoker_Category_t1984577050PK10MethodInfoPvPS2_
sgi:_AnimatorControllerPlayable_INTERNAL_CALL_PlayInFixedTimeInternal_m847261734
OAa:__ZN9GfxDevice22GetDefaultVertexBufferE26GfxDefaultVertexBufferTypej
xxi:_X509Crl_get_NextUpdate_m45665244
mue:_Collection_1__ctor_m3903788797_gshared
kEe:_ReadOnlyCollection_1_System_Collections_ICollection_CopyTo_m1129689124_gshared
wDj:___fseeko_unlocked
RXh:__Z162RuntimeInvoker_Void_t1841601450_Il2CppObject_Int32_t2071877448_SByte_t454417549_SByte_t454417549_SingleU26_t4173844468_SingleU26_t4173844468_SingleU26_t4173844468PK10MethodInfoPvPS2_
INj:_glGetActiveUniform__wrapper
oDj:_sscanf
Wye:_Collection_1_Contains_m1999290510_gshared
Gvb:__ZN14SafeBinaryRead21TransferSTLStyleArrayINSt3__26vectorI17BlendShapeChannelNS1_9allocatorIS3_EEEEEEvRT_17TransferMetaFlags
Via:__Z17BeginSplashScreenv
rCi:_Vector3__ctor_m2638739322_AdjustorThunk
AVb:__ZN9ShaderLab16SerializedShader8TransferI19StreamedBinaryWriteILb0EEEEvRT_
zzg:_UInt32_Parse_m2400360707
rA:__ZN7mecanim9animation18CreateAvatarMemoryEPKNS0_14AvatarConstantERNS_6memory9AllocatorE
Zpd:_Stack_Pop_m3788808882
QBh:_Enumerator_VerifyCurrent_m4246196125_AdjustorThunk
Nhh:_Dictionary_2_pick_value_m3484897877_gshared
Ywd:_DateTime_op_Equality_m1867073872
Gt:__ZN7mecanim8skeleton16SkeletonPoseCopyIN4math4trsXENS2_7affineXEEEvPKNS0_13SkeletonPoseTIT_EEPNS5_IT0_EE
aje:_List_1_CopyTo_m1916701891_gshared
JMb:__Z18Transfer_BlittableI19StreamedBinaryWriteILb0EELb0EaEvRK29SerializationCommandArgumentsR31RuntimeSerializationCommandInfo
uAa:__ZN18GfxFramebufferGLES18GetFramebufferNameERK20GfxRenderTargetSetup
jGj:_saveSetjmp
Xhj:__ZN6il2cpp6icalls8mscorlib6System2IO6MonoIO11GetFileTypeE12Il2CppIntPtrPi
Umc:__Z30Event_Get_Custom_PropCharacterP12Il2CppObject
OZ:__ZN13PlayableGraph27SchedulePlayableDestructionERK9HPlayable
QKj:_glGetFramebufferAttachmentParameteriv__wrapper
bHb:__Z22scripting_array_length17ScriptingArrayPtr
U4c:_SecurityElement_GetAttribute_m4288291176
qui:_UriParser_get_DefaultPort_m1377931533
oJi:_IndexedSet_1_get_Count_m2839545138_gshared
Lpa:__ZN14SafeBinaryRead20TransferTypelessDataEjPvi
chi:_RenderPipelineManager_get_currentPipeline_m679160301
hIf:__ZL66StringFreezingAttribute_t2691375565_CustomAttributesCacheGeneratorP21CustomAttributesCache
Hqc:__ZN9rapidjson13GenericReaderINS_4UTF8IcEES2_13JSONAllocatorE10ParseFalseILj1ENS_25GenericInsituStringStreamIS2_EENS_15GenericDocumentIS2_S3_S3_EEEEvRT0_RT1_
Ime:_List_1_AddCollection_m3284813601_gshared
aeb:__ZN33AssetBundleLoadFromAsyncOperation7PerformEv
Qeg:__ZL102ToggleGroup_t1030026315_CustomAttributesCacheGenerator_ToggleGroup_U3CActiveTogglesU3Em__1_m4052653494P21CustomAttributesCache
d0:__Z19GetActiveColorSpacev
tlh:_EqualityComparer_1__cctor_m1672307556_gshared
Tig:_SoapTypeAttribute_get_IsInteropXmlElement_m2941294827
jEc:_UNITY_tt_face_load_kern
lee:_Enumerator_System_Collections_IEnumerator_get_Current_m3542273247_gshared
Fid:_Char_System_IConvertible_ToUInt32_m1557991717_AdjustorThunk
dad:_Encoding_get_UTF8Unmarked_m628720656
oKe:_NumberFormatter_RoundBits_m1545255255
L0:__Z6StrCmpPKcS0_
VWb:__Z21CheckGpuProgramUsable20ShaderGpuProgramType
SZh:__Z55RuntimeInvoker_Boolean_t3825574718_Keyframe_t1449471340PK10MethodInfoPvPS2_
vEg:_Binder__cctor_m3736115807
jqj:__ZN6il2cpp2os9Directory20GetFileSystemEntriesERKNSt3__212basic_stringIcNS2_11char_traitsIcEENS2_9allocatorIcEEEESA_iiPi
Kih:_Dictionary_2_OnDeserialization_m2160537783_gshared
_ed:_Attribute_GetHashCode_m2653962112
lzc:__ZN20TextRenderingPrivate19NativeTextGenerator5SetupEv
lni:_AsyncResult_GetReplyMessage_m262842621
Bce:_Enumerator__ctor_m3021143890_AdjustorThunk
Gzb:__ZN12AspectRatios8TransferI18StreamedBinaryReadILb0EEEEvRT_
XDf:__ZL66X509ExtensionCollection_t1640144839_CustomAttributesCacheGeneratorP21CustomAttributesCache
u4b:__ZN10GameObject14CopyPropertiesERS_
Xoc:__Z44Register_UnityEngine_GUIStyle_get_fixedWidthv
s1c:_RSACryptoServiceProvider_Common_m2581564813
Gvi:_X509CertificateEnumerator_MoveNext_m4060814498
XUe:_MemoryStream_CheckIfClosedThrowDisposed_m2253054610
Zoh:_ArrayReadOnlyList_1_GetEnumerator_m634288642_gshared
r7a:__ZNK13ScreenManager12IsFullScreenEv
RDj:_rand
rLj:_emscripten_glFramebufferRenderbuffer__wrapper
Wqj:__ZN6il2cpp5utils9PathUtils7CombineIcEENSt3__212basic_stringIT_NS3_11char_traitsIS5_EENS3_9allocatorIS5_EEEERKNS0_10StringViewIS5_EERKSA_
pHe:_ReadOnlyCollection_1_GetEnumerator_m2481390116_gshared
sfi:_AnimatorControllerPlayable_INTERNAL_CALL_GetNextAnimatorStateInfoInternal_m1550960895
SHb:__ZN14SafeBinaryRead21TransferSTLStyleArrayINSt3__26vectorI17AnimationCurveTplIfE13stl_allocatorIS4_L18MemLabelIdentifier1ELi16EEEEEEvRT_17TransferMetaFlags
Bbc:__Z60Register_UnityEngine_AsyncOperation_set_allowSceneActivationv
L8i:__ZN15dense_hashtableINSt3__24pairIK10KeyWrapperINS1_IPK11Il2CppImageP11Il2CppClassEEEjEES9_17ReflectionMapHashIS8_EN14dense_hash_mapIS9_jSD_NS9_14EqualsComparerINS0_8equal_toIS8_EEEENS0_9allocatorISB_EEE9SelectKeyESI_SK_E12expand_arrayEjN21dense_hash_map_traits17integral_constantIbLb0EEE
_lg:_ObjectManager_RegisterObject_m872610295
R0a:__Z22PrepareOptimizedPlanesPK5PlaneiPKN4math7_float4E
U2h:__Z47RuntimeInvoker_Vector3_t2243707580_Il2CppObjectPK10MethodInfoPvPS2_
N0g:_RectOffset_t3387826427_marshal_pinvoke
SQd:_Graphic_SetVerticesDirty_m1607014370
l7:__ZN17UniqueIDGenerator15CreatePureIndexEv
qdf:_MD2__ctor_m3133818738
rB:__ZN11UnityEngine9Animation28GenericAnimationBindingCache15DidReloadDomainEv
oaf:_AppDomain_InternalGetProcessGuid_m1278588156
iWd:_InputField_MoveRight_m386206014
wod:_HashValues_get_Count_m234926373
h_d:_Array_InternalArray__ICollection_Remove_TisIl2CppObject_m2425110446_gshared
F6g:_ScrollRect_set_inertia_m2575649134
YRe:_BinaryReader_ReadBoolean_m2892291883
SMi:__ZN15dense_hashtableINSt3__24pairIK10KeyWrapperIPK22Il2CppGenericParameterEP11Il2CppClassEES6_N6il2cpp5utils11PointerHashIS4_EEN14dense_hash_mapIS6_S9_SE_NS6_14EqualsComparerINS0_8equal_toIS5_EEEENS0_9allocatorISA_EEE9SelectKeyESJ_SL_E14squash_deletedEv
rAb:__ZNSt3__26__treeINS_12__value_typeIN4core12basic_stringIcNS2_20StringStorageDefaultIcEEEE4PPtrI6ObjectEEENS_19__map_value_compareIS6_SA_NS_4lessIS6_EELb1EEE13stl_allocatorISA_L18MemLabelIdentifier51ELi16EEE7destroyEPNS_11__tree_nodeISA_PvEE
Goh:_ArrayReadOnlyList_1_Clear_m2539474626_gshared
LLf:__ZL66DSASignatureDeformatter_t2187578719_CustomAttributesCacheGeneratorP21CustomAttributesCache
Q2b:__ZZL23RegisterLightPropertiesR22GenericPropertyBindingEN18Wrapper_LightRange13SetFloatValueEPvf
Fqh:_InternalEnumerator_1_Dispose_m1064404287_AdjustorThunk
_Ca:__ZNSt3__26vectorI27ComputeShaderBuiltinSamplerNS_9allocatorIS1_EEE21__push_back_slow_pathIKS1_EEvRT_
lYh:__Z95RuntimeInvoker_Void_t1841601450_ObjectU5BU5DU26_t3223402458_Int32_t2071877448_Int32_t2071877448PK10MethodInfoPvPS2_
$ad:_ASCIIEncoding_GetString_m3931709239
GMh:__Z52RuntimeInvoker_DateTime_t693205669_Int16_t4041245914PK10MethodInfoPvPS2_
nDf:__ZL61DllImportAttribute_t3000813225_CustomAttributesCacheGeneratorP21CustomAttributesCache
HRi:__ZL25UnresolvedVirtualCall_143P12Il2CppObjectaaPK10MethodInfo
s0:__ZNK9Transform18TransformDirectionERK8Vector3f
AMa:__ZNK17ArchiveFileSystem12GetAssetGUIDERK13FileEntryData
MWb:__ZNSt3__26vectorIN9ShaderLab20SerializedSubProgram15MatrixParameterENS_9allocatorIS3_EEE21__push_back_slow_pathIKS3_EEvRT_
CRg:_GUILayoutEntry_SetHorizontal_m1828181654
tQj:_emscripten_glClearStencil__wrapper
aMi:_DisplayBuffer_Clear_m2710351534
Qlh:_EqualityComparer_1_get_Default_m1852501307_gshared
rPh:__Z94RuntimeInvoker_Void_t1841601450_Il2CppObject_ByteU5BU5DU26_t790777611_ByteU5BU5DU26_t790777611PK10MethodInfoPvPS2_
AXi:__ZN15dense_hashtableINSt3__24pairIK10KeyWrapperIPK11Il2CppClassEPKcEES6_N6il2cpp5utils11PointerHashIS3_EEN14dense_hash_mapIS6_S9_SE_NS6_14EqualsComparerINS0_8equal_toIS5_EEEENS0_9allocatorISA_EEE9SelectKeyESJ_SL_E12resize_deltaEjj
AFj:__ZNK10__cxxabiv120__si_class_type_info27has_unambiguous_public_baseEPNS_19__dynamic_cast_infoEPvi
_Le:_NumberFormatInfo_get_PercentNegativePattern_m1162448153
FEf:__ZL56SyncHashtable_t1343674558_CustomAttributesCacheGeneratorP21CustomAttributesCache
JCb:__ZN24RingBufferMemoryFileData9SetLengthEy
eJj:_glTexSubImage3D__wrapper
fxf:_FactoryCache_Add_m2602974721
UOa:__Z21WriteImageAsyncThreadPv
p6:__ZL16GetInterfaceImpl18UnityInterfaceGUID
jMe:_RegionInfo_construct_internal_region_from_name_m3316088619
VNi:__ZN6il2cpp2vmL17SetupFieldOffsetsENS0_15FieldLayoutKindEP11Il2CppClassjRKNSt3__26vectorIjNS4_9allocatorIjEEEE
Iue:_Collection_1_GetEnumerator_m2816357893_gshared
f$f:__ZL105RectTransform_t3349966182_CustomAttributesCacheGenerator_RectTransform_INTERNAL_get_anchorMin_m3180545469P21CustomAttributesCache
_fe:_List_1_System_Collections_IList_get_Item_m936612973_gshared
bU:__ZN13EmscriptenWWW7GetSizeEv
tsj:__ZN6il2cpp6icalls8mscorlib6System15MonoCustomAttrs27GetCustomAttributesInternalEP12Il2CppObjectP20Il2CppReflectionTypeb
pMc:_UNITY_TT_Set_MM_Blend
wya:__Z24PluginsSetGraphicsDevicePvi18GfxDeviceEventType
img:_ObjectReader_ReadAssembly_m869834280
Akb:__ZN22RenderingCommandBufferD0Ev
JGe:_ReadOnlyCollection_1_System_Collections_IList_get_Item_m1831743662_gshared
Yze:_Collection_1_IsSynchronized_m971497175_gshared
m_:__ZNK18ScriptingObjectPtr17ToScriptingStringEv
oHd:_ExecuteEvents_Execute_m1617536317
fah:_Text_get_cachedTextGeneratorForLayout_m1357670532
nI:__ZL31InitializeAudioScriptingClassesv
rTa:__Z14SortGUIByDepthP10GUIElementS0_
XOe:_NumberFormatter_NumberToString_m126384393
WMj:_emscripten_glVertexAttrib4fv__wrapper
v6:__ZN13RuntimeStaticI13dynamic_arrayIPK31TransferFunctionScriptingTraitsLj4EELb0EE16StaticInitializeEPv
Xni:_LogicalCallContext__ctor_m3173272863
Xei:_AnimatorControllerPlayable_IsParameterControlledByCurveString_m4036987523
dZe:_MonoCustomAttrs__cctor_m2608447972
KOe:_Int32_FindSign_m3803672540
$Bh:_Enumerator_System_Collections_IEnumerator_Reset_m70453843_AdjustorThunk
OTg:_GUISkin_get_scrollView_m2941173958
sX:__ZNK20LocalFileSystemPosix21GetAvailableDiskSpaceEPKcRy
baa:__ZNSt3__26__treeIiNS_4lessIiEENS_9allocatorIiEEE7destroyEPNS_11__tree_nodeIiPvEE
$Fi:_Predicate_1__ctor_m2995226103_gshared
Vff:_CipherSuite_InitializeCipher_m229247572
Otf:_X509Certificate2__ctor_m1095336775
mua:__ZNK9GfxDevice14GetWorldMatrixEv
wOg:_MonoProperty_GetGetMethod_m1100580870
ohh:_Dictionary_2__ctor_m1950568359_gshared
Nrj:__ZN15dense_hashtableINSt3__24pairIK10KeyWrapperIPK19Il2CppGenericMethodEP10MethodInfoEES6_N6il2cpp8metadata23Il2CppGenericMethodHashEN14dense_hash_mapIS6_S9_SD_NS6_14EqualsComparerINSC_26Il2CppGenericMethodCompareEEENS0_9allocatorISA_EEE9SelectKeyESH_SJ_E13set_empty_keyERKSA_
bWa:__Z19scripting_array_new17ScriptingClassPtrjj
cN:__ZN11SoundHandle13CreateChannelEb
Mqb:__ZN14SafeBinaryRead21TransferSTLStyleArrayI13dynamic_arrayI12LightmapDataLj4EEEEvRT_17TransferMetaFlags
Iaf:_ArgumentException__ctor_m3312963299
lgb:__ZN21AssetBundleFileSystem11CreateAsDirER13FileEntryData
cUb:__ZNSt3__26vectorIN9ShaderLab20SerializedSubProgram16TextureParameterENS_9allocatorIS3_EEE6assignIPS3_EENS_9enable_ifIXaasr21__is_forward_iteratorIT_EE5valuesr16is_constructibleIS3_NS_15iterator_traitsISA_E9referenceEEE5valueEvE4typeESA_SA_
KFe:_ReadOnlyCollection_1_get_Item_m1696267180_gshared
Bpj:__ZNSt3__26vectorIN6il2cpp2os10ThreadImpl10APCRequestENS_9allocatorIS4_EEE26__swap_out_circular_bufferERNS_14__split_bufferIS4_RS6_EE
PEi:_U3CCreateWhereIteratorU3Ec__Iterator1D_1_MoveNext_m3533253043_gshared
kbj:__ZN15dense_hashtableINSt3__24pairIK10KeyWrapperIPK22Il2CppGenericParameterEPK24MonoGenericParameterInfoEES6_N6il2cpp5utils11PointerHashIS4_EEN14dense_hash_mapIS6_SA_SF_NS6_14EqualsComparerINS0_8equal_toIS5_EEEENS0_9allocatorISB_EEE9SelectKeyESK_SM_E15set_deleted_keyERKSB_
Nsh:_InternalEnumerator_1_System_Collections_IEnumerator_Reset_m2726857860_AdjustorThunk
L3f:__ZL124GUILayoutUtility_t996096873_CustomAttributesCacheGenerator_GUILayoutUtility_INTERNAL_CALL_Internal_GetWindowRect_m3236664463P21CustomAttributesCache
Kwf:_X509SubjectKeyIdentifierExtension__ctor_m3887138480
tce:_Enumerator_System_Collections_IEnumerator_get_Current_m2853089017_AdjustorThunk
Ig:_emscripten_exit_fullscreen
gUd:_InputField_get_mesh_m3276583786
Zii:_GCHandle_Free_m1639542352_AdjustorThunk
Nif:_Context_set_ClientRandom_m631392719
oji:_OutAttribute__ctor_m1447235100
Poj:__ZN6il2cpp6icalls8mscorlib6System6String19InternalAllocateStrEi
Cvc:__Z29Transfer_Blittable_ArrayFieldI8JSONRead11QuaternionfEvRT_R9ArrayInfoRK23StaticTransferFieldInfo
jKf:__ZL65SoapParameterAttribute_t2780084514_CustomAttributesCacheGeneratorP21CustomAttributesCache
WW:__ZN20LocalFileSystemPosix8SetFlagsER13FileEntryDatajj
pcc:__Z45Register_UnityEngine_Camera_get_targetDisplayv
S1b:__ZNK24RendererAnimationBinding15GenerateBindingERKN4core12basic_stringIcNS0_20StringStorageDefaultIcEEEEbRN11UnityEngine9Animation14GenericBindingE
mkb:__Z15GetFlareManagerv
lZb:__ZN15ApplicationInfo24GetApplicationIdentifierEv
uFe:_ReadOnlyCollection_1_System_Collections_IList_Contains_m927375828_gshared
Fcb:__ZN9Behaviour8TransferI18StreamedBinaryReadILb0EEEEvRT_
Uoi:_Enumerator_System_Collections_IEnumerator_get_Current_m1429268283
TBe:_ReadOnlyCollection_1_System_Collections_Generic_ICollectionU3CTU3E_Clear_m388357963_gshared
QBj:___toread
nT:__ZN19CloudServiceHandler10QueueEventEPN11UnityEngine15CloudWebService14CloudEventInfoE
bGj:___cxa_is_pointer_type
L9c:_String_Concat_m56707527
mu:__ZN7mecanim9animation16EvaluateAvatarDXEPKNS0_14AvatarConstantEPKNS0_11AvatarInputEPNS0_12AvatarMemoryEPNS0_15AvatarWorkspaceEPNS0_12AvatarOutputE
_Da:__ZN4gles20DestroyRenderSurfaceEP7ApiGLESP17RenderSurfaceGLES
sce:_Enumerator_System_Collections_IEnumerator_get_Current_m2853089017_gshared
Aic:__Z34Transform_CUSTOM_SetAsFirstSiblingP12Il2CppObject
e6i:__ZNK15dense_hashtableINSt3__24pairIK10KeyWrapperINS1_IPK14Il2CppAssemblyP11Il2CppClassEEEjEES9_17ReflectionMapHashIS8_EN14dense_hash_mapIS9_jSD_NS9_14EqualsComparerINS0_8equal_toIS8_EEEENS0_9allocatorISB_EEE9SelectKeyESI_SK_E10test_emptyEj
Cee:_Enumerator_get_Current_m827571811_AdjustorThunk
g2f:__ZL62Font_t4239498691_CustomAttributesCacheGenerator_textureRebuiltP21CustomAttributesCache
sia:__ZN17PersistentManager40GlobalToLocalSerializedFileIndexInternalERK26SerializedObjectIdentifier
$Q:__ZN11UnityEngine15CloudWebService17SessionEventQueue14ParseEventDataERKN4core12basic_stringIcNS2_20StringStorageDefaultIcEEEE
_Ed:_BaseEventData_get_selectedObject_m3551206992
u1e:_SimpleCollator_CompareOrdinal_m2176988387
Z6f:__ZL47Rect_t3681755626_CustomAttributesCacheGeneratorP21CustomAttributesCache
vDd:_CCGregorianCalendar_GetYear_m1289900195
ZTh:__Z441RuntimeInvoker_Boolean_t3825574718_Il2CppObject_Il2CppObject_Il2CppObject_ColorU26_t3402129837_Int32_t2071877448_Single_t2076509932_Single_t2076509932_Int32_t2071877448_SByte_t454417549_SByte_t454417549_Int32_t2071877448_Int32_t2071877448_Int32_t2071877448_Int32_t2071877448_SByte_t454417549_Int32_t2071877448_Single_t2076509932_Single_t2076509932_Single_t2076509932_Single_t2076509932_SByte_t454417549_SByte_t454417549_UInt32U26_t2197289955PK10MethodInfoPvPS2_
VOe:_Int16_ToString_m2592645088
Sya:__ZN13TranslateGLES4InitERK12GraphicsCaps16GfxDeviceLevelGL
BRb:__Z29Transfer_Blittable_ArrayFieldI18StreamedBinaryReadILb0EE10ColorRGBAfEvRT_R9ArrayInfoRK23StaticTransferFieldInfo
Jng:_SerializationInfoEnumerator_Reset_m2206466680
k$h:__Z48RuntimeInvoker_Void_t1841601450_Slot_t2267560602PK10MethodInfoPvPS2_
Yjc:__ZN18CrashReportManager12CloseServiceEv
_Na:__ZZ23InitPlayerLoopCallbacksvEN33PostLateUpdateInputEndFramestruct7ForwardEv
NTc:__Z32CustomEventData_CUSTOM_AddUInt32P12Il2CppObjectP12Il2CppStringj
y3f:__ZL78Event_t3028476042_CustomAttributesCacheGenerator_Event_get_keyCode_m3364681288P21CustomAttributesCache
aLi:_GenericEqualityComparer_1_Equals_m1934771410_gshared
QEf:__ZL57DebuggingModes_t2073970606_CustomAttributesCacheGeneratorP21CustomAttributesCache
ECb:__ZN24RingBufferMemoryFileDataD0Ev
Hwe:_Collection_1_System_Collections_IList_get_IsFixedSize_m993584401_gshared
XAb:__ZNSt3__26vectorIN30RuntimeInitializeOnLoadManager15ClassMethodInfoE13stl_allocatorIS2_L18MemLabelIdentifier12ELi16EEE8__appendEj
_$b:__ZN13ProduceHelperI10TagManagerLb0EE7ProduceE18MemLabelIdentifier18ObjectCreationMode
tPh:__Z84RuntimeInvoker_Il2CppObject_Il2CppObject_Il2CppObject_Il2CppObject_Int32_t2071877448PK10MethodInfoPvPS2_
Tzj:__ZN6il2cpp2os6Memory12AlignedAllocEjj
lwh:_InternalEnumerator_1__ctor_m691972083_gshared
Atj:__ZN6il2cpp8metadataL7CompareEPK10Il2CppTypeS3_
qJb:__Z18Transfer_BlittableI17RemapPPtrTransferLb0E11ColorRGBA32EvRK29SerializationCommandArgumentsR31RuntimeSerializationCommandInfo
YWf:__ZL84GameObject_t1756533147_CustomAttributesCacheGenerator_GameObject_get_tag_m1425941094P21CustomAttributesCache
_Pg:_GameObject_set_layer_m2712461877
Aef:_RSAManaged__ctor_m1370411656
dQb:__Z18Transfer_BlittableI18StreamedBinaryReadILb0EELb1E10ColorRGBAfEvRK29SerializationCommandArgumentsR31RuntimeSerializationCommandInfo
Rob:__ZN12CubemapArray23VirtualRedirectTransferER17RemapPPtrTransfer
l9b:__ZL27GetComponentsImplementationILb0ELi0EEbR10GameObjectbRK17CompareParametersRK39GetComponentsImplementation_ReturnValue
g3:__Z21CreateMonoScriptCacheRKN4core12basic_stringIcNS_20StringStorageDefaultIcEEEE17ScriptingClassPtr22InitScriptingCacheTypeP6Objecti
hEb:__ZN9Scripting36IsSystemCollectionsGenericDictionaryE17ScriptingClassPtr
a5g:_Raycast3DCallback_EndInvoke_m3234280377
Uri:_BalancingGroup__ctor_m2474435406
KNd:_ColorTweenCallback__ctor_m3619686788
E4:__ZL16ReadTypeTreeImplILb0EEbR8TypeTreeRK16TypeTreeIteratorRPKhS6_i
lhd:_Byte_System_IConvertible_ToInt32_m1032609763_AdjustorThunk
nMi:_Hacker_StartGame_m1755528023
YWb:__ZN9ShaderLab7ProgramD0Ev
Rnb:__ZNK22BuiltinResourceManager21GetResourceInstanceIDEPKN5Unity4TypeERKN4core12basic_stringIcNS4_20StringStorageDefaultIcEEEE
Cwa:__ZN9GfxDevice15BeginFrameStatsEv
zdc:__Z42Register_UnityEngine_RectOffset_set_bottomv
zkd:_ArrayListWrapper_IndexOf_m3574835167
tnc:__Z28GUIStyleState_CUSTOM_CleanupP12Il2CppObject
mWa:__ZN28LightProbeProxyVolumeContext8CopyFromERKS_
kje:_List_1_Remove_m2660527978_gshared
BLd:_U3COnFinishSubmitU3Ec__Iterator0_System_Collections_Generic_IEnumeratorU3CobjectU3E_get_Current_m1823105495
z2a:__ZN23TransformChangeDispatch32QueueTransformChangeIfHasChangedER18TransformHierarchy
r3c:_SymmetricAlgorithm_get_FeedbackSize_m544664262
e$a:__ZN18DeferredRenderLoop15RenderFinalPassEP13RenderTextureS1_
$Da:__ZN7ApiGLES18DeleteRenderbufferERj
VCa:__ZL23ProgramUniformMatrix4fvPK7ApiGLESjiihPKv
xOf:__ZL67ThreadInterruptedException_t63303933_CustomAttributesCacheGeneratorP21CustomAttributesCache
t2b:__ZN13ProduceHelperI11LightProbesLb0EE7ProduceE18MemLabelIdentifier18ObjectCreationMode
Mwh:_InternalEnumerator_1_MoveNext_m3629145604_gshared
MTb:__ZN9ShaderLab20SerializedSubProgram15MatrixParameter8TransferI14SafeBinaryReadEEvRT_
HOe:_Int32_Parse_m124693431
n9b:__ZL27GetComponentsImplementationILb0ELi1EEbR10GameObjectbRK17CompareParametersRK39GetComponentsImplementation_ReturnValue
rLc:_Round_Down_To_Grid
Etg:_UTF8Decoder__ctor_m1460357288
lea:__ZN13RenderTexture7ReleaseEv
Qwb:__ZN10MeshFilter23VirtualRedirectTransferER14SafeBinaryRead
a$a:__ZN19ShaderPropertySheet26SetTextureWithExplicitSizeEN9ShaderLab16FastPropertyNameE9TextureIDiiff
Sqd:_Convert_ToByte_m1201588964
_wb:__ZN12MeshRenderer17MainThreadCleanupEv
pbc:__Z36AsyncOperation_Get_Custom_PropIsDoneP12Il2CppObject
KGa:__ZN22CreateGpuProgramOutput12CreateParamsEv
iog:_RuntimeMethodHandle_GetHashCode_m2682236001_AdjustorThunk
Vji:_ActivationServices_AllocateUninitializedClassInstance_m3410698501
P4i:__ZNSt3__26vectorIiNS_9allocatorIiEEE21__push_back_slow_pathIiEEvOT_
Iya:__ZNK14GfxContextGLES13GetDefaultFBOEv
r_d:_Array_InternalArray__ICollection_Remove_TisSByte_t454417549_m2474211570_gshared
o5c:_Evidence_get_IsSynchronized_m1427392003
dba:__ZN14GraphicsHelper5ClearE13GfxClearFlagsRK10ColorRGBAffjR17ShaderPassContext
c3i:_il2cpp_class_is_enum
Mej:__ZN6il2cpp2vm6Thread49CheckCurrentThreadForInterruptAndThrowIfNecessaryEv
rbe:_GameObject_AddComponent_TisIl2CppObject_m3813873105_gshared
qga:__ZNSt3__23mapIN9ShaderLab16FastPropertyNameEN18UnityPropertySheet11UnityTexEnvENS_4lessIS2_EENS_9allocatorINS_4pairIKS2_S4_EEEEEixERS9_
xta:__ZNK13TranslateGLES25GetTextureTargetDimensionEj
hVd:_InputField_SetToCustom_m250029371
P5d:_Array_InternalArray__set_Item_TisByte_t3683104436_m1694926640_gshared
kxe:_Collection_1_System_Collections_IList_Contains_m1897568526_gshared
kIg:_FieldBuilder_get_FieldType_m2267463269
Ied:_SimpleEnumerator_Clone_m3032847657
Hpi:_PatternCompiler_EmitInfo_m597931026
Rbf:_ModulusRing_Multiply_m3113924743
Shc:__Z47Texture2D_CUSTOM_INTERNAL_CALL_GetPixelBilinearP12Il2CppObjectffR10ColorRGBAf
Aif:_Context_get_ServerSettings_m225713600
Ii:_emscripten_glVertexAttrib4f
UGi:_InvokableCall_1_remove_Delegate_m3576859071_gshared
xBe:_ReadOnlyCollection_1_System_Collections_IEnumerable_GetEnumerator_m531171980_gshared
wWb:__ZNSt3__26vectorIN20GpuProgramParameters14ConstantBufferENS_9allocatorIS2_EEE8__appendEj
s8d:_Array_Sort_TisUILineInfo_t3621277874_m3105833015_gshared
N_e:_MonoType_GetGenericArguments_m2708198481
DUa:__ZN11HaloManager21ReleaseGeometryJobMemEP25DynamicVBOGeometryJobData
ege:_List_1_AddEnumerable_m2489692396_gshared
_1f:__ZL93TextGenerator_t647235000_CustomAttributesCacheGenerator_TextGenerator_Dispose_cpp_m1755131202P21CustomAttributesCache
zDi:_WaitForSecondsRealtime__ctor_m1734539010
Xtg:_WaitHandle__ctor_m1256161634
zza:__ZN4gles10SetTextureER15DeviceStateGLESjjj19BuiltinSamplerState
Hwa:__ZN9GfxDevice18SetGlobalDepthBiasEff
Smi:_Identity_get_ChannelSink_m3989446673
r0i:__ZN6il2cpp6icalls8mscorlib6System8MonoType12get_AssemblyEP20Il2CppReflectionType
tQd:_FontData_get_richText_m2013560754
z6c:_SecurityException_get_PermissionType_m3543350822
Vi:_emscripten_glGetPointerv
_t:__ZN8Animator22ApplyBuiltinRootMotionEv
Kjj:__ZN15dense_hashtableI10KeyWrapperIP18Il2CppGenericClassES3_N6il2cpp8metadata22Il2CppGenericClassHashEN14dense_hash_setIS3_S6_NS3_14EqualsComparerINS5_25Il2CppGenericClassCompareEEENSt3__29allocatorIS3_EEE8IdentityESA_SD_E5clearEv
UPh:__Z74RuntimeInvoker_Boolean_t3825574718_Il2CppObject_IPv6AddressU26_t2456310193PK10MethodInfoPvPS2_
Hsb:__ZN8Renderer23VirtualRedirectTransferER14SafeBinaryRead
$Gg:_DerivedType_get_UnderlyingSystemType_m3904230233
hId:_PointerEventData_get_rawPointerPress_m448871540
yJh:__Z135RuntimeInvoker_IntPtr_t_Il2CppObject_Int32_t2071877448_Int32_t2071877448_Int32_t2071877448_Int32_t2071877448_MonoIOErrorU26_t1029615899PK10MethodInfoPvPS2_
XSa:__Z27ConvertSubMeshesToTrianglesR13dynamic_arrayI7SubMeshLj4EERS_ItLj2EE
QNi:__ZN6il2cpp2vmL15GetBitmapNoInitEP11Il2CppClassPjRjj
Vab:__ZL13MotionHandleriPK27EmscriptenDeviceMotionEventPv
mvf:_X509Certificate2Collection__ctor_m819526826
B_f:__ZL114PlayableHandle_t1502856514_CustomAttributesCacheGenerator_PlayableHandle_INTERNAL_CALL_IsValidInternal_m2792360706P21CustomAttributesCache
QH:__ZN12AudioManager5ResetEv
cdf:_KeyBuilder_Key_m3814433741
Jaf:_ArgumentException__ctor_m158205422
Z0d:_Array_compare_TisVector3_t2243707580_m3709184876_gshared
LSd:_HorizontalLayoutGroup_SetLayoutHorizontal_m3237355818
Rt:__ZN7mecanim5human14RetargetToTDoFEPKNS0_5HumanEPNS0_9HumanPoseEPNS_8skeleton13SkeletonPoseTIN4math4trsXEEESB_
Tqj:__ZN6il2cpp6icalls8mscorlib6System11Environment20GetWindowsFolderPathEi
Reg:__ZL60AspectRatioFitter_t3114550109_CustomAttributesCacheGeneratorP21CustomAttributesCache
qy:__ZN7mecanim5human18HumanPoseBlendNodeERNS0_9HumanPoseEPS1_f
hHc:_UNITY_FT_RoundFix
FWb:__ZN9ShaderLab20SerializedSubProgram15AddTextureParamEPKcii16TextureDimension
Gr:__ZNK8Animator26GetTypeInfoVirtualInternalEv
lQ:__ZN23CloudWebServicesManager23VirtualRedirectTransferER17RemapPPtrTransfer
Hte:__ZN21InterfaceFuncInvoker1Ib40CustomAttributeTypedArgument_t1498197914E6InvokeEjP11Il2CppClassP12Il2CppObjectS0_
Iti:_Uri_get_Parser_m2250631932
Ybi:_Event_GetHashCode_m2214628668
LQd:_Graphic_set_color_m646149893
kih:_Dictionary_2_System_Collections_ICollection_get_IsSynchronized_m960517203_gshared
Kga:__ZN14SafeBinaryRead19TransferSTLStyleMapINSt3__23mapIN4core12basic_stringIcNS3_20StringStorageDefaultIcEEEES7_NS1_4lessIS7_EE13stl_allocatorINS1_4pairIKS7_S7_EEL18MemLabelIdentifier1ELi16EEEEEEvRT_17TransferMetaFlags
Dyg:_Type_MakeByRefType_m1323101575
fPc:__ZN2UI6Canvas27UpdateEventIndexesRecursiveERi
nx:__ZN7mecanim9animation18EvaluateRootMotionERKNS0_18ClipMuscleConstantERKNS0_15ClipMuscleInputEPKfS8_RNS0_12MotionOutputEb
fR:__ZN11UnityEngine15CloudWebService16SessionContainer21PrepareDataErrorEventERN4core12basic_stringIcNS2_20StringStorageDefaultIcEEEE
iDc:_UNITY_FT_Outline_New
Lrj:__ZNSt3__218uninitialized_copyIPNS_4pairIK10KeyWrapperIPK19Il2CppGenericMethodEP10MethodInfoEESB_EET0_T_SD_SC_
E3f:__ZL85GUI_t4082743951_CustomAttributesCacheGenerator_GUI_set_nextScrollStepTime_m2724006954P21CustomAttributesCache
OYc:__ZN16UploadHandlerRaw13TransmitBytesEPvjj
$Mb:__Z19TransferField_ArrayI19StreamedBinaryWriteILb0EE27Converter_SimpleNativeClassI8GUIStyleEEvRK23StaticTransferFieldInfoR31RuntimeSerializationCommandInfoRT0_
UUf:__ZL101AssetBundleRequest_t2674559435_CustomAttributesCacheGenerator_AssetBundleRequest_get_asset_m624603186P21CustomAttributesCache
dW:__ZNK13ScreenManager12GetIsFocusedEv
Ceg:__ZL70SpriteState_t1353336012_CustomAttributesCacheGenerator_m_PressedSpriteP21CustomAttributesCache
ykg:_RemotingServices_RegisterInternalChannels_m1827304423
sUg:_GUIStyle_get_onNormal_m1675201777
br:__ZL32CleanupAnimationScriptingClassesv
T_i:__ZNSt3__213__vector_baseIN6il2cpp2os19SocketHandleWrapperENS_9allocatorIS3_EEED2Ev
_3e:_ASN1_get_Length_m3359111015
ITg:_GUISkin_get_verticalScrollbarThumb_m649633186
pWg:_GUIStyleState_Cleanup_m705006206
ec:invoke_viiffi
A7a:__ZN13sorted_vectorINSt3__24pairIN4core12basic_stringIcNS2_20StringStorageDefaultIcEEEEPK17MessageIdentifierEEN10vector_mapIS6_S9_NS0_4lessIS6_EENS0_9allocatorISA_EEE13value_compareESF_E10insert_oneERKSA_
Yt:__ZNSt3__227__insertion_sort_incompleteIRPFbPKN8Animator11AnimatorJobES4_EPS4_EEbT0_S9_T_
Nug:_Thread_GetCachedCurrentUICulture_m5590127
Oob:__ZNK12CubemapArray20GetRuntimeMemorySizeEv
ICi:_Vector3_Dot_m3161182818
Fki:_CrossAppDomainSink_get_TargetDomainId_m775204051
BUb:__Z14resize_trimmedINSt3__26vectorIN9ShaderLab18SerializedPropertyENS0_9allocatorIS3_EEEEEvRT_j
WRi:__ZL25UnresolvedVirtualCall_158P12Il2CppObject18Color32_t874517518PK10MethodInfo
Jpe:_List_1_CheckMatch_m4018158235_gshared
d_h:__Z91RuntimeInvoker_Int32_t2071877448_UICharInfo_t3056636800_UICharInfo_t3056636800_Il2CppObjectPK10MethodInfoPvPS2_
X1e:_Context_t2636657155_marshal_pinvoke_back
iXi:__ZN6il2cpp2vm13MetadataCache38GetMethodInfoFromMethodDefinitionIndexEi
_gd:_Byte_System_IConvertible_ToDateTime_m1583041031
Vtb:__ZN10VertexData8TransferI24GenerateTypeTreeTransferEEvRT_
m3f:__ZL98CanvasRenderer_t261436805_CustomAttributesCacheGenerator_CanvasRenderer_get_absoluteDepth_m4243141P21CustomAttributesCache
qrj:__ZN13Il2CppHashMapIPK19Il2CppGenericMethodP10MethodInfoN6il2cpp8metadata23Il2CppGenericMethodHashENS6_26Il2CppGenericMethodCompareENSt3__29allocatorINS9_4pairIK10KeyWrapperIS2_ES4_EEEEEC2EjRKS7_RKS8_
R7e:_EncryptedData_get_EncryptionAlgorithm_m1301274243
cmh:_EqualityComparer_1_System_Collections_IEqualityComparer_Equals_m1089835085_gshared
r0a:__ZL10CullLightsRK22SceneCullingParametersR11CullResults
RPd:_Dropdown__cctor_m264401557
k0h:__Z94RuntimeInvoker_Void_t1841601450_Int32U5BU5DU26_t1341332175_Int32_t2071877448_Int32_t2071877448PK10MethodInfoPvPS2_
$dd:_Array_IndexOf_m2819632474
_Ah:_Comparer_1__cctor_m3996541505_gshared
Vy:__ZN7mecanim12statemachine20GetBlendTreeConstantERKNS0_13StateConstantEi
u5b:__Z40GetTemporaryCachePathApplicationSpecificv
Uua:__ZN9GfxDevice16EndAsyncJobFrameEv
TTd:_Image_get_minWidth_m1809071077
v9i:__ZNK15dense_hashtableINSt3__24pairIK10KeyWrapperINS1_IPK12PropertyInfoP11Il2CppClassEEEjEES9_17ReflectionMapHashIS8_EN14dense_hash_mapIS9_jSD_NS9_14EqualsComparerINS0_8equal_toIS8_EEEENS0_9allocatorISB_EEE9SelectKeyESI_SK_E10test_emptyERK30dense_hashtable_const_iteratorISB_S9_SD_SM_SI_SK_E
cEc:_UNITY_tt_face_load_hhea
ACb:__ZN24RingBufferMemoryFileData11SetGrowableEb
Fci:_PersistentCall__ctor_m2079279187
qqd:_Convert_ToBase64String_m1936815455
Ok:___syscall3
Rk:___syscall6
iwa:__ZN9GfxDevice15GetNextCPUFenceEv
Tk:___syscall4
LRf:__ZL49Random_t1044426839_CustomAttributesCacheGeneratorP21CustomAttributesCache
hzd:_Decimal_ToString_m759431975
bye:_Collection_1_System_Collections_IList_get_IsFixedSize_m2204750039_gshared
ALd:_ColorBlock_get_fadeDuration_m987725262
cdg:__ZL195U3CMouseDragOutsideRectU3Ec__Iterator1_t2599668326_CustomAttributesCacheGenerator_U3CMouseDragOutsideRectU3Ec__Iterator1_System_Collections_Generic_IEnumeratorU3CobjectU3E_get_Current_m2602955272P21CustomAttributesCache
flj:__ZN6il2cpp2vm3RCW14QueryInterfaceILb1EEEP14Il2CppIUnknownP15Il2CppComObjectRK10Il2CppGuid
xpg:_CryptographicException__ctor_m2415891459
Fwc:__ZN27PerformanceReportingManager23VirtualRedirectTransferER14SafeBinaryRead
Rje:_List_1_AddCollection_m3266731889_gshared
y9b:__ZN9Scripting25BroadcastScriptingMessageER10GameObjectPKc18ScriptingObjectPtr
gl:_emscripten_glShaderBinary
Cue:_Collection_1_System_Collections_IList_set_Item_m150887383_gshared
ukc:__ZNSt3__26__treeINS_12__value_typeIN4core12basic_stringIcNS2_20StringStorageDefaultIcEEEES6_EENS_19__map_value_compareIS6_S7_N6detail7ci_lessELb1EEENS_9allocatorIS7_EEE16__construct_nodeERKNS_4pairIKS6_S6_EE
bdd:_Array_InternalArray__RemoveAt_m1126483634
c8h:_Camera_INTERNAL_CALL_RaycastTry_m1030092423
tmf:_SslStreamBase_Dispose_m747909841
Nth:_InternalEnumerator_1_Dispose_m4038440306_AdjustorThunk
r$g:_RangeInt_get_end_m913869897
dpf:_DictionaryNodeEnumerator_get_DictionaryNode_m3521889822
Eu:__ZN7mecanim5human19MaskHasLeftFootGoalERKNS_6bitsetILj70EEE
iZg:_Mesh_get_colors32_m4153271224
zSc:__Z58Register_UnityEngine_Canvas_GetETC1SupportedCanvasMaterialv
cPb:__ZN17AnimationCurveTplIfE8TransferI18StreamedBinaryReadILb1EEEEvRT_
rxd:_DateTimeOffset_GetHashCode_m3312197462_AdjustorThunk
bWc:__ZN18UnityConnectClientD2Ev
Hrf:_ServicePoint_set_UseNagleAlgorithm_m2618011464
v2i:_il2cpp_set_data_dir
Dti:_Uri_get_IsUnc_m2111738174
Ahb:__ZN16LevelGameManager23VirtualRedirectTransferER19StreamedBinaryWriteILb0EE
Rtb:__Z32TransferEnumWithNameForceIntSizeI14SafeBinaryRead16GfxPrimitiveTypeEvRT_RT0_PKc17TransferMetaFlags
Izh:_DefaultComparer__ctor_m1961329658_gshared
GKg:_ParameterBuilder_get_Attributes_m2421099277
NAi:_TouchScreenKeyboard_get_done_m406461410
Qyi:_DataUtility_INTERNAL_CALL_GetPadding_m1621366113
K8i:__ZN15dense_hashtableINSt3__24pairIK10KeyWrapperINS1_IPK11Il2CppImageP11Il2CppClassEEEjEES9_17ReflectionMapHashIS8_EN14dense_hash_mapIS9_jSD_NS9_14EqualsComparerINS0_8equal_toIS8_EEEENS0_9allocatorISB_EEE9SelectKeyESI_SK_E5clearEv
wSi:__ZL25UnresolvedVirtualCall_186P12Il2CppObject20TimeSpan_t3430258949PK10MethodInfo
mVc:__ZN11UnityEngine15PlatformWrapper30GetGraphicsDriverLibraryStringEv
q2f:__ZL51UIVertex_t1204258818_CustomAttributesCacheGeneratorP21CustomAttributesCache
YBi:_Vector2_ToString_m775491729
rke:_List_1_get_Count_m1752597149_gshared
kef:_EncryptedPrivateKeyInfo_Decode_m1706190306
eQb:__Z18Transfer_BlittableI18StreamedBinaryReadILb0EELb0E4AABBEvRK29SerializationCommandArgumentsR31RuntimeSerializationCommandInfo
yud:_Convert_ToUInt16_m1665900934
$Ie:_Converter_2_BeginInvoke_m898151494_gshared
gMe:_RegionInfo__ctor_m2058831971
V2a:__Z14DrawGUITextureRK5RectTIfEP7Texture11ColorRGBA32P8Materiali
mah:_Text_get_supportRichText_m3291105891
x1g:_RectTransform_GetParentSize_m1571597933
Ps:__ZN9BlobWrite8TransferI22OffsetPtrArrayTransferIKN4math7_float4EEEEvRT_PKc17TransferMetaFlags
PGe:_ReadOnlyCollection_1_get_Count_m336636247_gshared
wUi:__ZNK15dense_hashtableINSt3__24pairIK10KeyWrapperIPKcEP11Il2CppClassEES5_N6il2cpp5utils11StringUtils12StringHasherIS4_EEN14dense_hash_mapIS5_S8_SE_NS5_14EqualsComparerINSC_21CaseSensitiveComparerEEENS0_9allocatorIS9_EEE9SelectKeyESI_SK_E10test_emptyERK30dense_hashtable_const_iteratorIS9_S5_SE_SM_SI_SK_E
Ida:__ZN15TextureSettings8TransferI24GenerateTypeTreeTransferEEvRT_
aGh:__Z52RuntimeInvoker_Decimal_t724701077_Double_t4078015681PK10MethodInfoPvPS2_
Roi:_MatchCollection_GetEnumerator_m3516985966
_sc:__ZN9JSONWrite8TransferI4AABBEEvRT_PKc17TransferMetaFlags
Nsg:_UTF7Encoding__ctor_m2365939916
BKa:__ZN25MultiBlocksMemoryFileData9SetLengthEy
RM:__Z30GetAudioSpatializerDefinitionsR13dynamic_arrayIP29AudioEffectInternalDefinitionLj4EE
zzi:_TextGenerationSettings_Equals_m3944651893_AdjustorThunk
f3g:_MatEntry__ctor_m3650167335
KWh:__Z143RuntimeInvoker_Void_t1841601450_Il2CppObject_Vector2_t2243707579_Vector2_t2243707579_Color32_t874517518_Vector2_t2243707579_Vector2_t2243707579PK10MethodInfoPvPS2_
zZi:_ListPool_1_U3Cs_ListPoolU3Em__0_m441310157_gshared
bBb:__ZNSt3__26vectorIN30RuntimeInitializeOnLoadManager9ClassInfoE13stl_allocatorIS2_L18MemLabelIdentifier12ELi16EEE8__appendEj
ppb:__ZNK9Texture2D20GetRuntimeMemorySizeEv
Jyg:_TypeInitializationException__ctor_m2993591639
Hlh:_EqualityComparer_1__ctor_m3788663378_gshared
pm:_emscripten_glUniform2iv
FLf:__ZL46DES_t1353513560_CustomAttributesCacheGeneratorP21CustomAttributesCache
gOe:_Int16_System_IConvertible_ToInt64_m733340257
ZPf:__ZL79Convert_t2607082565_CustomAttributesCacheGenerator_Convert_ToSingle_m2156102599P21CustomAttributesCache
$zc:_UNITY_FT_Outline_Transform
_Tg:_SkinChangedDelegate_BeginInvoke_m4259161711
Mhc:__Z60Register_UnityEngine_Sprites_DataUtility_Internal_GetMinSizev
hOi:__ZN6il2cpp2vm5Class10GetMethodsEP11Il2CppClassPPv
_Yc:__ZNK25UnityWebRequestJavaScript17GetUploadProgressEv
eYa:__Z30AddDefaultStreamsToMeshBuffersR9GfxDeviceR11MeshBuffersRK16DrawBuffersRange17ShaderChannelMaskS6_
qCf:__ZL65Il2CppArray_CustomAttributesCacheGenerator_Array_Sort_m3500510484P21CustomAttributesCache
C5c:_Hash_GetObjectData_m315532943
bza:__ZN7ApiGLES17DeleteFramebufferERN2gl6HandleILNS0_10ObjectTypeE9EEES3_
YNi:__ZN13dynamic_arrayIP11Il2CppClassLj4EE7reserveEj
PFa:__ZN15UniformTFMethod13MapBoneBufferEj
xhf:_RecordProtocol_SendAlert_m2816808523
hOc:__ZN2UI14CanvasRendererD2Ev
joi:_MethodCall_get_LogicalCallContext_m3769562079
kfj:__ZN6il2cpp6icalls8mscorlib6System5Array8SetValueEP11Il2CppArrayP12Il2CppObjectS5_
hXe:_SynchronizedReader_Read_m1399666181
YMg:_MonoEvent_get_Name_m2796714646
haa:__Z9SetupArgviPPKc
f0d:_Array_InternalArray__IEnumerable_GetEnumerator_TisHitInfo_t1761367055_m2486283755_gshared
wId:_PointerEventData_set_worldNormal_m2025727441
Eif:_Context_get_SentConnectionEnd_m3114190867
Kcb:__ZN12ImmediatePtrI10GameObjectE8TransferI19StreamedBinaryWriteILb0EEEEvRT_
Sob:__ZN12CubemapArray23VirtualRedirectTransferER24GenerateTypeTreeTransfer
uPi:__ZL24UnresolvedVirtualCall_22P12Il2CppObjectS0_iS0_S0_S0_PK10MethodInfo
g5:__ZN12FileAccessor4OpenER15FileSystemEntry14FilePermission16FileAutoBehavior
XCe:_ReadOnlyCollection_1__ctor_m2364452928_gshared
iqj:__ZN6il2cpp2os9Directory6CreateERKNSt3__212basic_stringIcNS2_11char_traitsIcEENS2_9allocatorIcEEEEPi
Iha:__ZN4PPtrI6ShaderE8TransferI18StreamedBinaryReadILb0EEEEvRT_
y2a:__ZN23TransformChangeDispatch32QueueTransformChangeIfHasChangedERK15TransformAccess
$Hd:_PointerEventData_set_clickTime_m3931922487
aRg:_WindowFunction__ctor_m977095815
gKe:_NumberFormatter_AppendNonNegativeNumber_m629862866
wia:__ZNSt3__26vectorINS_4pairIN9ShaderLab16FastPropertyNameEN18UnityPropertySheet11UnityTexEnvEEENS_9allocatorIS6_EEE21__push_back_slow_pathIKS6_EEvRT_
PMa:__ZN15ArchiveReadFile5WriteEyPKvPy
Whi:_ResourceInfo__ctor_m2401359321_AdjustorThunk
brj:__ZN6il2cpp2os26LibraryNamePrefixAndSuffixC2EPKcS3_
wnd:_Hashtable__ctor_m392789568
wug:_Mutex_CreateMutex_internal_m2352956576
Osg:_UTF7Encoding__cctor_m4192443836
$nc:__Z31GUIStyle_CUSTOM_SetFontInternalP12Il2CppObjectS0_
B:tempValue
r9a:__Z29StdTemplateConversionFunctionIaiEbPvR14SafeBinaryRead
vAj:__ZN6il2cpp8metadata24Il2CppGenericContextHash4HashEPK20Il2CppGenericContext
kOe:_Int16_System_IConvertible_ToSingle_m3277935657
D_:__Z29scripting_class_from_fullnamePKcS0_S0_
OWf:__ZL97GameObject_t1756533147_CustomAttributesCacheGenerator_GameObject_GetComponentInParent_m1235194528P21CustomAttributesCache
_4g:_Raycast3DCallback_Invoke_m2271859924
sz:__ZN26AnimatorControllerPlayable18DeallocateBindingsEv
mN:__ZN11AudioSource19CreateOpenALRolloffEfff
A3f:__ZL83Event_t3028476042_CustomAttributesCacheGenerator_Event_set_displayIndex_m3631666901P21CustomAttributesCache
REc:_UNITY_FT_Stream_ReadAt
d_f:__ZL111Object_t1021602117_CustomAttributesCacheGenerator_Object_DestroyImmediate_m3563317232____allowDestroyingAssets1P21CustomAttributesCache
_oa:__ZN9Texture3D34UpdateFileTextureUploadInstructionEP28FileTextureUploadInstructionj
UUg:_GUIStyle_get_lineHeight_m2132859383
s_h:__Z102RuntimeInvoker_Int32_t2071877448_Il2CppObject_UIVertex_t1204258818_Int32_t2071877448_Int32_t2071877448PK10MethodInfoPvPS2_
$ci:_UnityEvent_FindMethod_Impl_m3303953986
Oyg:_UInt16_System_IConvertible_ToBoolean_m887616848
jVf:__ZL120ScriptableObject_t1975622470_CustomAttributesCacheGenerator_ScriptableObject_Internal_CreateScriptableObject_m1778903390P21CustomAttributesCache
QO:__ZN11AudioModule22CreateAudioClipFromWWWEP10IWWWStreamPKcbbi
VDh:__Z142RuntimeInvoker_Boolean_t3825574718_Il2CppObject_Int32_t2071877448_Il2CppObject_SByte_t454417549_UInt32U26_t2197289955_ExceptionU26_t1467204777PK10MethodInfoPvPS2_
yrg:_StringBuilder_set_Length_m3039225444
Wxe:_Collection_1_System_Collections_IList_Contains_m3870109702_gshared
CZd:_Array_InternalArray__ICollection_Contains_TisRaycastResult_t21186376_m3188614988_gshared
Rfh:_Dictionary_2_System_Collections_Generic_ICollectionU3CSystem_Collections_Generic_KeyValuePairU3CTKeyU2CTValueU3EU3E_get_IsReadOnly_m1111602362_gshared
hvd:_CultureAwareComparer_GetHashCode_m3681260951
eQc:__Z13RegisterClassIN2UI11CanvasGroupEEvv
DJi:_U3CStartU3Ec__Iterator0__ctor_m951808111_gshared
qf:_emscripten_glClear
h5g:_Selectable__ctor_m1440593935
wRi:__ZL25UnresolvedVirtualCall_132P12Il2CppObject17Color_t2020392075faaaPK10MethodInfo
U4b:__ZNK8Playable6HandleEv
_Bf:__ZL65Il2CppArray_CustomAttributesCacheGenerator_Array_Clear_m782967417P21CustomAttributesCache
_Fj:___cxa_guard_abort
rFg:_CustomAttributeTypedArgument_t1498197914_marshal_pinvoke_back
t3:__ZN14MessageHandler28MessageIDToMessageIdentifierEi
wqf:_HttpRequestCreator_Create_m3607509610
T3f:__ZL50GUISkin_t1436893342_CustomAttributesCacheGeneratorP21CustomAttributesCache
QQi:__ZL24UnresolvedVirtualCall_98P12Il2CppObject8IntPtr_tPK10MethodInfo
Kqe:_List_1_Shift_m3824049528_gshared
jlg:_ArrayFixupRecord__ctor_m3659990982
Qif:_Context_get_RandomCS_m3946020109
WAf:__ZL72IntPtr_t_CustomAttributesCacheGenerator_IntPtr_op_Inequality_m3044532593P21CustomAttributesCache
bPd:_Dropdown_get_onValueChanged_m3334401942
dyj:__ZN6il2cpp2vm10WaitHandle19NewManualResetEventEb
oEe:_ReadOnlyCollection_1_System_Collections_IList_Contains_m3707723158_gshared
LCg:_Version_GetHashCode_m880841176
o4h:_CustomEventData_Add_m4160204358
VD:__Z51Register_UnityEngine_Animator_get_hasBoundPlayablesv
eFi:_Nullable_1_ToString_m1238126148_AdjustorThunk
Hd:emscriptenWebGLGetUniform
so:FUNCTION_TABLE_iiiiiiiiiii
Ipa:__Z32TransferEnumWithNameForceIntSizeI14SafeBinaryRead13TextureFormatEvRT_RT0_PKc17TransferMetaFlags
Edg:__ZL86Scrollbar_t3248359358_CustomAttributesCacheGenerator_Scrollbar_ClickRepeat_m3403943364P21CustomAttributesCache
U1a:__ZL10CleanUpJobP20CullingGroupsJobData
Kid:_Char_CompareTo_m3044885427_AdjustorThunk
jTe:_FileStream_GetSecureFileName_m508045384
dYa:__Z20IsRunningNativeTestsv
Ovh:_InternalEnumerator_1_System_Collections_IEnumerator_get_Current_m2035754659_AdjustorThunk
Pwb:__ZN10MeshFilter23VirtualRedirectTransferER24GenerateTypeTreeTransfer
O2a:__ZN13RenderManager15BatchModeUpdateEv
GFi:_Predicate_1_EndInvoke_m973058386_gshared
fYf:__ZL52LayerMask_t3188175821_CustomAttributesCacheGeneratorP21CustomAttributesCache
Due:_Collection_1_Add_m3985367602_gshared
Rub:__ZN14SafeBinaryRead21TransferSTLStyleArrayI13dynamic_arrayI8Vector2fLj4EEEEvRT_17TransferMetaFlags
ria:__ZN17PersistentManager51InstanceIDToLocalSerializedObjectIdentifierInternalEiR31LocalSerializedObjectIdentifier
rPg:_StrongNameKeyPair_System_Runtime_Serialization_IDeserializationCallback_OnDeserialization_m2330221363
VJc:_UNITY_FT_Create_Class_cff_services
Gzh:_DefaultComparer__ctor_m1661558765_gshared
kd:_glVertexAttribIPointer
dCg:_UnhandledExceptionEventHandler_EndInvoke_m2207457167
Pfh:_Dictionary_2_System_Collections_ICollection_get_IsSynchronized_m304009368_gshared
z_c:_HMAC_set_HashName_m457235014
m7b:__ZNK6Sprite10GetPaddingE20SpriteRenderDataMode
OYd:_Array_InternalArray__ICollection_Contains_TisTableRange_t2011406615_m605506746_gshared
jgh:_Dictionary_2_Add_m1296007576_gshared
gud:_Decimal_op_Explicit_m729046406
Hpg:_CryptoConfig_CreateFromName_m2169102076
jRd:_Graphic_OnEnable_m2900261811
Kpg:_CryptographicUnexpectedOperationException__ctor_m3552441227
Efi:_AnimatorControllerPlayable_GetAnimatorClipInfoCountInternal_m826336390
vkd:_ArrayListWrapper_Clear_m321161741
mWd:_InputField_LineDownCharacterPosition_m2690468785
QEc:_UNITY_ft_glyphslot_alloc_bitmap
i1h:__Z56RuntimeInvoker_ContentType_t1028629049_Int32_t2071877448PK10MethodInfoPvPS2_
w8d:_Array_Sort_TisVector2_t2243707579_TisVector2_t2243707579_m2582252549_gshared
OAg:_UInt64_System_IConvertible_ToDouble_m2828923873
$Ih:__Z45RuntimeInvoker_Il2CppObject_Int16_t4041245914PK10MethodInfoPvPS2_
hVi:__ZN15dense_hashtableI10KeyWrapperIPK17Il2CppGenericInstES4_N6il2cpp8metadata21Il2CppGenericInstHashEN14dense_hash_setIS4_S7_NS4_14EqualsComparerINS6_24Il2CppGenericInstCompareEEENSt3__29allocatorIS4_EEE8IdentityESB_SE_E16reset_thresholdsEv
e$b:__ZZN2UI13RectTransform15InitializeClassEvEN31FunctorImpl_62kTransformChanged4CallEPviR11MessageData
Ile:_List_1_System_Collections_IList_set_Item_m1129584681_gshared
kGc:_ft_raster1_render
Rgc:__Z57Register_UnityEngine_RectTransform_INTERNAL_set_anchorMaxv
Cge:_List_1_set_Capacity_m491101164_gshared
KEj:__ZNKSt3__221__basic_string_commonILb1EE20__throw_length_errorEv
Wrg:_StringBuilder_Insert_m1733097906
vPh:__Z88RuntimeInvoker_Void_t1841601450_Il2CppObject_Int32_t2071877448_Il2CppObject_Il2CppObjectPK10MethodInfoPvPS2_
bBh:_Comparer_1__ctor_m1157133632_gshared
lnf:_SslStreamBase_get_HashStrength_m480059173
UIe:_Comparison_1_EndInvoke_m2678763282_gshared
Heh:_ValueCollection_System_Collections_Generic_ICollectionU3CTValueU3E_Clear_m3271993638_gshared
bqd:_Enumerator_MoveNext_m1419609883
dJ:__ZN4FMOD7Channel19setReverbPropertiesEPK29FMOD_REVERB_CHANNELPROPERTIES
U2:__ZN13MonoBehaviour22GetScriptFullClassNameEv
K3i:_il2cpp_object_get_class
gGf:__ZL111DerivedType_t1016359113_CustomAttributesCacheGenerator_DerivedType_MakeGenericType_m742223168____typeArguments0P21CustomAttributesCache
LGe:_ReadOnlyCollection_1_Contains_m1816350632_gshared
Gqf:_ServicePointManager_FindServicePoint_m3137356168
xoa:__ZN20SphericalHarmonicsL211AddWeightedERKS_f
OId:_PointerInputModule_GetPointerData_m1695674453
WJb:__Z19TransferField_ArrayI17RemapPPtrTransfer27Converter_SimpleNativeClassI8GUIStyleEEvRK23StaticTransferFieldInfoR31RuntimeSerializationCommandInfoRT0_
_0:__ZL22StaticInitializeShaderPv
cvd:_Convert_ToUInt64_m345450801
hFi:_Predicate_1_BeginInvoke_m2559992383_gshared
ijj:__ZN6il2cpp2vm3RCW7CleanupEP15Il2CppComObject
jqc:__ZN9JSONWrite8TransferI10ColorRGBAfEEvRT_PKc17TransferMetaFlags
y$h:__Z52RuntimeInvoker_Void_t1841601450_Keyframe_t1449471340PK10MethodInfoPvPS2_
sCe:_ReadOnlyCollection_1_get_Item_m1909688500_gshared
n3:__Z25scripting_method_get_name18ScriptingMethodPtr
_gc:__Z35Register_UnityEngine_Resources_Loadv
FIb:__Z19TransferField_ArrayI14SafeBinaryRead16Converter_StringEvRK23StaticTransferFieldInfoR31RuntimeSerializationCommandInfoRT0_
eEj:_rename
cwj:_GC_exit_check
d$e:_NotSupportedException__ctor_m3232764727
Wpf:_TypeConverterAttribute_Equals_m2330345916
H4f:__ZL86GUIStyle_t1799908754_CustomAttributesCacheGenerator_GUIStyle_get_alignment_m3513439031P21CustomAttributesCache
S1:__Z20UnlockObjectCreationv
PQh:__Z55RuntimeInvoker_Il2CppObject_RegexOptionsU26_t3063574985PK10MethodInfoPvPS2_
LSe:_MonoIO_CreateDirectory_m379525469
S0d:__ZN21InterfaceFuncInvoker2Ii22UILineInfo_t3621277874S0_E6InvokeEjP11Il2CppClassP12Il2CppObjectS0_S0_
Gs:__ZN9BlobWrite8TransferI22OffsetPtrArrayTransferI9OffsetPtrIN7mecanim12statemachine18StateMachineMemoryEEEEEvRT_PKc17TransferMetaFlags
lCc:_UNITY_ft_smooth_renderer_class_pic_free
soe:_List_1_System_Collections_IList_Remove_m3763718607_gshared
j7h:_Bounds_get_center_m129401026
hmf:_SslClientStream_remove_PrivateKeySelection_m427666577
F8c:_String_Concat_m2000667605
Q_i:__ZN6il2cpp2os19SocketHandleWrapperC2ERKS1_
ypj:__ZN6il2cpp2os10ThreadImpl12QueueUserAPCEPFvPvES2_
eG:__Z32TransferEnumWithNameForceIntSizeI14SafeBinaryReadN10SampleClip17CompressionFormatEEvRT_RT0_PKc17TransferMetaFlags
UVc:__ZN22BaseUnityConnectClient10QueueEventERN11UnityEngine15CloudWebService17CloudServiceEventEPKcjb
$Yg:_Mesh_DefaultDimensionForChannel_m153181993
Mle:__ZN23InterfaceActionInvoker2IP28UICharInfoU5BU5D_t2749705857iE6InvokeEjP11Il2CppClassP12Il2CppObjectS1_i
_Xf:__ZL81Input_t1785128008_CustomAttributesCacheGenerator_Input_get_touchCount_m2050827666P21CustomAttributesCache
R2c:_SHA384Managed_unpackWord_m2501009050
LLc:_UNITY_FT_Hypot
ofd:_BitConverter_ToInt64_m1329623425
M$b:__ZN8RendererC2E12RendererType18MemLabelIdentifier18ObjectCreationMode
lNf:__ZL95ASCIIEncoding_t3022927988_CustomAttributesCacheGenerator_ASCIIEncoding_GetByteCount_m1396020051P21CustomAttributesCache
Y2i:_il2cpp_class_is_abstract
o9f:__ZL92PointerEventData_t1599784723_CustomAttributesCacheGenerator_U3CpointerDragU3Ek__BackingFieldP21CustomAttributesCache
Af:_emscripten_glGetError
SJ:__Z14FMOD_FILE_SeekPvjS_
Jni:_MethodCall_get_Properties_m1893707917
rBf:__ZL72Enum_t2459695545_CustomAttributesCacheGenerator_Enum_ToObject_m604645223P21CustomAttributesCache
sch:_ShimEnumerator_get_Entry_m2387156530_gshared
TTc:__Z56Register_UnityEngine_Analytics_CustomEventData_AddStringv
w3a:__ZNK13RenderTexture32CalculateNeedsInvertedProjectionEv
hbb:__ZN10systeminfo18GetOperatingSystemEv
If:emscriptenWebGLGet
I0g:_Rect_GetHashCode_m559954498_AdjustorThunk
m5:__Z19CanReplaceComponentRN5Unity9ComponentEPKNS_4TypeEPN4core12basic_stringIcNS5_20StringStorageDefaultIcEEEE
X0b:__ZN12CubemapArray11InitTextureEiii13TextureFormatb
Hme:_List_1_GrowIfNeeded_m2433342921_gshared
QSh:__Z36RuntimeInvoker_Matrix4x4_t2933234003PK10MethodInfoPvPS2_
AJa:__ZNK15Lz4Decompressor20DecompressStreamInitEPPv
H7i:__ZN24dense_hashtable_iteratorINSt3__24pairIK10KeyWrapperIPK10Il2CppTypeEjEES6_N6il2cpp8metadata14Il2CppTypeHashEN14dense_hash_mapIS6_jSB_NS6_14EqualsComparerINSA_26Il2CppTypeEqualityComparerEEENS0_9allocatorIS8_EEE9SelectKeyESF_SH_E30advance_past_empty_and_deletedEv
fue:_Collection_1_set_Item_m3803272710_gshared
nZg:_Mesh_SetUVs_m841280343
hOg:_MonoMethodInfo_t3646562144_marshal_pinvoke_cleanup
Ytf:_X509Certificate2_get_SignatureAlgorithm_m3069898012
vqf:_HttpRequestCreator__ctor_m2513916021
NE:__Z105Register_UnityEngine_Experimental_Director_AnimatorControllerPlayable_INTERNAL_CALL_GetLayerCountInternalv
qQe:_Int64_System_IConvertible_ToSingle_m1678482180
NLh:__Z54RuntimeInvoker_Il2CppObject_IntPtr_t_Int32_t2071877448PK10MethodInfoPvPS2_
DVg:_GUIStyle_INTERNAL_CALL_Internal_CalcSizeWithConstraints_m1203344891
ot:__ZN7mecanim5human13HumanFixTwistEPKNS0_5HumanEPNS_8skeleton13SkeletonPoseTIN4math4trsXEEES9_iiRKf
OYa:__ZL24AssignProjectorQueuesJobP30AssignProjectorQueuesJobHeader
dwg:_TimeSpan_get_Hours_m3804628138
sQd:_FontData_set_alignByGeometry_m2819509290
xkj:__ZN14dense_hash_mapI10KeyWrapperIP12Il2CppObjectEN6il2cpp2gc9CachedCCWENS4_5utils11PointerHashIS1_EENS3_14EqualsComparerINSt3__28equal_toIS2_EEEENSB_9allocatorINSB_4pairIKS3_S6_EEEEEC2EjRKS9_RKSE_
_pi:_Regex__ctor_m3250610064
CWb:__ZN9ShaderLab20SerializedSubProgram14SetConstBufferEPKci
Naf:_ArgumentNullException__ctor_m911049464
AMg:_TargetParameterCountException__ctor_m2760108938
vig:_SoapAttribute_SetReflectionObject_m2774156012
lEi:_Check_Source_m3385315029
jHi:_InvokableCall_4_Find_m1467690987_gshared
uIe:_Comparison_1_Invoke_m345024424_gshared
kIc:_cf2_getStdVW
wFe:_ReadOnlyCollection_1_System_Collections_IList_Insert_m3936197025_gshared
JCd:_EventHandler_BeginInvoke_m3027583606
AV:__Z40DebugStringToFilePostprocessedStacktraceRK21DebugStringToFileData
Kuc:__Z29Transfer_Blittable_ArrayFieldI8JSONReadjEvRT_R9ArrayInfoRK23StaticTransferFieldInfo
$yi:_StateMachineBehaviour_OnStateEnter_m1095276890
D_g:_Object_GetInstanceID_m1920497914
pmi:_ContextAttribute__ctor_m4006843177
ovh:_InternalEnumerator_1_get_Current_m314017974_AdjustorThunk
Dgi:_AnimatorControllerPlayable_Play_m1337154648
ng:__setLetterbox
rUe:_MemoryStream__ctor_m1043059966
Iia:__ZNSt3__26__treeINS_12__value_typeIN9ShaderLab16FastPropertyNameEfEENS_19__map_value_compareIS3_S4_NS_4lessIS3_EELb1EEENS_9allocatorIS4_EEE12__find_equalIS3_EERPNS_16__tree_node_baseIPvEENS_21__tree_const_iteratorIS4_PNS_11__tree_nodeIS4_SE_EEiEESH_RKT_
Wzi:_TextGenerator_Populate_Internal_m1817393161
pEf:__ZL57CollectionBase_t1101587467_CustomAttributesCacheGeneratorP21CustomAttributesCache
Xhg:__ZN21InterfaceFuncInvoker3IP12Il2CppObjectP6Type_t28StreamingContext_t1417235061PS1_E6InvokeEjP11Il2CppClassS1_S3_S4_S5_
Kvb:__ZNSt3__26vectorI17BlendShapeChannelNS_9allocatorIS1_EEE6assignINS_11__wrap_iterIPS1_EEEENS_9enable_ifIXaasr21__is_forward_iteratorIT_EE5valuesr16is_constructibleIS1_NS_15iterator_traitsISA_E9referenceEEE5valueEvE4typeESA_SA_
vXd:_LayoutElement_set_preferredWidth_m3072758716
fIi:_UnityEvent_1_AddListener_m1708363187_gshared
Hsf:_AsnEncodedData_ToString_m724151831
d3a:__ZN11TimeManager11GetRealtimeEv
ate:_Collection_1_System_Collections_IList_get_IsFixedSize_m2408637569_gshared
Itg:_UTF8Encoding_GetByteCount_m1469571127
lkc:__ZN20UnityWebRequestProtoI19TransportJavaScript16AtomicRefCounter14RedirectHelper14ResponseHelper15DownloadHandler13UploadHandler12HeaderHelper14AsyncOperationE26Job_ExecuteUnityWebRequestEPS8_
dK:__ZN29AudioEffectInternalDefinitionC2EP26UnityAudioEffectDefinitionb
KMg:_MonoMethodInfo_GetDeclaringType_m4186531677
Vig:_SoapTypeAttribute_SetReflectionObject_m1566293812
Hjh:_DefaultComparer__ctor_m418731767_gshared
RA:__ZN4PPtrI6AvatarE8TransferI18StreamedBinaryReadILb0EEEEvRT_
gLi:_Enumerator_System_Collections_IEnumerator_Reset_m2573763156_AdjustorThunk
Hkg:_RemotingServices_CreateClientProxy_m1631035355
sBg:_UInt64_ToString_m2892887310
U4f:__ZL88GUIStyle_t1799908754_CustomAttributesCacheGenerator_GUIStyle_set_fixedHeight_m1517737608P21CustomAttributesCache
p8c:_String_System_IConvertible_ToType_m512800076
xrj:__ZN15dense_hashtableINSt3__24pairIK10KeyWrapperIPK19Il2CppGenericMethodEP10MethodInfoEES6_N6il2cpp8metadata23Il2CppGenericMethodHashEN14dense_hash_mapIS6_S9_SD_NS6_14EqualsComparerINSC_26Il2CppGenericMethodCompareEEENS0_9allocatorISA_EEE9SelectKeyESH_SJ_EC2ERKSM_j
p9i:__ZN15dense_hashtableINSt3__24pairIK10KeyWrapperINS1_IPK12PropertyInfoP11Il2CppClassEEEjEES9_17ReflectionMapHashIS8_EN14dense_hash_mapIS9_jSD_NS9_14EqualsComparerINS0_8equal_toIS8_EEEENS0_9allocatorISB_EEE9SelectKeyESI_SK_E5clearEv
Vwb:__ZN4PPtrI4MeshE8TransferI14SafeBinaryReadEEvRT_
$Ja:__Z37ReadDirectoryInfo_UnityWebAndUnityRawR12FileAccessorRKN20ArchiveStorageHeader6HeaderERNS1_13DirectoryInfoE
G$d:_Array_InternalArray__IEnumerable_GetEnumerator_TisInt64_t909078037_m1219751804_gshared
G0:__ZNSt3__26__treeINS_12__value_typeIPKciEENS_19__map_value_compareIS3_S4_15compare_tstringIS3_ELb1EEENS_9allocatorIS4_EEE7destroyEPNS_11__tree_nodeIS4_PvEE
jDf:__ZL96RuntimeTypeHandle_t2330101084_CustomAttributesCacheGenerator_RuntimeTypeHandle_Equals_m452760426P21CustomAttributesCache
Pih:_Dictionary_2_ToTValue_m1381983709_gshared
X_e:_MulticastDelegate_KPM_m1592985119
V$g:_RaycastHit2D_get_collider_m2568504212_AdjustorThunk
HAe:_Collection_1_ConvertItem_m3941916604_gshared
NVa:__ZN20DynamicPropertySheet14SetValueQueuedEN9ShaderLab16FastPropertyNameEN19ShaderPropertySheet12PropertyTypeEjNS2_8SetFlagsE
SOc:__ZN2UI6Canvas26MarkAllNestedCanvasesDirtyEv
Wij:__ZN6il2cpp2vm12ReboxIfBoxedEP14Il2CppIUnknownP11Il2CppClass
pme:_List_1__ctor_m2766376432_gshared
U7a:__ZN25PathNamePersistentManagerD2Ev
L1:__ZN17PersistentManager48IntegrateObjectAndUnlockIntegrationMutexInternalEi
eGe:_ReadOnlyCollection_1_System_Collections_IList_get_IsReadOnly_m3872065502_gshared
KGf:__ZL112TypeBuilder_t3308873219_CustomAttributesCacheGenerator_TypeBuilder_MakeGenericType_m4282022646____typeArguments0P21CustomAttributesCache
x3h:__Z89RuntimeInvoker_Il2CppObject_Scene_t1684909666_Scene_t1684909666_Il2CppObject_Il2CppObjectPK10MethodInfoPvPS2_
ip:__ZN6Object12SetHideFlagsENS_9HideFlagsE
sLj:_emscripten_glGetFramebufferAttachmentParameteriv__wrapper
YQa:__ZN13RendererScene15InitializeUmbraEv
H5h:_AnimatorTransitionInfo_IsName_m2561957738_AdjustorThunk
hoa:__Z28CalculateGlobalMatrixInverse23TransformAccessReadOnly
dsc:__ZN4PPtrI6ObjectE8TransferI9JSONWriteEEvRT_
Yej:__ZN6il2cpp2vm6Thread13MemoryBarrierEv
JId:_PointerEventData_ToString_m1218584363
fid:_Char_System_IConvertible_ToChar_m1489061093_AdjustorThunk
Wsg:_UTF7Encoding_GetCharCount_m2589913583
r8f:__ZL117RenderPipelineManager_t984453155_CustomAttributesCacheGenerator_RenderPipelineManager_set_currentPipeline_m3825706412P21CustomAttributesCache
UNh:__Z91RuntimeInvoker_DateTime_t693205669_Il2CppObject_Il2CppObject_Il2CppObject_Int32_t2071877448PK10MethodInfoPvPS2_
pQa:_UNITY_png_write_sCAL_s
iVe:_MemoryStream_CalculateNewCapacity_m3533542025
V7f:__ZL66ExcludeFromDocsAttribute_t665825653_CustomAttributesCacheGeneratorP21CustomAttributesCache
tAj:__ZN6il2cpp6icalls8mscorlib6System6Object7GetTypeEP12Il2CppObject
qUi:__ZNK15dense_hashtableINSt3__24pairIK10KeyWrapperIPKcEP11Il2CppClassEES5_N6il2cpp5utils11StringUtils12StringHasherIS4_EEN14dense_hash_mapIS5_S8_SE_NS5_14EqualsComparerINSC_21CaseSensitiveComparerEEENS0_9allocatorIS9_EEE9SelectKeyESI_SK_E5beginEv
a5f:__ZL88GUIStyle_t1799908754_CustomAttributesCacheGenerator_GUIStyle_GetFontInternal_m3509743324P21CustomAttributesCache
Ewg:_TimeSpan_Equals_m4102942751_AdjustorThunk
u$h:__Z59RuntimeInvoker_Void_t1841601450_X509ChainStatus_t4278378721PK10MethodInfoPvPS2_
Geh:_ValueCollection_System_Collections_Generic_ICollectionU3CTValueU3E_Add_m1903672223_gshared
oZc:__ZN12HeaderHelper14SetUnvalidatedERKN4core12basic_stringIcNS0_20StringStorageDefaultIcEEEES6_b
qG:__ZN4FMOD6SoundI7releaseEv
iJd:_MouseButtonEventData__ctor_m618518000
PKa:__ZN10MemoryFile9SetLengthEy
Ezg:_UInt16_ToString_m2038947049_AdjustorThunk
Dkh:_DefaultComparer_Equals_m3143385420_gshared
Sqb:__ZN14SafeBinaryRead21TransferSTLStyleArrayI13dynamic_arrayI7Hash128Lj8EEEEvRT_17TransferMetaFlags
wEb:__Z28scripting_class_is_interface17ScriptingClassPtr
Dh:_glTexStorage2D
pWb:__ZNK9ShaderLab10SubProgram14EnsureCompiledEv
bng:_ObjectManager_RecordFixup_m3572285566
ZAa:__ZN18AsyncUploadManager22WaitForActiveAsyncReadEv
gFf:__ZL55DaylightTime_t3800227331_CustomAttributesCacheGeneratorP21CustomAttributesCache
_od:_SortedList_InitTable_m460350503
f3:__Z18BuildScriptClassId17ScriptingClassPtr
gsh:_InternalEnumerator_1_get_Current_m4279678504_AdjustorThunk
xq:__ZNK16LevelGameManager7GetNameEv
cte:_Collection_1_System_Collections_IList_get_Item_m2415649949_gshared
z1b:__ZN8Renderer28HandleParentHierarchyChangesEPK23TransformAccessReadOnlyj
yJg:_ILTokenInfo_t149559338_marshal_pinvoke_cleanup
KX:__ZL31DeleteLastPathNameComponentImplRKN4core12basic_stringIcNS_20StringStorageDefaultIcEEEEPKc
CZb:__Z13RegisterClassI18DelayedCallManagerEvv
eWc:__ZN18UnityConnectClient15GetCloudServiceEv
iKb:__Z18Transfer_BlittableI24GenerateTypeTreeTransferLb0EiEvRK29SerializationCommandArgumentsR31RuntimeSerializationCommandInfo
N_i:__ZN6il2cpp2os19SocketHandleWrapperD2Ev
sEb:__ZL28SerializationCommandGroupForRK31TransferFunctionScriptingTraits17ScriptingClassPtr17ScriptingFieldPtrRK20CoreScriptingClasses
aib:__ZN10TagManager32RegisterDefaultTagsAndLayerMasksEv
rZi:_TweenRunner_1_StopTween_m2135918118_gshared
sfh:_ValueCollection_get_Count_m4142113966_gshared
l6f:__ZL118AttributeHelperEngine_t958797062_CustomAttributesCacheGenerator_AttributeHelperEngine_GetRequiredComponents_m120894667P21CustomAttributesCache
afb:__ZN14CachingManager12ReadInfoFileERKN4core12basic_stringIcNS0_20StringStorageDefaultIcEEEEPlPNSt3__26vectorIS4_NS8_9allocatorIS4_EEEE
l$f:__ZL105RectTransform_t3349966182_CustomAttributesCacheGenerator_RectTransform_INTERNAL_get_sizeDelta_m3975625099P21CustomAttributesCache
$Tc:__Z56Register_UnityEngine_Analytics_CustomEventData_AddUInt32v
Tjd:_ArrayList_InsertRange_m1478230997
Rya:__ZN4gles8InitCapsEP7ApiGLESP12GraphicsCapsR16GfxDeviceLevelGL
fja:__ZN6prcore14BlitImageFloatERK14ImageReferenceRS0_NS0_8BlitModeE
Led:_Swapper_EndInvoke_m677693941
Pfb:__ZN21AssetBundleFileSystem4ReadER13FileEntryDatayyPvPy
zYg:_Matrix4x4_Equals_m1321236479_AdjustorThunk
li:_glEnable
Ugb:__ZNK13Lz4Compressor29CalculateCompressedBufferSizeEj
G$i:__ZN6il2cpp2vm19SocketPollingThreadC2Ev
CTa:__ZNK25CameraStackRenderingState21GetImageEffectTextureEb
cog:_RuntimeMethodHandle__ctor_m2437574937_AdjustorThunk
M_f:__ZL99Transform_t3275118058_CustomAttributesCacheGenerator_Transform_INTERNAL_get_localPosition_m94028171P21CustomAttributesCache
dzg:_UInt16_System_IConvertible_ToInt64_m2835280558_AdjustorThunk
h$g:_Quaternion_GetHashCode_m2270520528_AdjustorThunk
GUf:__ZL53g_UnityEngine_Assembly_CustomAttributesCacheGeneratorP21CustomAttributesCache
RFi:_Predicate_1_BeginInvoke_m3926587117_gshared
kAb:__ZNSt3__26vectorI4PPtrI6ObjectE13stl_allocatorIS3_L18MemLabelIdentifier51ELi16EEE6assignINS_11__wrap_iterIPS3_EEEENS_9enable_ifIXaasr21__is_forward_iteratorIT_EE5valuesr16is_constructibleIS3_NS_15iterator_traitsISD_E9referenceEEE5valueEvE4typeESD_SD_
dEg:_AssemblyName_get_Name_m1815759940
vje:_List_1_get_Item_m1231764300_gshared
yOd:_DefaultControls_CreateToggle_m1568873127
eqe:_List_1__cctor_m1022807427_gshared
dEf:__ZL63KeyNotFoundException_t1722175009_CustomAttributesCacheGeneratorP21CustomAttributesCache
zih:_Dictionary_2_InitArrays_m2270022740_gshared
Dqd:_Convert_ToBoolean_m2188088811
OUc:__ZN11UnityEngine7Connect15DeviceInfoEvent16CollectExtraInfoEv
SNh:__Z115RuntimeInvoker_Boolean_t3825574718_Il2CppObject_Int32_t2071877448_Il2CppObject_SByte_t454417549_Int32U26_t455636984PK10MethodInfoPvPS2_
hsg:_UnicodeEncoding_GetChars_m3765282346
eRe:_IntPtr__ctor_m4104029105
PKf:__ZL114BinaryFormatter_t1866979105_CustomAttributesCacheGenerator_BinaryFormatter_get_DefaultSurrogateSelector_m219714691P21CustomAttributesCache
Awh:_InternalEnumerator_1_System_Collections_IEnumerator_get_Current_m771161214_AdjustorThunk
VZe:_MonoType_get_attributes_m1493788675
hEj:_atol
gyj:__ZN6il2cpp6icalls8mscorlib6System10Reflection9FieldInfo25internal_from_handle_typeE12Il2CppIntPtrS5_
cxj:__ZThn8_N6il2cpp2vm13CachedCCWBaseINS0_13ManagedObjectEE6AddRefEv
$sd:_Convert_ToDouble_m4236754739
qmf:_SslClientStream_get_PrivateKeyCertSelectionDelegate_m3715949545
KPd:_Dropdown_CreateItem_m2702141380
qHe:_ReadOnlyCollection_1_IndexOf_m224962127_gshared
MEf:__ZL48Stack_t1043988394_CustomAttributesCacheGeneratorP21CustomAttributesCache
wo:FUNCTION_TABLE_viifi
xo:FUNCTION_TABLE_viiff
VMg:_MonoEvent_GetAddMethod_m4289563120
UCf:__ZL37Type_t_CustomAttributesCacheGeneratorP21CustomAttributesCache
_Lc:_UNITY_tt_face_free_hdmx
Zcj:__ZN15dense_hashtableINSt3__24pairIK10KeyWrapperINS1_IP11Il2CppClassjEEES4_EES6_N6il2cpp8metadata14ArrayClassHashEN14dense_hash_mapIS6_S4_SB_NS6_14EqualsComparerINSA_17ArrayClassCompareEEENS0_9allocatorIS8_EEE9SelectKeyESF_SH_E5clearEv
_Ti:__ZNSt3__218uninitialized_copyIPNS_4pairIK10KeyWrapperIPK11Il2CppClassEPKcEESB_EET0_T_SD_SC_
x4i:__ZN6il2cpp2vm14TypeNameParser5ParseEb
O4g:_ReflectionMethodsCache__ctor_m1835220
UMh:__Z51RuntimeInvoker_Int16_t4041245914_Single_t2076509932PK10MethodInfoPvPS2_
kEf:__ZL71SynchronizedArrayListWrapper_t3317806524_CustomAttributesCacheGeneratorP21CustomAttributesCache
rYc:__ZN23UnityPurchasingSettingsC2Ev
nBd:_Double_ToString_m1864290157
gFh:__Z63RuntimeInvoker_Il2CppObject_Int16_t4041245914_Int32_t2071877448PK10MethodInfoPvPS2_
Wuh:_InternalEnumerator_1_get_Current_m4154059426_AdjustorThunk
u7:__ZNSt3__26__treeINS_12__value_typeI18VertexChannelsInfo16MeshVertexFormatEENS_19__map_value_compareIS2_S4_NS_4lessIS2_EELb1EEE13stl_allocatorIS4_L18MemLabelIdentifier16ELi16EEE12__find_equalIS2_EERPNS_16__tree_node_baseIPvEENS_21__tree_const_iteratorIS4_PNS_11__tree_nodeIS4_SF_EEiEESI_RKT_
dmj:__ZNK24NamespaceAndNamePairHashclERKNSt3__24pairIPKcS3_EE
qpa:__ZL37stbir__resample_horizontal_downsampleP11stbir__infoiPf
dve:__ZN21InterfaceFuncInvoker1Ib18Color32_t874517518E6InvokeEjP11Il2CppClassP12Il2CppObjectS0_
Ima:__ZNK5Unity9Component38MarkGameObjectAndComponentDependenciesER27GarbageCollectorThreadState
UX:__ZL16OutOfMemoryErrorjj18MemLabelIdentifieriPKc
yhf:_RecordProtocol_SendRecord_m132002114
EN:__ZNK7Texture21GetShadowSamplingModeEv
sW:__ZN13ScreenManager21OnWindowRegainedFocusEv
LQb:__Z18Transfer_BlittableI18StreamedBinaryReadILb0EELb1EdEvRK29SerializationCommandArgumentsR31RuntimeSerializationCommandInfo
I8h:_WillRenderCanvases_BeginInvoke_m1914028027
aNe:_Guid__ctor_m2599802704
JTe:_FileStream_get_CanRead_m4148920720
RZc:__ZN13RuntimeStaticINSt3__26vectorIPN5physx15PxVehicleWheelsENS0_9allocatorIS4_EEEELb0EE13StaticDestroyEPv
CBa:__ZN4crnd12symbol_codec32decode_receive_static_data_modelERNS_25static_huffman_data_modelE
$_b:__ZN18ScriptingArguments8AddFloatEf
vLe:_GregorianCalendar_set_CalendarType_m2438362222
UNd:_FloatTween_get_targetValue_m2120061648_AdjustorThunk
b0h:__Z71RuntimeInvoker_Void_t1841601450_Int32_t2071877448_UriScheme_t1876590943PK10MethodInfoPvPS2_
LZd:_Array_InternalArray__ICollection_Contains_TisVector2_t2243707579_m3625698589_gshared
Lrc:__Z18Transfer_BlittableI9JSONWriteLb0EaEvRK29SerializationCommandArgumentsR31RuntimeSerializationCommandInfo
BQ:__ZN11UnityEngine15CloudWebService14DataDispatcher34OnSessionContainerArchivedAndReadyERNS0_16SessionContainerE
eMe:_NumberFormatInfo_GetFormat_m3247563525
ePf:__ZL77Convert_t2607082565_CustomAttributesCacheGenerator_Convert_ToByte_m2303223565P21CustomAttributesCache
ogf:_CipherSuiteCollection__ctor_m2154226461
bMb:__Z18Transfer_BlittableI19StreamedBinaryWriteILb0EELb0E8Vector3fEvRK29SerializationCommandArgumentsR31RuntimeSerializationCommandInfo
WQg:_RectOffset__ctor_m2227510254
KSb:__ZN14SafeBinaryRead19TransferSTLStyleMapINSt3__23mapIN4core12basic_stringIcNS3_20StringStorageDefaultIcEEEEiNS1_4lessIS7_EENS1_9allocatorINS1_4pairIKS7_iEEEEEEEEvRT_17TransferMetaFlags
H8i:__ZN15dense_hashtableINSt3__24pairIK10KeyWrapperINS1_IPK11Il2CppImageP11Il2CppClassEEEjEES9_17ReflectionMapHashIS8_EN14dense_hash_mapIS9_jSD_NS9_14EqualsComparerINS0_8equal_toIS8_EEEENS0_9allocatorISB_EEE9SelectKeyESI_SK_ED2Ev
HDc:_gray_move_to
Lqg:_DSAParameters_t1872138834_marshal_pinvoke
Uci:_UnityAction_BeginInvoke_m407736228
bAe:_Collection_1_System_Collections_IEnumerable_GetEnumerator_m4174600764_gshared
xni:_ConstructionCall_InitDictionary_m4046452035
EBb:__ZN5Cache9URLToPathERKN4core12basic_stringIcNS0_20StringStorageDefaultIcEEEE7Hash128
B9i:__ZN6il2cpp2vm10Reflection14GetEventObjectEP11Il2CppClassPK9EventInfo
zWh:__Z43RuntimeInvoker_VerticalWrapMode_t3668245347PK10MethodInfoPvPS2_
Hhf:_TlsStream_Write_m2271546135
R8b:__Z30RegisterValidateMethodCallbackiPF18ScriptingMethodPtrS_17ScriptingClassPtrP6ObjectEPKc
rY:__ZN20LocalFileSystemPosixD0Ev
lEd:_CultureInfo_ConstructInternalLocaleFromCurrentLocale_m1342751405
mNh:__Z50RuntimeInvoker_UInt16_t986882611_Int16_t4041245914PK10MethodInfoPvPS2_
Sfb:__ZN21AssetBundleFileSystem5WriteER13FileEntryDatayPvPy
krg:_Latin1Encoding_GetString_m3553289597
dFc:_tt_cmap_init
TCa:__ZL25ProgramUniformMatrix4x2fvPK7ApiGLESjiihPKv
lCh:_Enumerator_get_Current_m1020413567_AdjustorThunk
Uge:_List_1_System_Collections_IList_get_IsFixedSize_m1122077912_gshared
fkj:__ZN15dense_hashtableI10KeyWrapperIP18Il2CppGenericClassES3_N6il2cpp8metadata22Il2CppGenericClassHashEN14dense_hash_setIS3_S6_NS3_14EqualsComparerINS5_25Il2CppGenericClassCompareEEENSt3__29allocatorIS3_EEE8IdentityESA_SD_E12maybe_shrinkEv
K0h:__Z48RuntimeInvoker_Link_t865133271_Int32_t2071877448PK10MethodInfoPvPS2_
H_b:__ZN9TextAssetC2E18MemLabelIdentifier18ObjectCreationMode
vbi:_Display_RecreateDisplayList_m3412638488
j9i:__ZN15dense_hashtableINSt3__24pairIK10KeyWrapperINS1_IPK12PropertyInfoP11Il2CppClassEEEjEES9_17ReflectionMapHashIS8_EN14dense_hash_mapIS9_jSD_NS9_14EqualsComparerINS0_8equal_toIS8_EEEENS0_9allocatorISB_EEE9SelectKeyESI_SK_E8min_sizeEjj
HQf:__ZL79Convert_t2607082565_CustomAttributesCacheGenerator_Convert_ToUInt64_m2215781574P21CustomAttributesCache
h2h:__Z52RuntimeInvoker_KeyValuePair_2_t38854645_Il2CppObjectPK10MethodInfoPvPS2_
WQj:_emscripten_glCheckFramebufferStatus__wrapper
jej:__ZNK15dense_hashtableINSt3__24pairIK10KeyWrapperIP11Il2CppClassES4_EES5_N6il2cpp8metadata16SZArrayClassHashEN14dense_hash_mapIS5_S4_SA_NS5_14EqualsComparerINS9_19SZArrayClassCompareEEENS0_9allocatorIS7_EEE9SelectKeyESE_SG_E12test_deletedEj
euc:__Z18Transfer_BlittableI8JSONReadLb0EdEvRK29SerializationCommandArgumentsR31RuntimeSerializationCommandInfo
ime:_List_1_TrimExcess_m2004514756_gshared
Uug:_Thread_ClrState_m822263449
I1e:_SimpleCollator_LastIndexOfOrdinalIgnoreCase_m550798345
c$i:__ZN6il2cpp2vm21ThreadPoolCompartment13QueueWorkItemEP17Il2CppAsyncResult
Qm:FUNCTION_TABLE_viiiiiifiii
nua:__ZNK9GfxDevice13GetViewMatrixEv
Uma:__ZN17RemapPPtrTransferC2E24TransferInstructionFlagsb
C4:__ZN8TypeTree8BlobReadERPKhS1_ib
dna:__ZN18LoadSceneOperation23GetAllowSceneActivationEv
gla:__ZN11prophecysdk4half7convertEi
Sib:__ZN6CameraD0Ev
h3e:_ModulusRing_Multiply_m386339435
$8:__ZN31CanvasBatchIntermediateRenderer16StaticInitializeEPv
dSd:_GraphicRaycaster_U3CRaycastU3Em__0_m3971200721
QDe:_ReadOnlyCollection_1_System_Collections_IList_RemoveAt_m3004588099_gshared
Hsd:_Decimal_op_Implicit_m4246329390
Paf:_ArgumentNullException__ctor_m2252076819
$4a:__ZN10GameObjectC2E18MemLabelIdentifier18ObjectCreationMode
KCc:_raccess_guess_apple_double
YZe:_MonoType_GetAttributeFlagsImpl_m250699879
mHg:_TypeBuilder_get_FullName_m1626507516
zmg:_SerializationInfo__ctor_m4016423422
BCa:__ZL18ProgramUniform1uivPK7ApiGLESjiihPKv
f1b:__ZN14Texture2DArray13RebuildMipMapEv
ATi:__ZN13Il2CppHashSetIPK17Il2CppGenericInstN6il2cpp8metadata21Il2CppGenericInstHashENS4_24Il2CppGenericInstCompareENSt3__29allocatorI10KeyWrapperIS2_EEEEC2EjRKS5_RKS6_
Tte:_Collection_1_Clear_m2734620236_gshared
Eqj:__ZN6il2cpp2gc16GarbageCollector14RemoveWeakLinkEPPv
DWb:__ZN9ShaderLab20SerializedSubProgram14AddVectorParamEPKcii15ShaderParamTypei
Die:_List_1_System_Collections_Generic_IEnumerableU3CTU3E_GetEnumerator_m3123730956_gshared
AQc:__ZN2UI14CanvasRenderer12CleanupClassEv
xGe:_ReadOnlyCollection_1_System_Collections_IEnumerable_GetEnumerator_m1734360860_gshared
jkh:_DefaultComparer__ctor_m1052417779_gshared
v6c:_SystemException__ctor_m2688248668
gii:_ResourceSet_ReadResources_m1669023823
cgb:__ZNK17FileSystemHandler6ParentERK13FileEntryDataRN4core12basic_stringIcNS3_20StringStorageDefaultIcEEEE
Y8e:_PKCS12_RemoveCertificate_m1590055870
Xej:__ZN6il2cpp2vm6Thread7SetNameEP12Il2CppThreadP12Il2CppString
kHg:_TypeBuilder_get_DeclaringType_m3236598700
Taa:__ZN13ScreenManager18SetAllowCursorLockEb
UAb:__ZN30RuntimeInitializeOnLoadManager15ClassMethodInfo8TransferI14SafeBinaryReadEEvRT_
sDb:__ZN9TextAsset8TransferI14SafeBinaryReadEEvRT_
Zeg:__ZL73CanvasScaler_t2574720772_CustomAttributesCacheGenerator_m_ScreenMatchModeP21CustomAttributesCache
nP:__ZL22InitializeModule_Audiov
tab:__ZN16MemoryFileSystem8IsLockedERK13FileEntryData
UBi:_Vector2_get_Item_m2792130561_AdjustorThunk
CMg:_MonoCMethod_Invoke_m931478014
nii:_SatelliteContractVersionAttribute__ctor_m2605651717
Uk:_emscripten_glBindRenderbuffer
XHg:_EnumBuilder_HasElementTypeImpl_m1414733955
Nnc:__Z32GUIStyle_Set_Custom_PropClippingP12Il2CppObjecti
tbd:_DecoderExceptionFallbackBuffer_GetNextChar_m1727394816
Zvj:_GC_dirty_init
Xdd:_Array_Copy_m1969461849
Tlg:_MessageFormatter_ReadMethodResponse_m4134629501
Elj:__ZN6il2cpp2vm5Field14GetValueObjectEP9FieldInfoP12Il2CppObject
VPc:__ZNK2UI6Canvas16GetTargetDisplayEv
vCd:_Environment_get_OSVersion_m1247315981
T7:__ZN6Object17FindObjectsOfTypeEPKN5Unity4TypeER13dynamic_arrayIPS_Lj4EEb
J5b:__ZNSt3__26vectorINS_4pairIiiEE13stl_allocatorIS2_L18MemLabelIdentifier1ELi16EEE21__push_back_slow_pathIKS2_EEvRT_
Swf:_Capture_get_Length_m1952322390
osc:__ZN9JSONWrite8TransferI4PPtrI9Texture2DEEEvRT_PKc17TransferMetaFlags
Sdi:_AnimationOffsetPlayable_INTERNAL_CALL_GetRotation_m2705874827
QDb:__ZN13MonoBehaviour17RemoveFromManagerEv
tjb:__ZN12ImageFilters14AddImageFilterERK11ImageFilter
JQc:__ZL23RegisterModuleICalls_UIv
ptb:__ZL11DecodeValuePPKcS0_
Mch:_ShimEnumerator_MoveNext_m2013866013_gshared
DU:__ZN13MemoryManagerC2Ev
xFa:__ZN12SkinMeshInfo10DeallocateEPS_
ooj:__ZNK6il2cpp5utils11StringUtils21CaseSensitiveComparerclEPKcS4_
tBi:_Transform_SetParent_m1963830867
aNa:__ZN20ArchiveStorageReader28AcquireAndPrefillUnusedBlockEjPNS_11CacheResultE
qOh:__Z78RuntimeInvoker_Il2CppObject_SByte_t454417549_SByte_t454417549_SByte_t454417549PK10MethodInfoPvPS2_
$0b:__Z12NHxRoughnessIA4_tEvP9Texture2DPT_iiii
CAi:_Touch_get_phase_m196706494_AdjustorThunk
XQi:__ZL25UnresolvedVirtualCall_105P12Il2CppObjecthPK10MethodInfo
shg:_MethodDictionary_get_SyncRoot_m673971424
r8:__ZN18AsyncUploadManagerD2Ev
rYb:__ZN9Transform5ResetEv
RLb:__Z22TransferField_NonArrayI24GenerateTypeTreeTransfer16Converter_StringEvRK23StaticTransferFieldInfoR31RuntimeSerializationCommandInfoRT0_
WEc:_UNITY_FT_CMap_New
Cqf:_HttpWebRequest_System_Runtime_Serialization_ISerializable_GetObjectData_m3671622902
Kaa:__Z17MainLoopKeepalivePv
Joi:_MatchCollection__ctor_m1944681790
akc:__ZN18CrashReportHandler25UnregisterGlobalCallbacksEv
c$c:_HMACSHA512__ctor_m1667460019
M1a:__Z24ScheduleCullingAllGroupsR8JobFenceRK22SceneCullingParameters4PPtrI6CameraERK13CullingOutputRK13dynamic_arrayIP12CullingGroupLj4EERKS_
I3c:_ToBase64Transform_get_OutputBlockSize_m949275583
EAe:_Collection_1_set_Item_m3254085220_gshared
e1a:__Z14CalcHullBoundsPK8Vector3fPKhhRK5PlaneRK10Matrix4x4fR10MinMaxAABB
Ojg:_RealProxy__ctor_m2147093603
P$g:_RaycastHit2D_get_point_m442317739_AdjustorThunk
ioe:_List_1__ctor_m3511181530_gshared
IVa:__Z19SetupLODFadeKeywordR17ShaderPassContexti
$De:_ReadOnlyCollection_1_get_Count_m2180604490_gshared
tMb:__Z18Transfer_BlittableI19StreamedBinaryWriteILb0EELb0E5RectTIfEEvRK29SerializationCommandArgumentsR31RuntimeSerializationCommandInfo
Duj:_GC_set_fl_marks
QEa:__ZL25CheckCopyTextureArgumentsRK7ApiGLESP11GLESTextureS3_
l8:__ZN13dynamic_arrayI26EnlightenSystemInformationLj8EE6insertEPS0_PKS0_S4_
AEc:_tt_name_entry_ascii_from_utf16
Z_e:_MulticastNotSupportedException__ctor_m2164514827
Cvd:_DateTime_System_IConvertible_ToChar_m2489529194_AdjustorThunk
wLb:__Z29Transfer_Blittable_ArrayFieldI24GenerateTypeTreeTransferyEvRT_R9ArrayInfoRK23StaticTransferFieldInfo
vJ:__ZN4FMOD7SystemI9playSoundE17FMOD_CHANNELINDEXPNS_5SoundEbPPNS_7ChannelE
D6h:_AttributeHelperEngine_GetRequiredComponents_m120894667
QXf:__ZL77Input_t1785128008_CustomAttributesCacheGenerator_Input_GetAxisRaw_m4133353720P21CustomAttributesCache
MY:__GLOBAL__sub_I_runtime_graphics_mesh2_lump_cpp
b7f:__ZL68PreferBinarySerialization_t2472773525_CustomAttributesCacheGeneratorP21CustomAttributesCache
W1f:__ZL127AnimationOffsetPlayable_t859920217_CustomAttributesCacheGenerator_AnimationOffsetPlayable_INTERNAL_CALL_SetRotation_m2224758383P21CustomAttributesCache
u4i:__ZN6il2cpp2os4File4ReadEPNS0_10FileHandleEPciPi
TH:__ZN12AudioManager23VirtualRedirectTransferER18StreamedBinaryReadILb0EE
xfe:_List_1_Remove_m2616693989_gshared
uEj:_realloc
Hic:__Z57Register_UnityEngine_Transform_INTERNAL_get_localRotationv
$7g:_ScrollRect_SetLayoutVertical_m1225848090
Adg:__ZL60Scrollbar_t3248359358_CustomAttributesCacheGenerator_m_ValueP21CustomAttributesCache
uxg:_Type_get_IsInterface_m3583817465
HAb:__ZN30RuntimeInitializeOnLoadManager23VirtualRedirectTransferER17RemapPPtrTransfer
oIj:dynCall_viif
mNg:_MonoField_get_DeclaringType_m1591666235
Eph:_InternalEnumerator_1__ctor_m2111763266_AdjustorThunk
lzf:_Enumerator_MoveNext_m4234629003
nS:__ZN11UnityEngine15CloudWebService13WWWRestClient21ParseHTTPHeaderStringEN4core12basic_stringIcNS2_20StringStorageDefaultIcEEEERNS0_16WWWRestHeaderMapERjPKc
lJc:_cf2_hint_lock
yJb:__ZL26Transfer_SimpleNativeClassI17RemapPPtrTransfer8GradientLb0EEvRK29SerializationCommandArgumentsR31RuntimeSerializationCommandInfo
vWi:__ZNK15dense_hashtableINSt3__24pairIK10KeyWrapperI13dynamic_arrayIPK10Il2CppTypeLj4EEEPFvvEEES8_N6il2cpp8metadata19Il2CppSignatureHashEN14dense_hash_mapIS8_SB_SF_NS8_14EqualsComparerINSE_22Il2CppSignatureCompareEEENS0_9allocatorISC_EEE9SelectKeyESJ_SL_E10test_emptyEj
chb:__ZNSt3__26vectorIN20ArchiveStorageHeader12StorageBlockE13stl_allocatorIS2_L18MemLabelIdentifier54ELi16EEE21__push_back_slow_pathIKS2_EEvRT_
s0i:__ZN6il2cpp6icalls8mscorlib6System8MonoType14get_attributesEP20Il2CppReflectionType
Beb:__Z43DestroyWithoutLoadingButDontDestroyFromFilei
WZe:_MonoType_GetDefaultConstructor_m925465120
jyg:_Type_IsArrayImpl_m3073208555
UYc:__ZN13UploadHandlerD2Ev
MGj:dynCall_viiiiiffi
Bc:_emscripten_glBlendFuncSeparate
OIg:_GenericTypeParameterBuilder_IsPrimitiveImpl_m1198748291
n_:__Z20scripting_string_newPKc
ehc:__Z43Material_CUSTOM_Internal_CreateWithMaterialP12Il2CppObjectS0_
ESe:_Directory_GetCurrentDirectory_m44486537
MJh:__Z45RuntimeInvoker_RuntimeFieldHandle_t2331729674PK10MethodInfoPvPS2_
B7f:__ZL56UnityEventBase_t828812576_CustomAttributesCacheGeneratorP21CustomAttributesCache
wre:_Collection_1_System_Collections_ICollection_CopyTo_m1047946700_gshared
D2h:__Z36RuntimeInvoker_Enumerator_t975728254PK10MethodInfoPvPS2_
Qtd:_Convert_ToInt64_m4057339019
ZE:__Z103Register_UnityEngine_Experimental_Director_AnimatorControllerPlayable_INTERNAL_CALL_ResolveHashInternalv
Idj:__ZNSt3__218uninitialized_copyIPNS_4pairIK10KeyWrapperIP11Il2CppClassES4_EES8_EET0_T_SA_S9_
Ut:__ZNSt3__26__sortIRPFbPKN8Animator11AnimatorJobES4_EPS4_EEvT0_S9_T_
hH:__ZN17AudioCustomFilterD2Ev
Jmc:__ZN11IMGUIModule26SetDeveloperConsoleVisibleEb
yYb:__ZN9Transform16ResetReplacementEv
qmc:__ZNK8GUIStyle13GetLineHeightEv
XDa:__ZN18GfxFramebufferGLES18ReleaseFramebufferEP17RenderSurfaceBaseP14GfxContextGLES
Eli:_Context_GetDynamicPropertyCollection_m1987747444
$tf:_X509Certificate2_get_Version_m1927399907
G3b:__ZN13ProduceHelperI6CameraLb0EE7ProduceE18MemLabelIdentifier18ObjectCreationMode
LTd:_Image_RadialCut_m3229543088
ET:__ZN19CloudServiceHandler34HandleSaveFileWebRequestPlayerLoopEv
Mz:__ZN7mecanim21ValueArrayReverseCopyEPKNS_18ValueArrayConstantEPKNS_10ValueArrayES2_PS3_PKi
UG:__Z31GetParentSampleClipFromInstancePN11SoundHandle8InstanceE
f$b:__ZNK28RectTransformPropertyBinding13GetFloatValueERKN11UnityEngine9Animation10BoundCurveE
U3a:__ZN6Camera22StandaloneCustomRenderENS_10RenderFlagEP6ShaderRKN4core12basic_stringIcNS3_20StringStorageDefaultIcEEEEPNS_21PerformRenderFunctionE
OAj:__ZN6il2cpp2os16ThreadLocalValue8GetValueEPPv
NXi:__ZN6il2cpp2vm13MetadataCache14GetGenericInstEPKPK10Il2CppTypej
J2c:_SHA384Managed_Initialize_m712692291
zqh:_InternalEnumerator_1__ctor_m2688327768_gshared
Lb:invoke_iiidii
oIf:__ZL60CallingConvention_t3354538265_CustomAttributesCacheGeneratorP21CustomAttributesCache
Zic:__Z52Object_CUSTOM_GetOffsetOfInstanceIDInCPlusPlusObjectv
U0f:__ZL124AnimatorControllerPlayable_t4078305555_CustomAttributesCacheGenerator_AnimatorControllerPlayable_PlayInFixedTime_m2966168794P21CustomAttributesCache
WN:__ZN9AudioClip15InitializeClassEv
cp:setThrew
iGh:__Z36RuntimeInvoker_IntPtr_t_Il2CppObjectPK10MethodInfoPvPS2_
T0b:__ZL21BuildEmptyCubeTexturePKci11ColorRGBA3217TextureColorSpace
NSb:__ZN14SafeBinaryRead21TransferSTLStyleArrayINSt3__26vectorIN9ShaderLab20SerializedSubProgramENS1_9allocatorIS4_EEEEEEvRT_17TransferMetaFlags
OJd:_StandaloneInputModule_set_cancelButton_m2642677329
rtc:__Z15Transfer_StringI8JSONReadLb1EEvRK29SerializationCommandArgumentsR31RuntimeSerializationCommandInfo
xka:__ZN6prcoreL17RemapGenericFloatI17TexFormatRGBFloat15TexFormatRGHalfEEvPKNS_9InnerInfoE
lXa:__Z25DoForwardShaderRenderLoopR17RenderLoopContextR13dynamic_arrayI16RenderObjectDataLj4EERK11CullResultsbbbN6Camera10RenderFlagE
_Dc:_sfnt_load_face
f8e:_PKCS12_GetSymmetricAlgorithm_m1812022677
mtg:_UTF8Encoding_GetByteCount_m2372933408
Bli:_Context_get_NeedsContextSink_m1907794755
RDc:_UNITY_ft_service_list_lookup
bdf:_ARC4Managed_GenerateKey_m716135508
rJb:__Z18Transfer_BlittableI17RemapPPtrTransferLb1E11ColorRGBA32EvRK29SerializationCommandArgumentsR31RuntimeSerializationCommandInfo
_Sh:__Z57RuntimeInvoker_Il2CppObject_PlayableHandleU26_t3483893774PK10MethodInfoPvPS2_
Slc:__ZN5IMGUI21SelectReceivingWindowER8GUIStateb
_C:__ZNK26AnimatorControllerPlayable17ValidateGoToStateERiS0_
fwh:_InternalEnumerator_1_get_Current_m3179981210_gshared
Lbb:__ZN13BaseAllocator13TryDeallocateEPv
yNb:__Z29Transfer_Blittable_ArrayFieldI19StreamedBinaryWriteILb0EEfEvRT_R9ArrayInfoRK23StaticTransferFieldInfo
Hdd:_Array_CreateInstance_m1054139389
XSg:_GUIStyleState_GetGUIStyleState_m2816150617
Uqh:_InternalEnumerator_1__ctor_m967618647_AdjustorThunk
bab:__ZN16MemoryFileSystem5WriteER13FileEntryDatayPvPy
Ejb:__ZNSt3__26vectorIN12FlareManager10FlareEntryENS_9allocatorIS2_EEE21__push_back_slow_pathIKS2_EEvRT_
OEg:_Default_check_arguments_with_score_m1714931543
a2c:_SHA1_Create_m4086509717
eHh:__Z57RuntimeInvoker_Il2CppObject_RuntimeTypeHandle_t2330101084PK10MethodInfoPvPS2_
xIi:_UnityEvent_1_GetDelegate_m3098147632_gshared
XNg:_MonoMethodInfo_GetMethodInfo_m3298558752
EH:__ZN13AudioListener17RemoveFromManagerEv
wd:_glAttachShader
OPd:_Dropdown_SetAlpha_m2769981009
NOa:__ZNK6Camera19GetProjectionMatrixEv
tFi:_Predicate_1_BeginInvoke_m1856151290_gshared
RR:__ZN11UnityEngine15CloudWebService10RestClientINS0_16WWWRestHeaderMapEE6SetUrlERKN4core12basic_stringIcNS4_20StringStorageDefaultIcEEEE
DRh:__Z139RuntimeInvoker_Il2CppObject_Il2CppObject_Int32_t2071877448_SByte_t454417549_SByte_t454417549_SByte_t454417549_SByte_t454417549_Il2CppObjectPK10MethodInfoPvPS2_
nAd:_StackTrace__ctor_m2404985356
N2:__Z38PreallocateObjectFromPersistentManagerib
Qvd:_DateTime_System_IConvertible_ToSingle_m3927769066
gzf:_CostDelegate__ctor_m80452417
OY:__GLOBAL__sub_I_runtime_interfaces_lump_cpp
wpb:__ZNK9Texture2D20GetUnscaledTextureIDEv
$td:_Convert_ToSByte_m883113940
_Nj:_glFenceSync__wrapper
SCd:_Exception_get_Message_m173095527
wcg:__ZL53InputField_t1631627530_CustomAttributesCacheGeneratorP21CustomAttributesCache
rLd:_ButtonClickedEvent__ctor_m938038541
ARb:__ZN18StreamedBinaryReadILb0EE21TransferSTLStyleArrayI13dynamic_arrayI4AABBLj4EEEEvRT_17TransferMetaFlags
Zyg:_UInt16_System_IConvertible_ToDouble_m4100549304_AdjustorThunk
tJh:__Z116RuntimeInvoker_Il2CppObject_Il2CppObject_Il2CppObject_Int32_t2071877448_Int32_t2071877448_MonoIOErrorU26_t1029615899PK10MethodInfoPvPS2_
Gna:__Z29ClearRepeatingLogMessageStatev
alc:__ZN13TextRendering17TextMeshGenerator13GetTextOffsetERK5RectTIfE
NLi:_HashSet_1_OnDeserialization_m1222146673_gshared
n7c:_Single_System_IConvertible_ToInt16_m962677079
F7:__ZN21EnlightenSceneMappingaSERKS_
hze:_Collection_1_SetItem_m546457615_gshared
gBj:__ZNK6il2cpp8metadata21Il2CppGenericInstHashclEPK17Il2CppGenericInst
B7c:_Single_System_IConvertible_ToUInt32_m2447833283
sFe:_ReadOnlyCollection_1_System_Collections_IList_Add_m3806843030_gshared
QIa:__ZN7ApiGLESD2Ev
K5a:__ZN9Transform47ClearTransformHierarchyAndApplyToSerializedDataEv
Cuh:_InternalEnumerator_1_get_Current_m4083613828_AdjustorThunk
i0c:_RijndaelManaged_GenerateKey_m3366247933
kSe:_BinaryReader_ReadUInt64_m1893783375
A7h:_Bounds_op_Equality_m2161830280
_7a:__ZN17PersistentManager9AddStreamEv
GIj:dynCall_fidi
G6i:__ZN15dense_hashtableINSt3__24pairIK10KeyWrapperINS1_IPK9FieldInfoP11Il2CppClassEEEjEES9_17ReflectionMapHashIS8_EN14dense_hash_mapIS9_jSD_NS9_14EqualsComparerINS0_8equal_toIS8_EEEENS0_9allocatorISB_EEE9SelectKeyESI_SK_E12resize_deltaEjj
Moc:__Z47Register_UnityEngine_GUIStyle_set_imagePositionv
noc:__Z49GUIStyle_CUSTOM_INTERNAL_CALL_Internal_DrawCursor13Il2Cpp_IntPtrRK5RectTIfEP12Il2CppObjectiRK10ColorRGBAf
B6g:_ScrollRect_set_movementType_m3292965850
YOf:__ZL59AttributeTargets_t1984597432_CustomAttributesCacheGeneratorP21CustomAttributesCache
X0g:_RectTransform_set_anchorMin_m4247668187
GS:__ZN11UnityEngine15CloudWebService14RestDownloaderD2Ev
N8a:__Z29StdTemplateConversionFunctionIjhEbPvR14SafeBinaryRead
xkb:__ZN22RenderingCommandBufferC2ERKS_
NRi:__ZL25UnresolvedVirtualCall_149P12Il2CppObject23SpriteState_t1353336012S1_PK10MethodInfo
ffe:_List_1_GrowIfNeeded_m2986672263_gshared
aph:_ArrayReadOnlyList_1_Remove_m2325516426_gshared
Jnd:_Hashtable_get_Count_m830088216
N9b:__ZNK13MonoBehaviour13GetScriptTypeEv
Ica:__ZN13RenderTexture12SetDimensionE16TextureDimension
r2g:_ScriptableObject_CreateInstance_m3921674852
qkc:__ZNSt3__26vectorI14ResponseHelperNS_9allocatorIS1_EEE8__appendEj
le:_SDL_FreeRW
w6e:_PKCS1_OS2IP_m1273945439
j2c:_SHA1Internal_FillBuff_m891541953
oSf:__ZL62ResolveEventHandler_t3842432458_CustomAttributesCacheGeneratorP21CustomAttributesCache
lRc:__Z34CanvasRenderer_Get_Custom_PropCullP12Il2CppObject
Eoh:_ArrayReadOnlyList_1_get_IsReadOnly_m2717922212_gshared
iN:__ZN20SoundChannelInstance8getDelayE14FMOD_DELAYTYPEPjS1_
Afb:__ZN21AssetBundleFileSystemC2EPKc
IGh:__Z61RuntimeInvoker_Void_t1841601450_Il2CppObject_Int64_t909078037PK10MethodInfoPvPS2_
QUd:_InputField_set_customCaretColor_m3534590098
L6g:_ScrollRect_set_viewport_m323693490
x1:__ZN10UnitySceneD0Ev
CKe:_NumberFormatter_FormatExponential_m3975285307
Jyc:__ZNSt3__26vectorIN20TextRenderingPrivate8FontImpl13CharacterInfoE13stl_allocatorIS3_L18MemLabelIdentifier1ELi16EEE8__appendEj
v:tempBigInt
te:_emscripten_glVertexAttrib1fv
mTb:__ZNSt3__26vectorIN9ShaderLab20SerializedSubProgram12UAVParameterENS_9allocatorIS3_EEE7reserveEj
D4h:_AnimationCurve_Init_m1486386337
hai:_Component_GetComponents_m3712441745
AVd:_InputField_get_selectionAnchorPosition_m466595604
vOf:__ZL99Thread_t241561612_CustomAttributesCacheGenerator_Thread_t241561612____ExecutionContext_PropertyInfoP21CustomAttributesCache
zbd:_DecoderReplacementFallback_get_DefaultString_m3399348550
bIi:_UnityAction_4_Invoke_m3312096275_gshared
igg:__ZL111LayoutUtility_t4076838048_CustomAttributesCacheGenerator_LayoutUtility_U3CGetPreferredHeightU3Em__5_m1524880643P21CustomAttributesCache
Z0h:__Z57RuntimeInvoker_ResourceInfo_t3933049236_Int32_t2071877448PK10MethodInfoPvPS2_
m8i:__ZN24dense_hashtable_iteratorINSt3__24pairIK10KeyWrapperINS1_IPK10MethodInfoP11Il2CppClassEEEjEES9_17ReflectionMapHashIS8_EN14dense_hash_mapIS9_jSD_NS9_14EqualsComparerINS0_8equal_toIS8_EEEENS0_9allocatorISB_EEE9SelectKeyESI_SK_E30advance_past_empty_and_deletedEv
C1g:_RectTransformUtility_ScreenPointToRay_m1842507230
f3a:__ZN16ReflectionProbes16UpdateSampleDataEv
NGh:__Z71RuntimeInvoker_Int32_t2071877448_Il2CppObject_Il2CppObject_Il2CppObjectPK10MethodInfoPvPS2_
vFb:__ZN14SafeBinaryRead21TransferSTLStyleArrayI10vector_setI4PPtrI10MonoScriptENSt3__24lessIS4_EE13stl_allocatorIS4_L18MemLabelIdentifier76ELi16EEEEEvRT_17TransferMetaFlags
LKh:__Z103RuntimeInvoker_Il2CppObject_Il2CppObject_StreamingContext_t1417235061_ISurrogateSelectorU26_t2635255864PK10MethodInfoPvPS2_
yji:_SafeHandle_Finalize_m1839546519
sub:__ZN14Texture2DArray5ResetEv
Ruc:__ZN8JSONRead21TransferSTLStyleArrayINSt3__26vectorI10RectOffset13stl_allocatorIS3_L18MemLabelIdentifier1ELi16EEEEEEvRT_S5_17TransferMetaFlags
lyh:_InternalEnumerator_1_MoveNext_m252820768_AdjustorThunk
kmi:_Context_AllocateNamedDataSlot_m3200404053
Aqa:__ZN14BatchAllocator6CommitE18MemLabelIdentifier
Zsf:_X509EnhancedKeyUsageExtension_Decode_m3866320499
yKe:_NumberFormatter_AppendIntegerStringWithGroupSeparator_m1401773574
Uoe:_List_1_Remove_m1237648310_gshared
Dff:_CipherSuite_get_ServerHMAC_m3566778727
SEf:__ZL64DebuggerBrowsableState_t944457511_CustomAttributesCacheGeneratorP21CustomAttributesCache
Qe:_JS_Sound_Play
_Td:_Image_IsRaycastLocationValid_m864962354
oSb:__ZN9ShaderLab16SerializedShader8TransferI14SafeBinaryReadEEvRT_
_qa:__ZN5Mutex7TryLockEv
UFh:__Z51RuntimeInvoker_Int16_t4041245914_Decimal_t724701077PK10MethodInfoPvPS2_
qt:__ZN7mecanim8skeleton13SkeletonAlignEPKNS0_8SkeletonERKN4math7_float4ES7_i
K1b:__ZN19ShaderPropertySheet16SetVectorIndexedEN9ShaderLab16FastPropertyNameEifRK8Vector4fNS_8SetFlagsE
qq:__ZN14SafeBinaryRead21TransferSTLStyleArrayIN4core12basic_stringIcNS1_20StringStorageDefaultIcEEEEEEvRT_17TransferMetaFlags
ikg:_RemotingConfiguration_RegisterWellKnownServiceType_m2491506630
rXf:__ZL89Screen_t786852042_CustomAttributesCacheGenerator_Screen_t786852042____height_PropertyInfoP21CustomAttributesCache
iJf:__ZL55_TypeBuilder_t2783404358_CustomAttributesCacheGeneratorP21CustomAttributesCache
OSi:__ZL25UnresolvedVirtualCall_204P12Il2CppObjectPK10MethodInfo
p9a:__Z29StdTemplateConversionFunctionIayEbPvR14SafeBinaryRead
Fie:_List_1_System_Collections_IEnumerable_GetEnumerator_m2923618987_gshared
Cke:_List_1_System_Collections_IList_IndexOf_m4061554721_gshared
kT:__ZN11UnityEngine15CloudWebService14DataDispatcher4StopEv
oTb:__ZNSt3__26vectorIN9ShaderLab20SerializedSubProgram12UAVParameterENS_9allocatorIS3_EEE8__appendEj
Xte:_Collection_1_GetEnumerator_m434271983_gshared
faj:__ZNK15dense_hashtableINSt3__24pairIK10KeyWrapperINS1_IPK9EventInfoP11Il2CppClassEEEjEES9_17ReflectionMapHashIS8_EN14dense_hash_mapIS9_jSD_NS9_14EqualsComparerINS0_8equal_toIS8_EEEENS0_9allocatorISB_EEE9SelectKeyESI_SK_E12test_deletedERK24dense_hashtable_iteratorISB_S9_SD_SM_SI_SK_E
r4c:_X509Certificate_ToString_m1582581274
geh:_Enumerator_get_Current_m2986380627_gshared
gfa:__ZN17ScriptingGCHandle7AcquireE18ScriptingObjectPtr25ScriptingGCHandleWeakness
lli:_LifetimeServices_set_LeaseTime_m1487876644
_Fg:_ConstructorBuilder_not_supported_m3687319507
RCf:__ZL48IList_t3321498491_CustomAttributesCacheGeneratorP21CustomAttributesCache
s7c:_Single_System_IConvertible_ToInt64_m3555853323_AdjustorThunk
kzh:_InternalEnumerator_1__ctor_m3901400705_AdjustorThunk
zHj:dynCall_iifiii
LVh:__Z48RuntimeInvoker_PersistentListenerMode_t857969000PK10MethodInfoPvPS2_
EKh:__Z87RuntimeInvoker_Il2CppObject_Il2CppObject_Il2CppObject_Il2CppObject_StringU26_t638738783PK10MethodInfoPvPS2_
fpa:__Z21HasAlphaTextureFormat13TextureFormat
zO:__ZN12AudioManager6UpdateEv
dpa:__ZN14ImageReference9BlitImageERKS_NS_8BlitModeE
MNg:_MonoMethod_get_MethodHandle_m1882915015
Or:__ZN8Animator12AddToManagerEv
lHf:__ZL93ConstructorInfo_t2851816542_CustomAttributesCacheGenerator_ConstructorInfo_Invoke_m2144827141P21CustomAttributesCache
OEb:__ZN23CachedSerializationDataD2Ev
G2a:__ZNK25CameraStackRenderingState31CalculateStereoCameraTargetTypeEv
Bnb:__ZN14RenderSettings23VirtualRedirectTransferER14SafeBinaryRead
Gpj:__ZN6il2cpp2os10ThreadImpl15CurrentThreadIdEv
Pye:_Collection_1_System_Collections_IList_get_IsReadOnly_m4005091053_gshared
BZd:_Array_InternalArray__ICollection_Contains_TisColor32_t874517518_m2818328910_gshared
Ukb:__ZN17GlobalGameManager8TransferI17RemapPPtrTransferEEvRT_
waf:_AppDomainInitializer_EndInvoke_m4003801172
WSi:__ZL25UnresolvedVirtualCall_212P12Il2CppObjecti38CustomAttributeNamedArgument_t94157543PK10MethodInfo
O$g:_RaycastHit2D_get_point_m442317739
HOh:__Z72RuntimeInvoker_Il2CppObject_Il2CppObject_Decimal_t724701077_Il2CppObjectPK10MethodInfoPvPS2_
nnb:__ZN16LevelGameManager8TransferI18StreamedBinaryReadILb0EEEEvRT_
dMc:_UNITY_tt_face_load_fpgm
Ixb:__ZN12InputManagerD0Ev
gzj:__ZN6il2cpp6icalls8mscorlib6System11Diagnostics10StackTrace9get_traceEP15Il2CppExceptionib
NLe:_NumberFormatInfo_set_NumberNegativePattern_m1050626150
xWi:__ZN15dense_hashtableINSt3__24pairIK10KeyWrapperI13dynamic_arrayIPK10Il2CppTypeLj4EEEPFvvEEES8_N6il2cpp8metadata19Il2CppSignatureHashEN14dense_hash_mapIS8_SB_SF_NS8_14EqualsComparerINSE_22Il2CppSignatureCompareEEENS0_9allocatorISC_EEE9SelectKeyESJ_SL_E8min_sizeEjj
HWh:__Z37RuntimeInvoker_FillMethod_t1640962579PK10MethodInfoPvPS2_
IUg:_GUIStyle_get_overflow_m1125058093
Hgi:_AnimatorControllerPlayable_Play_m4092315465
Coa:__ZNK16LightmapSettings14GetLightProbesEv
I6g:_ScrollRect_get_scrollSensitivity_m1160815603
bsg:_UnicodeEncoding_GetBytes_m1337660232
lQb:__Z18Transfer_BlittableI18StreamedBinaryReadILb0EELb1EtEvRK29SerializationCommandArgumentsR31RuntimeSerializationCommandInfo
zEj:_posix_memalign
_1b:__ZN13ProduceHelperI12MeshRendererLb0EE7ProduceE18MemLabelIdentifier18ObjectCreationMode
Yqe:_List_1_get_Count_m1249351212_gshared
izh:_InternalEnumerator_1_get_Current_m747506907_AdjustorThunk
M7h:_Camera_get_eventMask_m4241372419
xSg:_GUILayoutUtility_LayoutFromEditorWindow_m1847418289
omf:_SslClientStream_get_ClientCertSelectionDelegate_m2316959461
sld:_SynchronizedArrayListWrapper_get_SyncRoot_m1466044127
Q2:__ZNK15MonoScriptCache7ReleaseEv
TNi:__ZN6il2cpp2vm5Class13HasReferencesEP11Il2CppClass
dg:_glBindTexture
Ute:_Collection_1_ClearItems_m3585785594_gshared
PCj:_snprintf
ofg:__ZL84HorizontalOrVerticalLayoutGroup_t1968298610_CustomAttributesCacheGenerator_m_SpacingP21CustomAttributesCache
uEg:_Binder__ctor_m1361613966
xVd:_InputField_set_caretPosition_m888572237
pJg:_ILGenerator__cctor_m3943061018
Jkd:_ArrayListWrapper_Clone_m1506311066
bci:_Event_get_character_m3740896233
uma:__Z36scripting_liveness_calculation_begin17ScriptingClassPtriPFvPP12Il2CppObjectiPvES3_PFvvES7_
EZi:_ListPool_1_Get_m4215629480_gshared
LGa:__ZN16UniformCacheGLES6CreateERK20GpuProgramParameters
vtg:_UTF8Encoding_Fallback_m811555654
fBg:_UInt64_CompareTo_m3513742483
q2g:_ScriptableObject_t1975622470_marshal_pinvoke_cleanup
zcd:_Encoding_GetString_m1894033578
nEe:_ReadOnlyCollection_1_System_Collections_IList_Clear_m1918003010_gshared
YEi:_Nullable_1_Equals_m3860982732_gshared
qLj:_emscripten_glGetProgramInfoLog__wrapper
k2f:__ZL94Font_t4239498691_CustomAttributesCacheGenerator_Font_InvokeTextureRebuilt_Internal_m2007522718P21CustomAttributesCache
Olj:__ZN6il2cpp2vm5Field14IsThreadStaticEP9FieldInfo
ztg:_UTF8Encoding_InternalGetChars_m373801468
A5:__ZN17PersistentManager23DestroyFromFileInternalEi
r_f:__ZL98Object_t1021602117_CustomAttributesCacheGenerator_Object_DoesObjectWithInstanceIDExist_m2570795274P21CustomAttributesCache
Zxi:_ScrollViewState__ctor_m535685782
nCd:_Enum_ToString_m2112979707
Jzi:_TextGenerator_ValidatedSettings_m1640214759
IKf:__ZL55SoapServices_t3397513225_CustomAttributesCacheGeneratorP21CustomAttributesCache
Hhg:_MonoMethodMessage_get_MethodName_m3580519713
kv:__ZN26AnimatorControllerPlayable18PrepareForPlaybackERN7mecanim6memory9AllocatorE
wBd:_Enum_t2459695545_marshal_pinvoke_cleanup
qtg:_UTF8Encoding_GetBytes_m4170182058
Sbe:_Mesh_GetAllocArrayFromChannel_TisColor32_t874517518_m2030100417_gshared
q6h:_AssetBundleRequest_get_allAssets_m3314852268
_fa:__ZN22CreateGpuProgramOutputC2Ev
Jvf:_X509Chain__ctor_m2242540866
NPg:_Object__ctor_m197157284
qZf:__ZL99SortingLayer_t221838959_CustomAttributesCacheGenerator_SortingLayer_GetLayerValueFromID_m4029056996P21CustomAttributesCache
WUe:_MemoryStream_InternalConstructor_m2423667240
gsi:_CapturingGroup_set_Index_m2175936006
dDh:__Z70RuntimeInvoker_Il2CppObject_Il2CppObject_Il2CppObject_SByte_t454417549PK10MethodInfoPvPS2_
Dig:_SoapMethodAttribute_SetReflectionObject_m3431595769
l9g:_Slider_set_maxValue_m2951480075
m3b:__ZN8GUILayer12CleanupClassEv
LWd:_InputField_OnSubmit_m2856515494
SNi:__ZN6il2cpp2vm5Class4InitEP11Il2CppClass
ga:invoke_vidi
l8e:_DeriveBytes_Adjust_m105515328
sPc:__ZN2UI14CanvasRenderer17SyncDirtyElementsER8JobFence
iQb:__Z18Transfer_BlittableI18StreamedBinaryReadILb0EELb0ExEvRK29SerializationCommandArgumentsR31RuntimeSerializationCommandInfo
bNd:_ColorBlock_op_Inequality_m1517672458
loj:__ZN6il2cpp5utils11StringUtils15StringDuplicateEPKc
R4a:__Z15CanAddComponentR10GameObjectPKN5Unity4TypeE
tfa:__ZNK9ShaderLab21ShaderRasterStateDesc16ToGfxRasterStateEPK19ShaderPropertySheetS3_R14GfxRasterState
qV:_tlsf_memalign
Spg:_CspParameters__ctor_m2480441577
XAj:__ZN6il2cpp2os9EventImplC2Ebb
Nli:_DynamicPropertyCollection_NotifyMessage_m840388347
qti:_Uri_ParseUri_m5711497
kB:__ZN4PPtrI13MonoBehaviourE8TransferI19StreamedBinaryWriteILb0EEEEvRT_
Rcb:__ZNK5Unity9Component26GetTypeInfoVirtualInternalEv
E$:__Z20IsMatrixBuiltinParamPKcPi
Wue:_Collection_1_CheckWritable_m2467777750_gshared
mdg:__ZL108MaskableGraphic_t540192618_CustomAttributesCacheGenerator_MaskableGraphic_ParentMaskStateChanged_m3643747340P21CustomAttributesCache
b8i:__ZN15dense_hashtableINSt3__24pairIK10KeyWrapperINS1_IPK10MethodInfoP11Il2CppClassEEEjEES9_17ReflectionMapHashIS8_EN14dense_hash_mapIS9_jSD_NS9_14EqualsComparerINS0_8equal_toIS8_EEEENS0_9allocatorISB_EEE9SelectKeyESI_SK_E16reset_thresholdsEv
s1b:__ZN8Renderer19PostInitializeClassEv
xBc:__ZN20TextRenderingPrivate15DynamicFontDataD2Ev
Wph:_InternalEnumerator_1_get_Current_m1943362081_AdjustorThunk
MCi:_Vector3_get_sqrMagnitude_m1814096310_AdjustorThunk
vxj:__ZN6il2cpp6icalls8mscorlib6System8Delegate23CreateDelegate_internalEP20Il2CppReflectionTypeP12Il2CppObjectP22Il2CppReflectionMethodb
IEg:_Default_check_type_m2363631305
$Db:__ZN18DelayedCallManager18CancelCallDelayed2E4PPtrI6ObjectEPF15CallObjectStatePS1_PvES7_
wke:_List_1__cctor_m911493842_gshared
gfi:_AnimatorControllerPlayable_INTERNAL_CALL_GetLayerIndexInternal_m1847150746
Qbb:__ZN25ThreadsafeLinearAllocator10ReallocateEPvji
ZFb:__Z18Transfer_BlittableI14SafeBinaryReadLb1E11QuaternionfEvRK29SerializationCommandArgumentsR31RuntimeSerializationCommandInfo
r2d:_Array_InternalArray__IndexOf_TisRaycastHit2D_t4063908774_m3739817942_gshared
vOg:_MonoProperty_GetAccessors_m3704698731
XJh:__Z146RuntimeInvoker_Il2CppObject_Int32_t2071877448_Il2CppObject_ObjectU5BU5DU26_t3223402458_Il2CppObject_Il2CppObject_Il2CppObject_ObjectU26_t597476745PK10MethodInfoPvPS2_
Kwj:_GC_disable
Dvb:__ZN10Matrix4x4f8TransferI14SafeBinaryReadEEvRT_
kYe:_UnmanagedMemoryStream_ReadByte_m2501145010
bmg:_ObjectRecord_UnchainFixup_m3025030310
hv:__ZN14AvatarPlayback8StopTimeEv
V5:__Z6AppendRKN4core12basic_stringIcNS_20StringStorageDefaultIcEEEEPKc
fBf:__ZL60MulticastDelegate_t3201952435_CustomAttributesCacheGeneratorP21CustomAttributesCache
tma:__ZL14OnWorldStoppedv
JNb:__Z18Transfer_BlittableI18StreamedBinaryReadILb1EELb0E8Vector3fEvRK29SerializationCommandArgumentsR31RuntimeSerializationCommandInfo
Reb:__ZN14CachingManager15ClearTempFolderEv
pcg:__ZL61Image_t2042527209_CustomAttributesCacheGenerator_m_FillCenterP21CustomAttributesCache
Mza:__ZN7ApiGLES18ClearBufferSubDataEjN2gl12BufferTargetEll
EAi:_Touch_get_type_m3264731406_AdjustorThunk
dcc:__Z37Camera_Get_Custom_PropAllCamerasCountv
Nub:__ZN14Texture2DArray8TransferI18StreamedBinaryReadILb0EEEEvRT_
ffj:__ZN6il2cpp6icalls8mscorlib6System5Array9GetLengthEP11Il2CppArrayi
N$a:__Z18ApplyOcclusionMaskR19ProbeOcclusionCacheRK17LightProbeContextRK10RenderNodeb
oUe:_FileStreamAsyncResult__ctor_m1096228032
GGc:_Split_Cubic
cb:invoke_fiiii
PZf:__ZL78Time_t31991979_CustomAttributesCacheGenerator_Time_get_unscaledTime_m862335845P21CustomAttributesCache
Mxd:_DBNull_System_IConvertible_ToSByte_m1228193074
Bte:_Collection_1__ctor_m2818834331_gshared
fbe:_Array_InternalArray__get_Item_TisUICharInfo_t3056636800_m3872982785_gshared
mne:_List_1__ctor_m2168280176_gshared
Ipj:__ZN6il2cpp2os10ThreadImpl22CreateForCurrentThreadEv
Swe:_Collection_1_Insert_m3041550124_gshared
QTe:_FileStream_FlushBuffer_m2594140542
fpc:__Z64Register_UnityEngine_GUIStyle_GetFontInternalDuringLoadingThreadv
mAe:_Collection_1_System_Collections_IList_get_Item_m1995028750_gshared
Wsj:__ZN6il2cpp2vm8Profiler12GCHeapResizeEx
NIj:dynCall_viiifi
CDa:__ZN18GfxFramebufferGLES20ActiveContextChangedEPP17RenderSurfaceBaseS2_
fZa:__ZN19ShaderPropertySheet17UpdateTextureInfoEiN9ShaderLab16FastPropertyNameEPK10TextureRef
yDa:__Z19PluginsRenderMarkeri
v_f:__ZL80Object_t1021602117_CustomAttributesCacheGenerator_Object_Instantiate_m2439155489P21CustomAttributesCache
bC:__ZN10HumanTrait18InitializeBoneNameEv
ati:__ZN23InterfaceActionInvoker1ItE6InvokeEjP11Il2CppClassP12Il2CppObjectt
rub:__ZN14Texture2DArray21AwakeFromLoadThreadedEv
bRb:__Z29Transfer_Blittable_ArrayFieldI18StreamedBinaryReadILb0EEyEvRT_R9ArrayInfoRK23StaticTransferFieldInfo
Evi:_X509CertificateEnumerator_get_Current_m3129374511
mlh:_EqualityComparer_1_get_Default_m875724809_gshared
Ymj:__ZNSt3__214__split_bufferIN6il2cpp2vm5Image20EmbeddedResourceDataERNS_9allocatorIS4_EEEC2EjjS7_
QQa:__ZN5Image13ReformatImageERK14ImageReferenceii13TextureFormatNS0_8BlitModeE
uIf:__ZL57DispIdAttribute_t607560947_CustomAttributesCacheGeneratorP21CustomAttributesCache
qH:__ZN12AudioManager17RemoveAudioSourceEP11AudioSource
Jai:_CullingGroup_Finalize_m3172731580
BEi:_AesManaged_get_KeySize_m2773901127
Xae:_Array_InternalArray__get_Item_TisUInt64_t2909196914_m2580870875_gshared
Wcj:__ZN15dense_hashtableINSt3__24pairIK10KeyWrapperINS1_IP11Il2CppClassjEEES4_EES6_N6il2cpp8metadata14ArrayClassHashEN14dense_hash_mapIS6_S4_SB_NS6_14EqualsComparerINSA_17ArrayClassCompareEEENS0_9allocatorIS8_EEE9SelectKeyESF_SH_E4swapERSK_
G9e:_SecurityParser_OnEndElement_m2909940377
CP:__ZN5physx14PxLightCpuTask12addReferenceEv
C0h:__Z96RuntimeInvoker_Void_t1841601450_Vector2U5BU5DU26_t1595685398_Int32_t2071877448_Int32_t2071877448PK10MethodInfoPvPS2_
xrb:__ZN21EnlightenSceneMapping8TransferI19StreamedBinaryWriteILb0EEEEvRT_
Vkj:__ZN6il2cpp2gc16GarbageCollector19InitializeFinalizerEv
vlc:__ZN10GUIManager10DoGUIEventER10InputEventb
igf:_Context_get_ClientWriteKey_m2235605337
uCh:_Enumerator__ctor_m3597047336_AdjustorThunk
Mtj:_GC_bl_init_no_interiors
t0:__Z20CalculateSqrDistanceRK8Vector3fRK4AABB
AMh:__Z48RuntimeInvoker_Byte_t3683104436_Int64_t909078037PK10MethodInfoPvPS2_
vnj:__ZN6il2cpp2vm12GenericClass8GetClassEP18Il2CppGenericClass
mL:__Z32AudioMixerDuckingProcessCallbackP21UnityAudioEffectStatePfS1_jii
vFg:_CustomAttributeTypedArgument_GetHashCode_m999147081_AdjustorThunk
y0b:__ZN26CustomRenderTextureManagerD2Ev
Dec:__Z32Input_Get_Custom_PropInputStringv
ZTe:_FileStream_Read_m3880951166
YH:__ZN12AudioManager8TransferI24GenerateTypeTreeTransferEEvRT_
aja:__Z25GetBytesFromTextureFormat13TextureFormat
pTh:__Z105RuntimeInvoker_Void_t1841601450_Int32_t2071877448_Single_t2076509932_Int32_t2071877448_Single_t2076509932PK10MethodInfoPvPS2_
apa:__ZN9Texture3D19UnloadFromGfxDeviceEb
OGj:dynCall_iiffi
eJb:__Z18Transfer_BlittableI17RemapPPtrTransferLb0EsEvRK29SerializationCommandArgumentsR31RuntimeSerializationCommandInfo
Ni:_emscripten_webgl_init_context_attributes
rRf:__ZL67Math_t2022911894_CustomAttributesCacheGenerator_Math_Min_m105057611P21CustomAttributesCache
AB:__ZN16MecanimAnimation25RegisterIAnimationBindingEPKN5Unity4TypeEiP17IAnimationBinding
M3:__Z32scripting_class_get_assemblyname17ScriptingClassPtr
CVc:__ZN11UnityEngine15PlatformWrapper15GetVRDeviceNameEv
igh:_Dictionary_2_Resize_m2532139610_gshared
Zyi:_StackTraceUtility__cctor_m1132099289
Poe:_List_1_IndexOf_m2019441835_gshared
Awg:_TimeSpan_Equals_m2029123271_AdjustorThunk
rYi:__ZN6il2cpp2vm13MetadataCache23GetInvokerMethodPointerEPK10MethodInfoPK20Il2CppGenericContext
SHa:__ZN9GfxDevice21RegisterNativeTextureE9TextureIDi16TextureDimension
hEd:_CultureInfo__ctor_m456863818
yyj:__ZN6il2cpp6icalls8mscorlib6System10Reflection4Emit11TypeBuilder20create_generic_classEP27Il2CppReflectionTypeBuilder
j1i:__ZNSt3__26vectorIPK10MethodInfoNS_9allocatorIS3_EEE26__swap_out_circular_bufferERNS_14__split_bufferIS3_RS5_EE
Vde:_Enumerator_MoveNext_m2504790928_gshared
ueg:__ZL61Slider_t297367283_CustomAttributesCacheGenerator_m_HandleRectP21CustomAttributesCache
NV:__ZN3WWW20GetCachedErrorStringEv
xyi:_SliderState__ctor_m1096533539
dXb:__ZN12ScriptMapperD2Ev
g9f:__ZL85AxisEventData_t1524870173_CustomAttributesCacheGenerator_U3CmoveDirU3Ek__BackingFieldP21CustomAttributesCache
J_c:_KeyedHashAlgorithm_Dispose_m1864300576
xvi:_X509Certificate_PEM_m49854707
M8e:_PKCS12_get_RNG_m3620550062
atf:_X509BasicConstraintsExtension__ctor_m3320418592
Hui:_ExtendedKeyUsageExtension_Decode_m901297139
kUb:__Z32TransferEnumWithNameForceIntSizeI14SafeBinaryRead7FogModeEvRT_RT0_PKc17TransferMetaFlags
$hc:__Z52Register_UnityEngine_RenderTexture_Internal_GetWidthv
MDf:__ZL89SafeWaitHandle_t481461830_CustomAttributesCacheGenerator_SafeWaitHandle__ctor_m1710231470P21CustomAttributesCache
uvj:_GC_check_leaked
NVb:__ZN9ShaderLab20SerializedSubProgram16TextureParameter8TransferI19StreamedBinaryWriteILb0EEEEvRT_
L5d:_Array_InternalArray__Insert_TisVector4_t2243707581_m1643342708_gshared
V2g:_Mask_OnSiblingGraphicEnabledDisabled_m865494155
Fpf:_KeysCollection_System_Collections_ICollection_get_SyncRoot_m2289369147
sT:__ZN11UnityEngine15CloudWebService16SessionContainer8AddEventEPNS0_14CloudEventInfoE
NGa:__Z4TrimRKN4core12basic_stringIcNS_20StringStorageDefaultIcEEEES5_
tah:_Text_set_resizeTextMaxSize_m4034967714
sDf:__ZL55GuidAttribute_t222072359_CustomAttributesCacheGeneratorP21CustomAttributesCache
uQg:_GUIStyle_SetDefaultFont_m2095841351
gFg:_CustomAttributeNamedArgument_Equals_m2691468532
pAf:__ZL74String_t_CustomAttributesCacheGenerator_String_Concat_m3881798623____args0P21CustomAttributesCache
ALf:__ZL103CryptoConfig_t896479599_CustomAttributesCacheGenerator_CryptoConfig_CreateFromName_m2169102076____args1P21CustomAttributesCache
Itb:__ZN10VertexData8TransferI14SafeBinaryReadEEvRT_
pJ:__ZN4FMOD8ChannelI8setDelayE14FMOD_DELAYTYPEjj
Npd:_Stack__ctor_m2410583781
owj:_GC_malloc_atomic
GEg:_Default_GetBetterMethod_m4255740863
FD:__Z93Register_UnityEngine_Experimental_Director_AnimationClipPlayable_INTERNAL_CALL_SetApplyFootIKv
izi:_StateMachineBehaviour_OnStateExit_m4064436078
R2h:__Z48RuntimeInvoker_UIVertex_t1204258818_Il2CppObjectPK10MethodInfoPvPS2_
_mj:__ZNSt3__214__split_bufferIN6il2cpp2vm5Image20EmbeddedResourceDataERNS_9allocatorIS4_EEED2Ev
veb:__ZN15dense_hashtableINSt3__24pairIKN4core12basic_stringIcNS2_20StringStorageDefaultIcEEEEP11AssetBundleEES6_20StringHash32FunctionIS6_EN14dense_hash_mapIS6_S9_SC_NS0_8equal_toIS6_EENS0_9allocatorISA_EEE9SelectKeyESF_SH_E4findERS7_
T1:__ZL20SortItemByInstanceIDRKN18AwakeFromLoadQueue4ItemES2_
PKg:_TypeBuilder_create_runtime_class_m2719530260
f1c:_RNGCryptoServiceProvider_RngClose_m2921734810
g5f:__ZL85GUIStyle_t1799908754_CustomAttributesCacheGenerator_GUIStyle_set_richText_m1853532836P21CustomAttributesCache
Vu:__ZNK34AnimationStateMachineMixerPlayable26GetInterruptedPosePlayableEv
hXc:__ZN20UnityConnectSettings8TransferI24GenerateTypeTreeTransferEEvRT_
Ss:__ZN34BlobWriteTransferSTLStyleArrayImplI22OffsetPtrArrayTransferIbEEclERS1_17TransferMetaFlagsR9BlobWrite
w1h:__Z37RuntimeInvoker_LabelFixup_t4090909514PK10MethodInfoPvPS2_
aji:_GCHandle_GetHashCode_m1664905595_AdjustorThunk
W0e:_SimpleCollator_IsHalfKana_m4255579023
unf:_InternalAsyncResult_get_Count_m1291942796
zre:_Collection_1_System_Collections_IList_Contains_m3365884450_gshared
Jrj:__ZNK15dense_hashtableINSt3__24pairIK10KeyWrapperIPK19Il2CppGenericMethodEP10MethodInfoEES6_N6il2cpp8metadata23Il2CppGenericMethodHashEN14dense_hash_mapIS6_S9_SD_NS6_14EqualsComparerINSC_26Il2CppGenericMethodCompareEEENS0_9allocatorISA_EEE9SelectKeyESH_SJ_E10test_emptyERK30dense_hashtable_const_iteratorISA_S6_SD_SL_SH_SJ_E
HMa:__Z16FlaggedAsSkippedIN4core12basic_stringIcNS0_20StringStorageDefaultIcEEEEEbRK13FileEntryInfoRKT_19FileEnumerationFlag
gze:_Collection_1_set_Item_m3440986310_gshared
w7:__ZL31InitializeRendererUpdateManagerPv
jLd:_BaseMeshEffect__ctor_m2843647600
mO:__ZN13AudioListener12CleanupClassEv
IMi:_Terminal_Awake_m2961603900
$hf:_ClientSessionInfo_Dispose_m2571428025
UXd:_LayoutGroup_DelayedSetDirty_m4276695617
llf:_RecordProtocol_decryptRecordFragment_m2510859489
Q4f:__ZL105GUIStyle_t1799908754_CustomAttributesCacheGenerator_GUIStyle_INTERNAL_set_Internal_clipOffset_m2024478897P21CustomAttributesCache
Aeb:__Z28GetAbsoluteAssetBundlePrefixRKN4core12basic_stringIcNS_20StringStorageDefaultIcEEEE
XFd:_BaseRaycaster_get_sortOrderPriority_m3340181311
xyb:__ZN11TimeManager8TransferI19StreamedBinaryWriteILb0EEEEvRT_
FUe:_DelegatePInvokeWrapper_ReadDelegate_t3184826381
tUf:__ZL91HashSet_1_t2624254809_CustomAttributesCacheGenerator_HashSet_1_OnDeserialization_m627602129P21CustomAttributesCache
FHc:_compare_uni_maps
tye:_Collection_1_get_Count_m804306016_gshared
rVc:__ZN11UnityEngine15PlatformWrapper27GetGraphicsCapsSupportFlagsEv
NNc:__ZNSt3__218__insertion_sort_3IRPFbPN2UI6CanvasES3_EPS3_EEvT0_S8_T_
HAf:__ZL80Decimal_t724701077_CustomAttributesCacheGenerator_Decimal_op_Explicit_m714968249P21CustomAttributesCache
bzd:_Decimal_Equals_m1115043331
vNb:__ZN12NativeBufferI16Converter_StringE15SetupForWritingER9ArrayInfo
TJd:_StandaloneInputModule_DeactivateModule_m2952848884
tKj:___cxa_end_catch__wrapper
s8f:__ZL119RenderPipelineManager_t984453155_CustomAttributesCacheGenerator_RenderPipelineManager_CleanupRenderPipeline_m2242901458P21CustomAttributesCache
hfh:_ValueCollection_System_Collections_Generic_ICollectionU3CTValueU3E_Clear_m231380274_gshared
YGd:_Entry__ctor_m1176697586
jSe:_BinaryReader_ReadUInt32_m1363572147
AQf:__ZL79Convert_t2607082565_CustomAttributesCacheGenerator_Convert_ToUInt32_m3391339025P21CustomAttributesCache
W2h:__Z37RuntimeInvoker_Enumerator_t1147558387PK10MethodInfoPvPS2_
Alb:__ZThn268_N31CanvasBatchIntermediateRenderer20OnAssetBoundsChangedEv
v4a:__ZN13MonoBehaviour22DoScriptRebuildWarningEv
fcc:__Z38Camera_CUSTOM_INTERNAL_CALL_RaycastTryP12Il2CppObjectRK3Rayfi
Zjc:__ZN18CrashReportHandler12CloseServiceEv
Cah:_Text_get_verticalOverflow_m3134063496
afj:__ZN6il2cpp6icalls8mscorlib6System5Array13ClearInternalEP11Il2CppArrayii
Z2b:__ZZL23RegisterLightPropertiesR22GenericPropertyBindingEN22Wrapper_LightSpotAngle13GetFloatValueEPv
Tii:_GCHandle_get_Target_m2327042781
Qwe:_Collection_1_GetEnumerator_m1417525918_gshared
oGj:_llvm_cttz_i32
vtf:_PublicKey_DecodeDSA_m1169363495
Hmc:__ZN11IMGUIModule25GetGUIStyleScriptingClassEv
DKc:_tt_get_interface
Apg:_AsymmetricKeyExchangeFormatter__ctor_m3362140205
dgj:__ZN6il2cpp5utils9PathUtils7CombineIcEENSt3__212basic_stringIT_NS3_11char_traitsIS5_EENS3_9allocatorIS5_EEEERKSA_SC_
wpf:_NameObjectCollectionBase_BaseGet_m667273025
jtc:__ZN9JSONWrite8TransferI13dynamic_arrayIiLj4EEEEvRT_PKc17TransferMetaFlags
q_:__Z18ConvertUTF16toUTF8PPKtS0_PPhS2_15ConversionFlags
$qj:__ZN6il2cpp2os20PathErrnoToErrorCodeERKNSt3__212basic_stringIcNS1_11char_traitsIcEENS1_9allocatorIcEEEEi
Rxg:_TypeLoadException__ctor_m1903359728
MJi:__ZL16my_g_bit_nth_msfj
Cdh:_Transform_1_BeginInvoke_m3014766640_gshared
g$c:_KeySizes__ctor_m3526899007
Adj:__ZN15dense_hashtableINSt3__24pairIK10KeyWrapperIP11Il2CppClassES4_EES5_N6il2cpp8metadata16SZArrayClassHashEN14dense_hash_mapIS5_S4_SA_NS5_14EqualsComparerINS9_19SZArrayClassCompareEEENS0_9allocatorIS7_EEE9SelectKeyESE_SG_E12expand_arrayEjN21dense_hash_map_traits17integral_constantIbLb0EEE
SWb:__ZNK12ShaderErrors11ShaderErrorltERKS0_
n7f:__ZL69ArgumentCache_t4810721_CustomAttributesCacheGenerator_m_FloatArgumentP21CustomAttributesCache
yse:_Collection_1_CopyTo_m1578267616_gshared
Wbd:_EncoderReplacementFallback__ctor_m2208438262
tUa:__Z23SetupStereoFlareElementP11FlareVertexRK8Vector2fS3_S3_RK11ColorRGBA32RK10Matrix4x4fRK8Vector3fb
eOi:__ZN6il2cpp2vm5Class15GetInstanceSizeEPK11Il2CppClass
ta:invoke_iiiifiiii
Dih:_Dictionary_2_CopyTo_m1495142643_gshared
jwc:__ZN9rapidjson8internal6u64toaEyPc
dJi:_EventFunction_1_BeginInvoke_m3064802067_gshared
iRf:__ZL67IndexOutOfRangeException_t3527622107_CustomAttributesCacheGeneratorP21CustomAttributesCache
hdj:__ZNK15dense_hashtableINSt3__24pairIK10KeyWrapperINS1_IP11Il2CppClassjEEES4_EES6_N6il2cpp8metadata14ArrayClassHashEN14dense_hash_mapIS6_S4_SB_NS6_14EqualsComparerINSA_17ArrayClassCompareEEENS0_9allocatorIS8_EEE9SelectKeyESF_SH_E12test_deletedERK30dense_hashtable_const_iteratorIS8_S6_SB_SJ_SF_SH_E
PSe:_Directory_GetFiles_m4036267478
LBd:_Enum_System_IConvertible_ToType_m2669300536
JLe:_NumberFormatInfo_get_CurrencyNegativePattern_m3972163809
dEa:__ZL19BlitFramebufferImplRN4gles23BlitFramebufferDrawQuadER9GfxDevice9TextureIDRK8Vector4f
QIb:__Z18Transfer_BlittableI17RemapPPtrTransferLb0EhEvRK29SerializationCommandArgumentsR31RuntimeSerializationCommandInfo
fDh:__Z44RuntimeInvoker_Byte_t3683104436_Il2CppObjectPK10MethodInfoPvPS2_
g7i:__ZN15dense_hashtableINSt3__24pairIK10KeyWrapperIPK10Il2CppTypeEjEES6_N6il2cpp8metadata14Il2CppTypeHashEN14dense_hash_mapIS6_jSB_NS6_14EqualsComparerINSA_26Il2CppTypeEqualityComparerEEENS0_9allocatorIS8_EEE9SelectKeyESF_SH_E4findERS7_
aCe:_ReadOnlyCollection_1_System_Collections_IList_Add_m2333231354_gshared
BAc:_UNITY_FT_List_Add
FKg:_OpCodes__cctor_m939885911
V0b:__ZN14Texture2DArray11InitTextureEiii13TextureFormatb
cef:_PKCS1_RSASP1_m1748738009
Qlf:_RSASslSignatureDeformatter_SetHashAlgorithm_m4048969080
Aui:_UriParser_InitializeAndValidate_m251943319
A3c:_SymmetricAlgorithm_set_Padding_m3081984460
gyb:__ZN9InputAxis8TransferI18StreamedBinaryReadILb0EEEEvRT_
sLf:__ZL91X509Certificate_t283079845_CustomAttributesCacheGenerator_X509Certificate_Reset_m1676863543P21CustomAttributesCache
Wjd:_ArrayList_RemoveAt_m2578928333
AGb:__Z18Transfer_BlittableI14SafeBinaryReadLb0EaEvRK29SerializationCommandArgumentsR31RuntimeSerializationCommandInfo
mei:_AnimatorControllerPlayable_INTERNAL_CALL_GetBoolString_m538178071
JWi:__ZN30dense_hashtable_const_iteratorINSt3__24pairIK10KeyWrapperI13dynamic_arrayIPK10Il2CppTypeLj4EEEPFvvEEES8_N6il2cpp8metadata19Il2CppSignatureHashEN14dense_hash_mapIS8_SB_SF_NS8_14EqualsComparerINSE_22Il2CppSignatureCompareEEENS0_9allocatorISC_EEE9SelectKeyESJ_SL_E30advance_past_empty_and_deletedEv
gBe:_ReadOnlyCollection_1_System_Collections_IList_set_Item_m1233322304_gshared
Oui:_GeneralNames_get_DNSNames_m2721668874
BBd:_Enum_System_IConvertible_ToByte_m38374586
QAe:_ReadOnlyCollection_1_System_Collections_Generic_IListU3CTU3E_RemoveAt_m1592158292_gshared
gDg:_PlatformNotSupportedException__ctor_m3301654967
HJj:_emscripten_glFrustum__wrapper
Dlf:_ReceiveRecordAsyncResult_get_CompletedWithError_m2670396551
Oyd:_Decimal_Equals_m1798565377
Qkb:__ZN17GlobalGameManager8TransferI24GenerateTypeTreeTransferEEvRT_
Kcg:__ZL66InputField_t1631627530_CustomAttributesCacheGenerator_m_CaretColorP21CustomAttributesCache
vHg:_TypeBuilder_check_created_m2929267877
eRa:__Z20SyncFenceCullResultsR11CullResults
EFa:__ZN15TextureTFMethod20IsBoneCountSupportedEi
aD:__ZN26AnimatorControllerPlayable9GotoStateEiifff
BTg:_GUISkin_set_horizontalScrollbarThumb_m2119687595
Anb:__ZN14RenderSettings23VirtualRedirectTransferER24GenerateTypeTreeTransfer
Jkc:__ZN18CrashReportManagerC2E18MemLabelIdentifier18ObjectCreationMode
Pvd:_DateTime_System_IConvertible_ToSByte_m2575078084_AdjustorThunk
ZJb:__Z22TransferField_NonArrayI17RemapPPtrTransfer27Converter_SimpleNativeClassI8GUIStyleEEvRK23StaticTransferFieldInfoR31RuntimeSerializationCommandInfoRT0_
B5h:_AnimatorStateInfo_IsTag_m1529621725_AdjustorThunk
x$b:__ZNK17AnimationCurveTplIfE20EvaluateWithoutCacheEfRf
hpj:__ZN6il2cpp2os6Thread12QueueUserAPCEPFvPvES2_
s$d:_Array_InternalArray__IEnumerable_GetEnumerator_TisDictionaryEntry_t3048875398_m3498834924_gshared
lWg:_GUIStyleState__ctor_m3611888666
hue:_Collection_1_IsValidItem_m1304951912_gshared
M6b:__ZN4Mesh10SetNormalsEPK8Vector3fj
lOg:_PropertyInfo__ctor_m1808219471
asd:_Convert_ToDateTime_m4161927553
QQh:__Z76RuntimeInvoker_Void_t1841601450_RegexOptionsU26_t3063574985_SByte_t454417549PK10MethodInfoPvPS2_
BHg:_TypeBuilder_GetConstructors_m774120094
G2f:__ZL87Canvas_t209405766_CustomAttributesCacheGenerator_Canvas_set_overrideSorting_m3982973573P21CustomAttributesCache
fr:__ZN17AnimationCurveTplIfE8TransferI14SafeBinaryReadEEvRT_
Tsi:_RegularExpression_set_GroupCount_m2991393456
gDd:_Calendar_get_EraNames_m452820602
Zsb:__ZNSt3__26vectorIN15QualitySettings14QualitySettingENS_9allocatorIS2_EEE6assignIPS2_EENS_9enable_ifIXaasr21__is_forward_iteratorIT_EE5valuesr16is_constructibleIS2_NS_15iterator_traitsIS9_E9referenceEEE5valueEvE4typeES9_S9_
Zcb:__ZNK5Unity9Component10GetEnabledEv
uSa:__ZNK19ShaderPropertySheet11HasPropertyERKN9ShaderLab16FastPropertyNameE
Avd:_DateTime_System_IConvertible_ToByte_m2670443498_AdjustorThunk
d3i:_il2cpp_class_get_image
Y4:__Z16AsyncReadRequestP16AsyncReadCommand
sSf:__ZL81BigInteger_t925946153_CustomAttributesCacheGenerator_BigInteger__ctor_m4013661868P21CustomAttributesCache
Vbf:_BigInteger_op_Addition_m1734797151
lWh:__Z110RuntimeInvoker_Boolean_t3825574718_Vector2_t2243707579_Vector2_t2243707579_Single_t2076509932_SByte_t454417549PK10MethodInfoPvPS2_
cje:_List_1_CheckMatch_m1814522134_gshared
ete:_Collection_1_System_Collections_IList_set_Item_m3488446830_gshared
WHg:_EnumBuilder_CreateNotSupportedException_m62763134
lZc:__ZNK12HeaderHelper3GetERKN4core12basic_stringIcNS0_20StringStorageDefaultIcEEEE
tTc:__Z24GetUnityAnalyticsManagerv
HYe:_Math_Log_m3371716878
IQg:_GUILayoutUtility_Layout_m3812180708
Zxb:__ZN9InputAxis8TransferI14SafeBinaryReadEEvRT_
g2:__ZNK21ExecutionOrderManager30GetCustomAwakeFromLoadQueueForEPKN5Unity4TypeE
uYc:__Z27RegisterModule_UnityConnectv
nee:_Enumerator_Dispose_m3717265706_AdjustorThunk
VOg:_ParameterInfo_get_IsRetval_m1881464570
r7h:_Bounds_get_size_m1728027642_AdjustorThunk
Jjg:_RealProxy__ctor_m3041043303
SJe:_NumberFormatter_Init_m2654758994
T_c:_HMACSHA1__ctor_m1168389339
dYf:__ZL100Input_t1785128008_CustomAttributesCacheGenerator_Input_INTERNAL_get_compositionCursorPos_m2426914348P21CustomAttributesCache
LK:__ZN10ObjectPoolIN4FMOD12ChannelGroupENS0_13ChannelGroupIEE7SetSizeEi
P3e:_PrimalityTest_BeginInvoke_m966469054
HEe:_ReadOnlyCollection_1_System_Collections_Generic_ICollectionU3CTU3E_Clear_m1785953911_gshared
RAg:_UInt64_System_IConvertible_ToInt16_m2797150165_AdjustorThunk
VOa:__ZN5Image13ReformatImageEii13TextureFormatN14ImageReference8BlitModeE
Jae:_Array_InternalArray__get_Item_TisLabelData_t3712112744_m863115768_gshared
LPe:_Int32_Parse_m753946802
WXg:_Material_DisableKeyword_m1204728089
iV:__Z22ValidateTlsfAllocationPvjiS_
Woe:_List_1_RemoveAt_m2331128844_gshared
dcj:__ZN14dense_hash_mapI10KeyWrapperINSt3__24pairIPK9EventInfoP11Il2CppClassEEEj17ReflectionMapHashIS8_ENS9_14EqualsComparerINS1_8equal_toIS8_EEEENS1_9allocatorINS2_IKS9_jEEEEE15set_deleted_keyERSH_
lLg:_UnmanagedMarshal_ToMarshalAsAttribute_m3695569337
UHb:__Z14resize_trimmedINSt3__26vectorI17AnimationCurveTplIfE13stl_allocatorIS3_L18MemLabelIdentifier1ELi16EEEEEvRT_j
E2a:__ZN25CameraStackRenderingState19SetupLastEyeCamerasERK11CameraStack
ihb:__Z12GUIDToStringRK9UnityGUID
sXd:_LayoutElement_get_minHeight_m2070403283
RG:__ZN11SoundHandleC2ERKS_
W2g:_Mask_OnEnable_m501850981
Xdf:_RSASslSignatureFormatter__ctor_m2530528184
v8h:_Canvas_get_targetDisplay_m316548313
fJg:_GenericTypeParameterBuilder_GetGenericTypeDefinition_m2936287336
u3e:_BigInteger_op_Addition_m1196561843
R8a:__Z29StdTemplateConversionFunctionItxEbPvR14SafeBinaryRead
rli:_FormatterData__ctor_m3974986124
MFf:__ZL64FileNotFoundException_t4200667904_CustomAttributesCacheGeneratorP21CustomAttributesCache
r0c:_RijndaelManagedTransform_get_CanReuseTransform_m3735256596
Ymd:_Comparer__cctor_m1327316974
KSe:_MonoIO_ExistsFile_m1421941572
Zwd:_DateTime_op_GreaterThanOrEqual_m3818963848
nta:__ZNSt3__26__treeINS_12__value_typeI18VertexChannelsInfoP17VertexDeclarationEENS_19__map_value_compareIS2_S5_NS_4lessIS2_EELb1EEE13stl_allocatorIS5_L18MemLabelIdentifier14ELi16EEE12__find_equalIS2_EERPNS_16__tree_node_baseIPvEENS_21__tree_const_iteratorIS5_PNS_11__tree_nodeIS5_SG_EEiEESJ_RKT_
jy:__ZN17AnimationPlayable18DeallocateBindingsEv
nOd:_DefaultControls_SetDefaultTextValues_m1707718380
mKd:_TouchInputModule_UseFakeInput_m2112019004
oGd:_EventSystem_get_baseEventDataCache_m4294741599
Gnb:__ZN14RenderSettings18TransferDeprecatedI14SafeBinaryReadEEvRT_
h5f:__ZL85GUIStyle_t1799908754_CustomAttributesCacheGenerator_GUIStyle_Internal_Draw_m694122665P21CustomAttributesCache
TX:__ZN12TLSAllocatorI14StackAllocatorE8AllocateEji
e3:__ZN16ScriptingManager18GetMonoScriptCacheEi
MRg:_GUIStyle_get_stretchHeight_m3396762700
fWi:__ZN13dynamic_arrayIPK10Il2CppTypeLj4EEC2ERKS3_
JTi:__ZN15dense_hashtableINSt3__24pairIK10KeyWrapperIPK11Il2CppClassEPKcEES6_N6il2cpp5utils11PointerHashIS3_EEN14dense_hash_mapIS6_S9_SE_NS6_14EqualsComparerINS0_8equal_toIS5_EEEENS0_9allocatorISA_EEE9SelectKeyESJ_SL_E15set_deleted_keyERKSA_
tSd:_GridLayoutGroup_CalculateLayoutInputHorizontal_m2355123124
qUf:__ZL84Locale_t4255929017_CustomAttributesCacheGenerator_Locale_GetText_m512920887____args1P21CustomAttributesCache
FGb:__Z18Transfer_BlittableI14SafeBinaryReadLb1EyEvRK29SerializationCommandArgumentsR31RuntimeSerializationCommandInfo
o8f:__ZL89U3CInvokeMessageIdSubscribersU3Ec__AnonStorey0_t1899782350_CustomAttributesCacheGeneratorP21CustomAttributesCache
Zpc:__ZN8JSONRead8TransferIfEEvRT_PKc17TransferMetaFlagsb
moh:_U3CGetEnumeratorU3Ec__Iterator0_Reset_m2980566576_gshared
Dai:_Coroutine__ctor_m1253937571
zFe:_ReadOnlyCollection_1_System_Collections_ICollection_get_IsSynchronized_m4063596282_gshared
Kfd:__ZN21InterfaceFuncInvoker2IP12Il2CppObjectP6Type_tS1_E6InvokeEjP11Il2CppClassS1_S3_S1_
ZEj:__ZNSt3__212basic_stringIcNS_11char_traitsIcEENS_9allocatorIcEEE6appendEPKcj
EGf:__ZL54TypeBuilder_t3308873219_CustomAttributesCacheGeneratorP21CustomAttributesCache
Mka:__ZN6prcoreL17RemapGenericFloatI18TexFormatARGBFloat17TexFormatRGBAHalfEEvPKNS_9InnerInfoE
Hve:_Collection_1_CheckWritable_m691269733_gshared
yIg:_GenericTypeParameterBuilder_GetAttributeFlagsImpl_m3338182267
_P:__ZN13Simd4iFactoryIN6detail9FourTupleEEC2Eiiii
cXe:_SynchronizedReader__ctor_m1408327515
hTh:__Z67RuntimeInvoker_AnimatorTransitionInfo_t2410896200_Int32_t2071877448PK10MethodInfoPvPS2_
g2h:__Z54RuntimeInvoker_KeyValuePair_2_t3716250094_Il2CppObjectPK10MethodInfoPvPS2_
zGe:_ReadOnlyCollection_1_System_Collections_IList_Clear_m1858417639_gshared
Fod:_Slot_t2022531261_marshal_pinvoke_cleanup
aOa:__ZZ23InitPlayerLoopCallbacksvEN38PostLateUpdateShaderHandleErrorsstruct7ForwardEv
Xqb:__ZN15SerializeTraitsI33EnlightenTerrainChunksInformationE8TransferI14SafeBinaryReadEEvRS0_RT_
DFi:_Predicate_1__ctor_m1567825400_gshared
H1b:__ZNK32RendererMaterialAnimationBinding9BindValueER6ObjectRKN11UnityEngine9Animation14GenericBindingERNS3_10BoundCurveE
sIh:__Z112RuntimeInvoker_Int32_t2071877448_Il2CppObject_Int32_t2071877448_Int32_t2071877448_Il2CppObject_Int32_t2071877448PK10MethodInfoPvPS2_
qxb:__Z13GetIAnimationv
wpa:__ZL18stbir__support_onef
Nhe:_List_1_System_Collections_IList_Remove_m2040310137_gshared
Ioi:_Match_get_Regex_m3526002767
YFf:__ZL49Stream_t3255436806_CustomAttributesCacheGeneratorP21CustomAttributesCache
Xrc:__Z26Transfer_UnityEngineObjectI9JSONWriteLb0EEvRK29SerializationCommandArgumentsR31RuntimeSerializationCommandInfo
Hba:__ZN9ShaderLab4Pass9ApplyPassEjPK19ShaderPropertySheetR17ShaderPassContextP6ShaderiPKNS_10GrabPassesEPNS_11SubProgramsE
acd:_EncoderReplacementFallback_CreateFallbackBuffer_m3579126537
Yzg:_UInt32_System_IConvertible_ToInt16_m2251335934_AdjustorThunk
GOc:__ZNSt3__27__sort5IRNS_6__lessIN2UI14DepthSortEntryES3_EEPS3_EEjT0_S7_S7_S7_S7_T_
eUi:__ZN14dense_hash_mapI10KeyWrapperIPKcEP11Il2CppClassN6il2cpp5utils11StringUtils12StringHasherIS2_EENS3_14EqualsComparerINS8_21CaseSensitiveComparerEEENSt3__29allocatorINSE_4pairIKS3_S5_EEEEE13set_empty_keyERSH_
VCh:__Z31RuntimeInvoker_Void_t1841601450PK10MethodInfoPvPS2_
ufd:_Boolean_System_IConvertible_ToType_m3990189691
R8i:__ZNSt3__218uninitialized_copyIPNS_4pairIK10KeyWrapperINS1_IPK11Il2CppImageP11Il2CppClassEEEjEESC_EET0_T_SE_SD_
Ca:invoke_vdd
un:FUNCTION_TABLE_fiii
Zvh:_InternalEnumerator_1_Dispose_m3838127340_AdjustorThunk
VUh:__Z36RuntimeInvoker_FontStyle_t2764949590PK10MethodInfoPvPS2_
$Ad:_Double_System_IConvertible_ToUInt32_m624993430
xn:FUNCTION_TABLE_fiif
C9f:__ZL89PointerEventData_t1599784723_CustomAttributesCacheGenerator_U3CdraggingU3Ek__BackingFieldP21CustomAttributesCache
vvg:_Scheduler_Add_m376749205
Pjd:_ArrayList_IndexOf_m2092981366
gmj:__ZN15dense_hashtableINSt3__24pairIK10KeyWrapperINS1_IPKcS4_EEEiEES6_24NamespaceAndNamePairHashN14dense_hash_mapIS6_iS9_NS6_14EqualsComparerI26NamespaceAndNamePairEqualsEENS0_9allocatorIS8_EEE9SelectKeyESD_SF_E12resize_deltaEjj
J0b:__Z14RandomRotationP9Texture2DPhiiii
Kkg:_SingleCallIdentity__ctor_m1512303454
Buh:_InternalEnumerator_1_MoveNext_m1594563423_AdjustorThunk
d1e:_SimpleCollator_IsIgnorable_m2485013022
K2f:__ZL86Canvas_t209405766_CustomAttributesCacheGenerator_Canvas_get_sortingLayerID_m1396307660P21CustomAttributesCache
bJh:__Z35RuntimeInvoker_TimeSpan_t3430258949PK10MethodInfoPvPS2_
xme:_List_1_System_Collections_IList_Insert_m2036969360_gshared
VVd:_InputField_GetUnclampedCharacterLineFromPosition_m1912794077
eUe:_ReadDelegate__ctor_m885671467
wxd:_DateTimeOffset_ToString_m2121173678_AdjustorThunk
PSf:__ZL50X509Crl_t1699034837_CustomAttributesCacheGeneratorP21CustomAttributesCache
dYi:__ZN24dense_hashtable_iteratorINSt3__24pairIK10KeyWrapperIPKcEP11Il2CppClassEES5_N6il2cpp5utils11StringUtils12StringHasherIS4_EEN14dense_hash_mapIS5_S8_SE_NS5_14EqualsComparerINSC_21CaseSensitiveComparerEEENS0_9allocatorIS9_EEE9SelectKeyESI_SK_E30advance_past_empty_and_deletedEv
gj:_JS_WebRequest_SetResponseHandler
aU:__ZNK13EmscriptenWWW14GetPartialDataEv
IPj:_glDeleteProgram__wrapper
mcc:__Z50Register_UnityEngine_Camera_INTERNAL_get_pixelRectv
Ndi:_AnimationOffsetPlayable_set_position_m3583285645
jZh:__Z53RuntimeInvoker_UIVertex_t1204258818_Int32_t2071877448PK10MethodInfoPvPS2_
cka:__ZN6prcoreL18BlitFloatToIntegerERK14ImageReferenceRS0_
o9e:_X509CertificateCollection_get_Item_m410866272
TRg:_Rect_get_yMax_m2915146103
$5f:__ZL94CustomEventData_t1269126727_CustomAttributesCacheGenerator_CustomEventData_AddInt32_m103138778P21CustomAttributesCache
a$b:__Z13GetIPhysics2Dv
KS:__ZN11UnityEngine15CloudWebService14RestDownloader17OnCompleteContentEv
NSd:_LayoutGroup_SetChildAlongAxis_m1615929339
Pa:invoke_viffi
xs:__ZN11UnityEngine9Animation40SetFlattenedSkeletonTransformsMainThreadER9TransformRKNS0_21AvatarBindingConstantEb
l$:__ZNSt3__26vectorI20ProcessCallbackGroupNS_9allocatorIS1_EEEC2ERKS4_
bA:__ZN17AnimationPlayable28UpdateInternalStateRecursiveILi1ELb0EEEvPK35AnimationPlayableEvaluationConstant
spe:_List_1_System_Collections_ICollection_get_SyncRoot_m1429670979_gshared
Sa:invoke_vifff
Rec:__Z53Register_UnityEngine_Input_INTERNAL_get_mousePositionv
Poi:_MatchCollection_get_SyncRoot_m2567236647
Pe:_emscripten_request_fullscreen
e0g:_Rect_get_xMin_m1161102488
ZW:__ZN20LocalFileSystemWebGL6DeleteER13FileEntryDatab
Ayd:_Decimal_System_IConvertible_ToUInt16_m1621568250
Re:_emscripten_glDisableVertexAttribArray
t_f:__ZL79Object_t1021602117_CustomAttributesCacheGenerator_Object_Instantiate_m938141395P21CustomAttributesCache
Tm:FUNCTION_TABLE_iiiifiiii
qwg:_TimeSpan_get_TotalMinutes_m1645177229_AdjustorThunk
lc:invoke_fifffi
ieh:_Enumerator__ctor_m3539306986_gshared
oAa:__ZN4gles23ClearCurrentFramebufferEP7ApiGLESbbbRK10ColorRGBAffi
Wy:__ZN7mecanim12statemachine20CreateStateWorkspaceEjjjRNS_6memory9AllocatorE
D4e:__ZN21InterfaceFuncInvoker3IP22ByteU5BU5D_t3397334013S1_iiE6InvokeEjP11Il2CppClassP12Il2CppObjectS1_ii
ERc:__Z64Register_UnityEngine_CanvasRenderer_SplitIndiciesStreamsInternalv
IRh:__Z34RuntimeInvoker_Vector3_t2243707580PK10MethodInfoPvPS2_
af:_emscripten_glDeleteObjectARB
Xf:_IMG_Load
UXe:_UnexceptionalStreamReader_Read_m3839775235
tla:__ZN6prcoreL27StretchGenericFloatBilinearI18TexFormatARGBFloatEEvPKNS_9InnerInfoE
aic:__Z53Register_UnityEngine_RenderTexture_Internal_GetHeightv
Xjg:_RealProxy_SetTargetDomain_m3940877656
dla:__ZN6prcoreL17RemapGenericFloatI17TexFormatRGBAHalf18TexFormatARGBFloatEEvPKNS_9InnerInfoE
HBd:_Enum_System_IConvertible_ToInt32_m2459904362
jmc:__ZNK8GUIStyle21DrawWithTextSelectionER8GUIStateRK5RectTIfER10GUIContentbbbbbiiRK10ColorRGBAfSA_
xmc:__Z14GetBuiltinSkini
Uef:_ContentInfo__ctor_m3871771681
Ikc:__ZN18CrashReportHandler23RegisterGlobalCallbacksEv
Xwh:_InternalEnumerator_1_MoveNext_m607849555_AdjustorThunk
kFd:_BaseInput_set_compositionCursorPos_m2632248731
fLi:_Enumerator_System_Collections_IEnumerator_Reset_m2573763156_gshared
ySe:_DirectoryInfo_Initialize_m2216118894
e6c:_WindowsIdentity_Dispose_m2649088337
PXb:__ZN2UI13RectTransform23VirtualRedirectTransferER14SafeBinaryRead
FGi:_InvokableCall_1__ctor_m54675381_gshared
j_e:_MonoType_GetMethodImpl_m593754598
$ee:_List_1_System_Collections_ICollection_get_SyncRoot_m3733894943_gshared
hle:_List_1_Reverse_m302978607_gshared
EO:__ZZL31InitializeAudioManagerCallbacksvEN33FixedUpdateAudioFixedUpdatestruct7ForwardEv
uUb:__ZNSt3__26vectorIN9ShaderLab20SerializedSubProgramENS_9allocatorIS2_EEE6assignIPS2_EENS_9enable_ifIXaasr21__is_forward_iteratorIT_EE5valuesr16is_constructibleIS2_NS_15iterator_traitsIS9_E9referenceEEE5valueEvE4typeES9_S9_
Qtc:__Z18Transfer_BlittableI8JSONReadLb0E8BitFieldEvRK29SerializationCommandArgumentsR31RuntimeSerializationCommandInfo
Wkg:_SoapServices_RegisterInteropXmlType_m2949236705
I7i:__ZNK15dense_hashtableINSt3__24pairIK10KeyWrapperIPK10Il2CppTypeEjEES6_N6il2cpp8metadata14Il2CppTypeHashEN14dense_hash_mapIS6_jSB_NS6_14EqualsComparerINSA_26Il2CppTypeEqualityComparerEEENS0_9allocatorIS8_EEE9SelectKeyESF_SH_E10test_emptyERK24dense_hashtable_iteratorIS8_S6_SB_SJ_SF_SH_E
T7a:__ZN17PersistentManagerC2Eii
xOb:__ZL17Transfer_GUIStyleI18StreamedBinaryReadILb1EELb0EEvRK29SerializationCommandArgumentsR31RuntimeSerializationCommandInfo
Bad:_String_CharCopy_m2550399897
xZb:__ZN11TypeManager20RegisterNonClassTypeEiP4RTTIPKcS3_
JSb:__ZN9ShaderLab14SerializedPass8TransferI14SafeBinaryReadEEvRT_
pnc:__Z71Register_UnityEngine_GUILayoutUtility_INTERNAL_CALL_Internal_MoveWindowv
xO:__ZN12AudioManager16SetListenerPauseEb
mgj:__ZN6il2cpp2vm9Exception25RaiseOutOfMemoryExceptionERKNS_5utils10StringViewIDsEE
wte:_Collection_1_IsValidItem_m2254106115_gshared
KHg:_TypeBuilder_GetEvent_m3876348075
J9g:_Slider_OnMove_m641164662
da:invoke_viiiiiiiiiii
ABj:___syscall_ret
yvg:_Scheduler__ctor_m3716265742
s6e:_MACAlgorithm_Final_m4076939925
I4i:__ZNSt3__212basic_stringIcNS_11char_traitsIcEENS_9allocatorIcEEE6assignINS_11__wrap_iterIPKcEEEENS_9enable_ifIXaasr21__is_forward_iteratorIT_EE5valuesr38__libcpp_string_gets_noexcept_iteratorISC_EE5valueERS5_E4typeESC_SC_
Fkf:_TlsServerKeyExchange_ProcessAsSsl3_m462106368
iub:__ZN11ChannelInfo8TransferI19StreamedBinaryWriteILb0EEEEvRT_
iqh:_InternalEnumerator_1_System_Collections_IEnumerator_get_Current_m3583252352_gshared
tCb:__ZN23ArchiveStorageConverter24ReadHeaderFromMemoryFileEv
lHg:_EnumBuilder_get_FullName_m2818393911
mVa:__ZN14qsort_internal13Partition3WayIP17RODataReplacementi19ROSorterReplacementEENSt3__24pairIT_S6_EES6_S6_T0_T1_
bWe:_StreamAsyncResult_get_Done_m2858832609
hec:__Z34Register_UnityEngine_Gradient_Initv
WZi:_ObjectPool_1_set_countAll_m1742773675_gshared
sng:_SerializationEntry_get_Value_m1628109884_AdjustorThunk
NFd:_BaseInputModule_GetAxisEventData_m3903709281
Yae:_Array_InternalArray__get_Item_TisUriScheme_t1876590943_m1821482697_gshared
X7d:_Array_Sort_TisIl2CppObject_m1954851512_gshared
Yaf:_BigInteger__ctor_m3239748086
rW:__ZN13ScreenManager23SetIsOrientationEnabledE18EnabledOrientationb
bQi:__ZL24UnresolvedVirtualCall_57P12Il2CppObjectiPK10MethodInfo
aQf:__ZL79Convert_t2607082565_CustomAttributesCacheGenerator_Convert_ToUInt16_m1043031438P21CustomAttributesCache
Du:__ZN7mecanim5human25HumanPoseAddOverrideLayerERNS0_9HumanPoseERKS1_fRKNS_6bitsetILj70EEE
r$b:__ZN13ProduceHelperI9TransformLb0EE7ProduceE18MemLabelIdentifier18ObjectCreationMode
gpc:__Z45Register_UnityEngine_GUIStyle_GetFontInternalv
Q4h:_AnimationEvent_set_floatParameter_m4139544688
$Qi:__ZL25UnresolvedVirtualCall_109P12Il2CppObjectS0_S0_iiPK10MethodInfo
nri:_Alternation_get_Alternatives_m1445219249
hjh:_DefaultComparer_GetHashCode_m2506382068_gshared
oai:_Component_SendMessageUpwards_m19741277
Pmh:_EqualityComparer_1_System_Collections_IEqualityComparer_GetHashCode_m1012273405_gshared
E3d:_Array_InternalArray__ICollection_Add_TisHitInfo_t1761367055_m2956071622_gshared
twh:_InternalEnumerator_1_MoveNext_m470170271_AdjustorThunk
k5a:__ZN10GameObject23VirtualRedirectTransferER18StreamedBinaryReadILb0EE
zce:_Enumerator_get_Current_m2577424081_gshared
Xyh:_InternalEnumerator_1_Dispose_m2270401482_AdjustorThunk
rg:_glFrontFace
Rmg:_ObjectRecord_get_IsUnsolvedObjectReference_m2202692850
gxf:_FactoryCache_Cleanup_m4130035987
LC:__ZN26AnimatorControllerPlayable14SetLayerWeightEif
t_b:__ZN13ProduceHelperI19LowerResBlitTextureLb0EE7ProduceE18MemLabelIdentifier18ObjectCreationMode
B_a:__ZNSt3__26vectorI16ShadowCasterData13stl_allocatorIS1_L18MemLabelIdentifier2ELi16EEE21__push_back_slow_pathIKS1_EEvRT_
I0i:__ZN6il2cpp6icalls8mscorlib6SystemL16GetFieldFromTypeINS_5utils10functional6FilterINSt3__212basic_stringIcNS7_11char_traitsIcEENS7_9allocatorIcEEEENS4_11StringUtils23CaseInsensitiveComparerEEEEEP21Il2CppReflectionFieldP11Il2CppClassSK_iRKT_
tHi:_UnityAction_1_Invoke_m1279802577_gshared
AAg:_UInt32_ToString_m1783596809
fBi:_Vector3_get_forward_m1201659139
Vpe:_List_1_Sort_m269561757_gshared
k5f:__ZL110GUIStyle_t1799908754_CustomAttributesCacheGenerator_GUIStyle_INTERNAL_CALL_Internal_DrawPrefixLabel_m557487542P21CustomAttributesCache
eNc:__Z51Register_UnityEngine_TextGenerator_GetLinesInternalv
ALi:_HashSet_1_Init_m1258286688_gshared
q9e:_X509CertificateEnumerator_System_Collections_IEnumerator_get_Current_m1643583406
oxi:_X509ExtensionCollection_get_Item_m4212651995
gCe:_ReadOnlyCollection_1_System_Collections_IList_RemoveAt_m525136953_gshared
c1d:__ZN21InterfaceFuncInvoker1Ii19Vector4_t2243707581E6InvokeEjP11Il2CppClassP12Il2CppObjectS0_
uka:__ZN6prcoreL17RemapGenericFloatI17TexFormatRGBFloat18TexFormatRGBAFloatEEvPKNS_9InnerInfoE
FAg:_UInt64_System_IConvertible_ToBoolean_m3012279573_AdjustorThunk
OKh:__Z48RuntimeInvoker_Il2CppObject_StringU26_t638738783PK10MethodInfoPvPS2_
tyg:_Type_get_IsGenericTypeDefinition_m2147901038
pLa:__ZN12HandlerChain10ToAbsoluteEPKc
smi:_ContextAttribute_Freeze_m4133346275
oJe:_GregorianCalendar__ctor_m3794576475
vAg:_UInt32_TryParse_m4283512434
Ljj:__ZN15dense_hashtableI10KeyWrapperIP18Il2CppGenericClassES3_N6il2cpp8metadata22Il2CppGenericClassHashEN14dense_hash_setIS3_S6_NS3_14EqualsComparerINS5_25Il2CppGenericClassCompareEEENSt3__29allocatorIS3_EEE8IdentityESA_SD_E8min_sizeEjj
IG:__ZN9AudioClip11CreateSoundEv
rch:_ShimEnumerator_MoveNext_m3313047792_gshared
iue:_Collection_1_ConvertItem_m2185647560_gshared
Xwg:_TimeSpan_op_Inequality_m257547441
iug:_ExecutionContext_GetObjectData_m1456913356
rcj:__ZN14dense_hash_mapI10KeyWrapperINSt3__24pairIPK9FieldInfoP11Il2CppClassEEEj17ReflectionMapHashIS8_ENS9_14EqualsComparerINS1_8equal_toIS8_EEEENS1_9allocatorINS2_IKS9_jEEEEEC2EjRKSB_RKSF_
VZg:_Object_set_hideFlags_m2204253440
T7i:__ZNK15dense_hashtableINSt3__24pairIK10KeyWrapperINS1_IPK10MethodInfoP11Il2CppClassEEEjEES9_17ReflectionMapHashIS8_EN14dense_hash_mapIS9_jSD_NS9_14EqualsComparerINS0_8equal_toIS8_EEEENS0_9allocatorISB_EEE9SelectKeyESI_SK_E13find_positionERSA_
dHg:_EnumBuilder_get_Assembly_m4285228003
dMb:__Z18Transfer_BlittableI19StreamedBinaryWriteILb0EELb0E8Vector2fEvRK29SerializationCommandArgumentsR31RuntimeSerializationCommandInfo
hLe:_DateTimeFormatInfo_get_RoundtripPattern_m562440017
JXc:__ZN11UnityEngine7Connect16PersistentValues13RestoreValuesER8JSONRead
XMa:__ZN20ArchiveStorageReader31TryToReadDirectoryFromBlockDataEyPKvj
gkh:_DefaultComparer__ctor_m3947565964_gshared
GAd:_Double_System_IConvertible_ToByte_m3004284950_AdjustorThunk
_kg:_TypeEntry_get_AssemblyName_m1762285107
$ij:__ZN6il2cpp2vmL11GetIdentityEP14Il2CppIUnknown
T5e:_SmallXmlParser_ReadCDATASection_m2558307107
dvj:_GC_push_gc_structures
VKd:_AspectRatioFitter_get_aspectRatio_m3023618874
dqf:_ServicePointManager_get_ServerCertificateValidationCallback_m1409951209
G1i:__ZN6il2cpp6icalls8mscorlib6SystemL8IsPublicEPK9EventInfo
ezf:_Enumerator__ctor_m3782962052
Hpd:_Enumerator_get_Current_m1271212567
Jsj:__ZThn4_N6il2cpp2vm13ComObjectBase18ReleaseMarshalDataEP13Il2CppIStream
QGa:__Z22GetShaderCachePathGLESv
cXg:_Input_set_compositionCursorPos_m1615567306
Tqf:_IPAddress_ParseIPV6_m2209709575
n6g:_U3CClickRepeatU3Ec__Iterator0_MoveNext_m1747924386
yIe:_Comparison_1_Invoke_m1670081898_gshared
cbh:_Toggle_set_group_m3833595685
lYd:_LayoutRebuilder_ForceRebuildLayoutImmediate_m566681977
DGa:__ZNSt3__26vectorIPN19ConstantBuffersGLES11ConstBufferENS_9allocatorIS3_EEE21__push_back_slow_pathIKS3_EEvRT_
L3d:_Array_InternalArray__ICollection_Add_TisVector4_t2243707581_m698578249_gshared
K0:__ZN8keywords6CreateEPKc
fFh:__Z89RuntimeInvoker_Il2CppObject_Il2CppObject_Int32_t2071877448_Int32_t2071877448_Il2CppObjectPK10MethodInfoPvPS2_
BLb:__ZN24GenerateTypeTreeTransfer8TransferINSt3__26vectorI17AnimationCurveTplIfE13stl_allocatorIS4_L18MemLabelIdentifier1ELi16EEEEEEvRT_PKc17TransferMetaFlags
S:Math_imul
rUg:_GUIStyle_set_active_m2896743432
ltb:__ZN11PlayerPrefs6GetIntERKN4core12basic_stringIcNS0_20StringStorageDefaultIcEEEEi
I6c:_SecurityFrame_t1002202659_marshal_pinvoke_back
OMc:__Z45TextGenerator_CUSTOM_INTERNAL_get_rectExtentsP12Il2CppObjectP5RectTIfE
Sgi:_PlayableHandle_Equals_m1435096530
KPe:_Int32_Equals_m321398519_AdjustorThunk
l5f:__ZL102GUIStyle_t1799908754_CustomAttributesCacheGenerator_GUIStyle_Internal_GetCursorFlashOffset_m3177259302P21CustomAttributesCache
V_d:_SetPropertyUtility_SetStruct_TisChar_t3454481338_m2333420724_gshared
zte:_Collection_1_IsSynchronized_m2601980439_gshared
aod:_Hashtable_ContainsKey_m2716576664
pP:__ZN11AudioSource12SetAudioClipEP9AudioClip
jpi:_PatternCompiler_EmitCategory_m1696942454
Lyd:_Decimal_decimalFloorAndTrunc_m3655683429
c4d:_Array_InternalArray__ICollection_CopyTo_TisInt32_t2071877448_m984622488_gshared
f_:__ZN18ScriptingArguments9AddObjectE18ScriptingObjectPtr
OQc:__Z39CanvasGroup_Get_Custom_PropInteractableP12Il2CppObject
vQ:__ZN11UnityEngine15CloudWebService16SessionContainerD2Ev
h9f:__ZL97AxisEventData_t1524870173_CustomAttributesCacheGenerator_AxisEventData_get_moveVector_m1338727516P21CustomAttributesCache
FLj:_emscripten_glStencilOpSeparate__wrapper
AJc:_cf2_getLanguageGroup
BAa:__ZN17GenericDynamicVBOC2ER9GfxDevice13GfxBufferModejj
Rli:_Context_get_HasDynamicSinks_m1998518649
yXi:__ZN15dense_hashtableINSt3__24pairIK10KeyWrapperIPKcEP11Il2CppClassEES5_N6il2cpp5utils11StringUtils12StringHasherIS4_EEN14dense_hash_mapIS5_S8_SE_NS5_14EqualsComparerINSC_21CaseSensitiveComparerEEENS0_9allocatorIS9_EEE9SelectKeyESI_SK_E6insertERKS9_
OR:__ZN11UnityEngine15CloudWebService17SessionEventQueue10PurgeItemsEj
S1g:_UpdatedEventHandler_BeginInvoke_m4238510153
REd:_AbstractEventData_get_used_m4208553917
T3a:__ZN6Camera16StandaloneRenderENS_10RenderFlagEP6ShaderRKN4core12basic_stringIcNS3_20StringStorageDefaultIcEEEE
Kcd:_Array_System_Collections_IList_get_Item_m2088124007
cdd:_Array_GetLength_m2083296647
bNf:__ZL58SecurityElement_t2325568386_CustomAttributesCacheGeneratorP21CustomAttributesCache
_ob:__ZNK12CubemapArray13GetIsReadableEv
Lld:_SynchronizedArrayListWrapper_ToArray_m1522185111
WOh:__Z55RuntimeInvoker_TimeSpan_t3430258949_DateTime_t693205669PK10MethodInfoPvPS2_
YNb:__Z18Transfer_BlittableI18StreamedBinaryReadILb1EELb1EtEvRK29SerializationCommandArgumentsR31RuntimeSerializationCommandInfo
j6c:_SecurityContext_get_FlowSuppressed_m420202521
yva:__ZN9GfxDevice20DeallocRenderSurfaceEP17RenderSurfaceBase
tCg:_ValueType_ToString_m3796301715
jDa:__ZN20GpuProgramParameters36UpdatePrepareValuesMaximumBufferSizeEv
uMh:__Z62RuntimeInvoker_Int64_t909078037_Il2CppObject_Int32_t2071877448PK10MethodInfoPvPS2_
hfc:__Z53Register_UnityEngine_Quaternion_INTERNAL_CALL_Inversev
a7d:_Array_qsort_TisUICharInfo_t3056636800_m2607408901_gshared
VQg:_GUILayoutGroup__ctor_m992523271
w0f:__ZL139AnimatorControllerPlayable_t4078305555_CustomAttributesCacheGenerator_AnimatorControllerPlayable_CrossFadeInFixedTime_m1082259778____layer2P21CustomAttributesCache
Gib:__ZN12BaseRenderer23RendererBecameInvisibleEv
Syc:__ZN20TextRenderingPrivate8FontImpl13CharacterInfo8TransferI18StreamedBinaryReadILb0EEEEvRT_
SLb:__Z29Transfer_Blittable_ArrayFieldI24GenerateTypeTreeTransferfEvRT_R9ArrayInfoRK23StaticTransferFieldInfo
kNh:__Z51RuntimeInvoker_Single_t2076509932_Int16_t4041245914PK10MethodInfoPvPS2_
P6a:__ZN19CustomRenderTexture9AddParentE4PPtrIS_E
bsb:__ZN8Gradient8TransferI14SafeBinaryReadEEvRT_
QJh:__Z41RuntimeInvoker_StackBehaviour_t1390406961PK10MethodInfoPvPS2_
TIi:_UnityEvent_1_Invoke_m1533100983_gshared
tha:__ZNSt3__26vectorIN4core12basic_stringIcNS1_20StringStorageDefaultIcEEEE13stl_allocatorIS5_L18MemLabelIdentifier1ELi16EEE7reserveEj
hqf:_FileWebRequest__ctor_m4003648606
Deg:__ZL71SpriteState_t1353336012_CustomAttributesCacheGenerator_m_DisabledSpriteP21CustomAttributesCache
J1h:__Z34RuntimeInvoker_HitInfo_t1761367055PK10MethodInfoPvPS2_
JBd:_Enum_System_IConvertible_ToSByte_m3488526280
bLg:_TypeBuilder_ToString_m1952363535
Wmi:_Identity_set_Disposed_m628843469
JZg:_MonoBehaviour_StopAllCoroutines_m1675795839
Tqa:__ZN18IDCollectorFunctorD0Ev
n_f:__ZL82Object_t1021602117_CustomAttributesCacheGenerator_Object_DestroyObject_m2343493981P21CustomAttributesCache
SW:__ZNK20LocalFileSystemPosix9IsSymLinkERK13FileEntryData
Ztj:_GC_new_free_list_inner
Vih:_DefaultComparer_Equals_m85211180_gshared
mxe:_Collection_1_System_Collections_IList_IndexOf_m1950953062_gshared
b_e:_MonoType_InternalGetEvent_m532443236
oQi:__ZL24UnresolvedVirtualCall_70P12Il2CppObjectPK10MethodInfo
fwe:_Collection_1_IndexOf_m2700825189_gshared
AAh:_Comparer_1_get_Default_m2605397692_gshared
Auc:__ZN8JSONRead8TransferI10RectOffsetEEvRT_PKc17TransferMetaFlagsb
$lj:__ZNK15dense_hashtableINSt3__24pairIK10KeyWrapperINS1_IPKcS4_EEEiEES6_24NamespaceAndNamePairHashN14dense_hash_mapIS6_iS9_NS6_14EqualsComparerI26NamespaceAndNamePairEqualsEENS0_9allocatorIS8_EEE9SelectKeyESD_SF_E12test_deletedERK24dense_hashtable_iteratorIS8_S6_S9_SH_SD_SF_E
wR:__ZN9JSONWrite8TransferIN11UnityEngine15CloudWebService14DataErrorEvent15FileErrorDetailEEEvRT_PKc17TransferMetaFlags
ebd:_Decoder__ctor_m2623573910
Eqa:__Z21ClearFenceWithoutSyncR8JobFence
aDe:_ReadOnlyCollection_1_System_Collections_Generic_IListU3CTU3E_RemoveAt_m1731148677_gshared
EJ:__ZN12SoundManager20RegisterModifiedClipEP10SampleClip
QGh:__Z108RuntimeInvoker_Void_t1841601450_Il2CppObject_Int64_t909078037_Il2CppObject_Int64_t909078037_Int64_t909078037PK10MethodInfoPvPS2_
cM:__ZN11AudioSource4PlayEd
fy:__ZN22AnimationMixerPlayable11DerivesFromE17ScriptingClassPtr
bVi:__ZN15dense_hashtableI10KeyWrapperIPK17Il2CppGenericInstES4_N6il2cpp8metadata21Il2CppGenericInstHashEN14dense_hash_setIS4_S7_NS4_14EqualsComparerINS6_24Il2CppGenericInstCompareEEENSt3__29allocatorIS4_EEE8IdentityESB_SE_E13set_empty_keyERKS4_
RW:__ZNK20LocalFileSystemPosix8IsHiddenERK13FileEntryData
Klh:_EqualityComparer_1_System_Collections_IEqualityComparer_Equals_m3589836321_gshared
d6e:_SmallXmlParser_IsNameChar_m1561000202
gwi:_X501__cctor_m2610532554
xCh:_Enumerator_VerifyState_m3173176371_gshared
Dad:_StringComparer__ctor_m2275216983
u5i:__ZNSt3__214__split_bufferINS_12basic_stringIcNS_11char_traitsIcEENS_9allocatorIcEEEERNS4_IS6_EEED2Ev
Toe:_List_1_CheckCollection_m2220107869_gshared
rpb:__ZN7Cubemap23VirtualRedirectTransferER18StreamedBinaryReadILb0EE
Fhf:_RecordProtocol_EncodeRecord_m3884270352
w2c:_SHA256_Create_m896954069
hLc:_Read_CVT
Oud:_Convert_ToUInt32_m776714429
RJa:__ZN12FileAccessor4SeekEx10FileOrigin
SKb:__ZL26Transfer_SimpleNativeClassI24GenerateTypeTreeTransfer17AnimationCurveTplIfELb0EEvRK29SerializationCommandArgumentsR31RuntimeSerializationCommandInfo
EVh:__Z54RuntimeInvoker_Boolean_t3825574718_Vector2_t2243707579PK10MethodInfoPvPS2_
zWi:__ZN15dense_hashtableINSt3__24pairIK10KeyWrapperI13dynamic_arrayIPK10Il2CppTypeLj4EEEPFvvEEES8_N6il2cpp8metadata19Il2CppSignatureHashEN14dense_hash_mapIS8_SB_SF_NS8_14EqualsComparerINSE_22Il2CppSignatureCompareEEENS0_9allocatorISC_EEE9SelectKeyESJ_SL_E4swapERSO_
Aai:_Coroutine_t2299508840_marshal_pinvoke
D7:__ZN16LightmapSettings20DidChangeActiveSceneEP10UnitySceneS1_
EEg:_Default_ReorderParameters_m1877749093
Qgg:__ZL59g_AssemblyU2DCSharp_Assembly_CustomAttributesCacheGeneratorP21CustomAttributesCache
mlb:__ZNK17InstancedPropInfo15RenderInstancesERK15RenderNodeQueuePK17BatchInstanceDataj17ShaderChannelMask
S$i:__ZN6il2cpp5utils9PathUtils8BasenameIcEENSt3__212basic_stringIT_NS3_11char_traitsIS5_EENS3_9allocatorIS5_EEEERKSA_
XK:__ZN10AudioMixer11SetupGroupsEv
hZf:__ZL91Resources_t339470017_CustomAttributesCacheGenerator_Resources_GetBuiltinResource_m582410469P21CustomAttributesCache
bnc:__Z35Register_UnityEngine_Event_get_typev
S6e:_PrivateKeyInfo_DecodeRSA_m1427048948
ygj:__ZN6il2cpp2vm9Exception23GetInvalidCastExceptionERKNS_5utils10StringViewIDsEE
dcf:_BigInteger_op_GreaterThanOrEqual_m2643115413
IDg:_Assembly_FillName_m1934025015
vPa:_UNITY_png_free
BRe:_IntPtr_op_Explicit_m1073656736
JJj:_emscripten_glDepthRange__wrapper
c9c:_String_IndexOf_m2126171214
_Qe:_Int64_ToString_m1544341651_AdjustorThunk
aA:__ZN8Animator28BuildControllerPlayableCacheEv
ZMe:_Guid_CheckNull_m2903986431
gSf:__ZL62CrossContextDelegate_t754146990_CustomAttributesCacheGeneratorP21CustomAttributesCache
g7h:_Bounds__ctor_m1202659404
X1:__Z63ThreadAndSerializationSafeCheckGetMonoBehaviourBeingTransferredv
Jwj:_GC_enable
Ajf:_TlsClientCertificateVerify_ProcessAsSsl3_m3377063356
gHh:__Z97RuntimeInvoker_Il2CppObject_Il2CppObject_Int32_t2071877448_Il2CppObject_Il2CppObject_Il2CppObjectPK10MethodInfoPvPS2_
GJd:_StandaloneInputModule_set_repeatDelay_m2820945738
bTe:_EndOfStreamException__ctor_m4268387737
Fzg:_UInt16_ToString_m4213290405
Mec:__Z37Register_UnityEngine_Input_GetAxisRawv
Hqe:_List_1_GetIndex_m433539411_gshared
lLf:__ZL59StreamingContext_t1417235061_CustomAttributesCacheGeneratorP21CustomAttributesCache
lki:_ChannelServices_RegisterChannel_m3832858065
QBd:_Enum_GetName_m1226611481
kJe:_Func_2_Invoke_m4121137703_gshared
RL:__ZN11AudioSource5ResetEv
wub:__ZN14Texture2DArray23VirtualRedirectTransferER18StreamedBinaryReadILb0EE
Ori:_Literal_CompileLiteral_m276843152
GXb:__ZN2UI13RectTransform13AwakeFromLoadE17AwakeFromLoadMode
Kri:_Reference__ctor_m4110013284
YZa:__ZN14qsort_internal30FindAndMovePivotToLastPositionIP20ShadowCasterSortDatai26ShadowCasterSortDataSorterEEvT_S4_T0_T1_
NFb:__Z18Transfer_BlittableI14SafeBinaryReadLb1EiEvRK29SerializationCommandArgumentsR31RuntimeSerializationCommandInfo
qra:__ZN17PersistentManager13GetAllFileIDsERKN4core12basic_stringIcNS0_20StringStorageDefaultIcEEEER13dynamic_arrayIxLj8EE
vMh:__Z72RuntimeInvoker_Il2CppObject_IntPtr_t_Int32_t2071877448_Int32_t2071877448PK10MethodInfoPvPS2_
ZDe:_ReadOnlyCollection_1_GetEnumerator_m713393110_gshared
Qjg:_ProxyAttribute_GetPropertiesForNewContext_m3587421540
ced:_Array_LastIndexOf_m4096535198
Mjd:_ArrayList_Add_m1719188324
WAd:_Double_System_IConvertible_ToSByte_m1653690240_AdjustorThunk
Ak:_glGetStringi
iWg:_GUIStyleState_t3801000545_marshal_pinvoke
Ymg:_ObjectManager_AddFixup_m4148241867
BEd:_CultureInfo_set_NumberFormat_m1618950525
Sub:__ZN18StreamedBinaryReadILb0EE21TransferSTLStyleArrayI13dynamic_arrayI8Vector4fLj4EEEEvRT_17TransferMetaFlags
Quf:_X509Store__ctor_m1573680316
dvf:_X509Chain_get_CertificateCollection_m324631835
amh:_EqualityComparer_1__cctor_m1011898363_gshared
EKd:_AnimationTriggers__ctor_m2623627182
B1d:_Array_InternalArray__IndexOf_TisClientCertificateType_t4001384466_m1168139450_gshared
D_h:__Z49RuntimeInvoker_Int32_t2071877448_Link_t2723257478PK10MethodInfoPvPS2_
lIg:_FieldBuilder_get_Name_m2243491233
UTa:__ZN9Coroutine16SetCurrentMethodE18ScriptingMethodPtr
ps:__ZN8Animator9WriteStepEv
ntb:__ZNSt3__23mapIN4core12basic_stringIcNS1_20StringStorageDefaultIcEEEE9PrefValueNS_4lessIS5_EENS_9allocatorINS_4pairIKS5_S6_EEEEEixERSB_
Fjc:__ZN15DirectorManager22ConstructPlayableGraphEv
cW:__ZN13ScreenManager16SetScreenTimeoutEi
IJb:__Z18Transfer_BlittableI17RemapPPtrTransferLb0EdEvRK29SerializationCommandArgumentsR31RuntimeSerializationCommandInfo
t3c:_SymmetricAlgorithm_set_IV_m4262655606
cah:_StencilMaterial__cctor_m2963056855
Cnh:_EqualityComparer_1_System_Collections_IEqualityComparer_Equals_m315020809_gshared
pFg:_CustomAttributeNamedArgument_GetHashCode_m3715408876_AdjustorThunk
VMc:__Z38Register_UnityEngine_Font_HasCharacterv
iuf:_X509Certificate2_AppendBuffer_m3517242299
W1a:__Z35IntersectSpherePlaneBoundsOptimizedRKN4math7_float4EPS1_i
xEd:_CultureInfo_get_IsNeutralCulture_m3874876470
zzd:_Delegate_CreateDelegate_m3813023227
RKh:__Z46RuntimeInvoker_WellKnownObjectMode_t2630225581PK10MethodInfoPvPS2_
Zti:_Uri_get_AbsoluteUri_m2120317928
Rnj:__ZN6il2cpp2os5posix15PosixWaitObject13InterruptWaitEv
GNd:_ColorTween_TweenValue_m3279916815
UFd:_BaseInputModule_IsModuleSupported_m4272494372
g7:__Z22CleanupLODGroupManagerPv
F3d:_Array_InternalArray__ICollection_Add_TisContentType_t1028629049_m2984242302_gshared
Zmc:__Z21Event_CUSTOM_PopEventP12Il2CppObject
lkj:__ZN6il2cpp8metadata15GenericMetadata20RegisterGenericClassEP18Il2CppGenericClass
il:_glUniform3fv
eAb:__ZNSt3__218__insertion_sort_3IRN15ResourceManager10Dependency6SorterEPS2_EEvT0_S6_T_
vee:_Enumerator_System_Collections_IEnumerator_Reset_m3796537546_AdjustorThunk
sMc:_UNITY_FT_Init_Class_tt_service_gx_multi_masters
Vvh:_InternalEnumerator_1_System_Collections_IEnumerator_Reset_m3249248421_AdjustorThunk
MZe:_IntComparer_Compare_m3057931085
FYa:__ZNK16LightmapSettings31GetRealtimeLightmapDecodeValuesEv
sL:__ZN5audio5mixer12SetSuspendedERNS0_16AudioMixerMemoryEb
Zma:__ZN17PersistentManager21UnloadNonDirtyStreamsEv
MFh:__Z78RuntimeInvoker_Int32_t2071877448_DecimalU26_t1613489971_DecimalU26_t1613489971PK10MethodInfoPvPS2_
ohj:__ZN6il2cpp2vm13LivenessStateC2EP11Il2CppClassjPFvPP12Il2CppObjectiPvES7_PFvvESB_
rWh:__Z41RuntimeInvoker_ColorTweenMode_t1328781136PK10MethodInfoPvPS2_
hSa:__ZN12ImageFilters4BlitER17ShaderPassContextP7TextureP13RenderTextureiPK18SharedMaterialDataPKcP6ShaderiNS_9BlitFlagsE11CubemapFaceRK8Vector2fSH_
ysf:_Oid__ctor_m1936781897
m_g:_Object_INTERNAL_CALL_Internal_InstantiateSingleWithParent_m1401308849
_hi:_ResourceSet__ctor_m1222864106
RBg:_UIntPtr_op_Explicit_m1113914169
Ire:_Collection_1_System_Collections_IList_get_Item_m3376056117_gshared
lDh:__Z44RuntimeInvoker_Int64_t909078037_Il2CppObjectPK10MethodInfoPvPS2_
Fl:_emscripten_glDepthMask
$Gd:__ZN23InterfaceActionInvoker1IP28PointerEventData_t1599784723E6InvokeEjP11Il2CppClassP12Il2CppObjectS1_
Xzf:__ZL76UInt16_t986882611_CustomAttributesCacheGenerator_UInt16_TryParse_m1818885113P21CustomAttributesCache
uee:_Enumerator_VerifyState_m3639069574_gshared
GBa:__ZN4crnd25static_huffman_data_model22prepare_decoder_tablesEv
gre:_Enumerator_MoveNext_m689054299_gshared
Q7d:_Array_Sort_TisIl2CppObject_TisIl2CppObject_m1915706600_gshared
Cbf:_ModulusRing_Difference_m662924064
wvh:_InternalEnumerator_1_MoveNext_m1869236997_gshared
iMd:_CanvasUpdateRegistry_ObjectValidForUpdate_m855695984
YUd:_InputField_set_onValueChanged_m2406388125
h1f:__ZL123AnimatorControllerPlayable_t4078305555_CustomAttributesCacheGenerator_AnimatorControllerPlayable_Play_m2286317581____layer1P21CustomAttributesCache
cBe:_ReadOnlyCollection_1_System_Collections_ICollection_get_SyncRoot_m2702046016_gshared
eZ:__ZL22CleanupUnityWebStreamsPv
E$f:__ZL92AudioSource_t1135106623_CustomAttributesCacheGenerator_AudioSource_Play_m889724421____delay0P21CustomAttributesCache
cQb:__Z18Transfer_BlittableI18StreamedBinaryReadILb0EELb0E10ColorRGBAfEvRK29SerializationCommandArgumentsR31RuntimeSerializationCommandInfo
_of:_ListDictionary_Add_m4276262662
I7:__Znaj
T0c:_RIPEMD160Managed_GGG_m1639995340
gQj:_emscripten_glEnableClientState__wrapper
rZ:__ZN17MessageIdentifierC2EPKcNS_7OptionsEPKN5Unity4TypeES1_
pE:__Z76AnimatorControllerPlayable_CUSTOM_INTERNAL_CALL_CrossFadeInFixedTimeInternalR9HPlayableifif
Odh:_Enumerator_System_Collections_IEnumerator_get_Current_m1648049763_gshared
uzj:__ZN6il2cpp6icalls8mscorlib4Mono8Security12Cryptography18KeyPairPersistence15_ProtectMachineEP12Il2CppString
P_d:_Enumerable_Any_TisIl2CppObject_m2208185096_gshared
kIh:__Z57RuntimeInvoker_DSAParameters_t1872138834_SByte_t454417549PK10MethodInfoPvPS2_
Aib:__ZN11GameManager15ThreadedCleanupEv
lne:_List_1__ctor_m1337392449_gshared
Xcd:_Array_System_Collections_IList_Remove_m2438892375
FWe:_TextWriter__ctor_m2225796097
Zki:__ZN21InterfaceFuncInvoker0IP24StringU5BU5D_t1642385972E6InvokeEjP11Il2CppClassP12Il2CppObject
xdb:__ZN14SafeBinaryRead8TransferI14ConstantStringEEvRT_PKc17TransferMetaFlags
NSg:_ScriptableObject_Internal_CreateScriptableObject_m1778903390
Aea:__ZNK6Camera16GetStereoEnabledEv
j1b:__ZN12LightManager15InitializeClassEv
Afa:__ZN9ShaderLab11shaderprops16GetComputeBufferEPK19ShaderPropertySheetS3_NS_16FastPropertyNameE
B3:__ZN23ManagedAttributeManager35CallManagedGetDefaultExecutionOrderE17ScriptingClassPtr
P9b:__ZN18ScriptingArgumentsC2Ev
dxg:_TimeZone_IsDaylightSavingTime_m875882154
pph:_ArrayReadOnlyList_1_Insert_m503707439_gshared
DLj:_emscripten_glBlendFuncSeparate__wrapper
bGh:__Z52RuntimeInvoker_Single_t2076509932_Decimal_t724701077PK10MethodInfoPvPS2_
rgf:_CipherSuiteCollection_System_Collections_IList_set_Item_m750275607
BTa:__ZNK25CameraStackRenderingState27GetStereoImageEffectTextureEb
b2c:_SHA1CryptoServiceProvider__ctor_m3127563759
Kp:__ZN8Vector3f8TransferI14SafeBinaryReadEEvRT_
sgg:__ZL103BaseVertexEffect_t2504093552_CustomAttributesCacheGenerator_BaseVertexEffect_ModifyVertices_m3446986347P21CustomAttributesCache
uo:FUNCTION_TABLE_ii
Ceh:_Enumerator_MoveNext_m335649778_AdjustorThunk
iT:__ZNSt3__26__treeINS_12__value_typeIN4core12basic_stringIcNS2_20StringStorageDefaultIcEEEES6_EENS_19__map_value_compareIS6_S7_NS_4lessIS6_EELb1EEENS_9allocatorIS7_EEE16__construct_nodeERKNS_4pairIKS6_S6_EE
Brc:__Z18Transfer_BlittableI9JSONWriteLb0E8BitFieldEvRK29SerializationCommandArgumentsR31RuntimeSerializationCommandInfo
zAg:_UInt32_ToString_m3894907091_AdjustorThunk
TFi:_Predicate_1__ctor_m2863314033_gshared
bKj:b44
rEd:_CultureInfo_get_TextInfo_m1582311326
TVg:_GUIStyle_get_contentOffset_m1904924583
Ach:_ShimEnumerator_get_Key_m616785465_gshared
J5e:_SmallXmlParser_Error_m1832158746
cyf:_RepeatContext_get_IsLazy_m1620488045
zk:_glDeleteVertexArrays
P9a:__Z24CreateDirectoryRecursiveRKN4core12basic_stringIcNS_20StringStorageDefaultIcEEEE
YJj:b41
pVb:__ZN9ShaderLab20SerializedSubProgram8TransferI18StreamedBinaryReadILb0EEEEvRT_
fWe:_StreamAsyncResult_get_AsyncWaitHandle_m4218169359
V4f:__ZL89GUIStyle_t1799908754_CustomAttributesCacheGenerator_GUIStyle_get_stretchWidth_m1223411161P21CustomAttributesCache
mlc:__Z22MonoGUIContentToNative18ScriptingObjectPtrR10GUIContent
F0a:__Z9EndJobSetR8JobFence11JobPriority
Ekf:_TlsServerSettings_set_SignedParams_m1826385315
xNc:__ZN2UI13CanvasManager9AddCanvasEPNS_6CanvasE
aqa:__ZN9Texture3D8TransferI19StreamedBinaryWriteILb0EEEEvRT_
PUa:__ZNK6Camera22CalculateRenderingPathEv
Rsc:__ZN9JSONWrite8TransferI5RectTIfEEEvRT_PKc17TransferMetaFlags
au:__ZN11UnityEngine9Animation37SetGenericRootTransformPropertyValuesERKNS0_30AnimatorGenericBindingConstantERKN7mecanim10ValueArrayER9Transformbb
yfi:_AnimatorControllerPlayable_INTERNAL_CALL_GetCurrentAnimatorClipInfoInternal_m3542665271
Xef:_ContentInfo_get_Content_m1802070908
MJb:__ZL12InvokeMethodI17RemapPPtrTransferEvRK29SerializationCommandArgumentsR31RuntimeSerializationCommandInfo
f9e:_X509Certificate_get_PublicKey_m714501701
dXd:_U3CMouseDragOutsideRectU3Ec__Iterator1_System_Collections_IEnumerator_get_Current_m561728752
LEc:_tt_sbit_decoder_load_image
r9c:_String_LastIndexOf_m290475879
T0d:__ZN21InterfaceFuncInvoker1Ii22UILineInfo_t3621277874E6InvokeEjP11Il2CppClassP12Il2CppObjectS0_
ZTd:_Image_get_layoutPriority_m2151045813
Ldj:__ZN15dense_hashtableINSt3__24pairIK10KeyWrapperIP11Il2CppClassES4_EES5_N6il2cpp8metadata16SZArrayClassHashEN14dense_hash_mapIS5_S4_SA_NS5_14EqualsComparerINS9_19SZArrayClassCompareEEENS0_9allocatorIS7_EEE9SelectKeyESE_SG_EC2EjRKSA_RKSE_RKSI_
fOf:__ZL58ManualResetEvent_t926074657_CustomAttributesCacheGeneratorP21CustomAttributesCache
PYh:__Z71RuntimeInvoker_Void_t1841601450_CornerU26_t4129226442_Int32_t2071877448PK10MethodInfoPvPS2_
vXe:_TextReader_Read_m975794707
Elc:__ZNSt3__24listIN10GUIManager12SortedScriptE11memory_poolIS2_EE6__sortI13OldSortScriptEENS_15__list_iteratorIS2_PvEESA_SA_jRT_
JAg:_UInt64_System_IConvertible_ToChar_m1930853313_AdjustorThunk
vjf:_TlsClientCertificate_SendCertificates_m1096074091
CKd:_UIBehaviour_OnCanvasHierarchyChanged_m762109874
Ood:_SyncHashtable_get_Item_m408601391
HLf:__ZL45DSA_t903174880_CustomAttributesCacheGeneratorP21CustomAttributesCache
fDe:_ReadOnlyCollection_1_System_Collections_IEnumerable_GetEnumerator_m1401363518_gshared
bdb:__ZNK9Behaviour26GetTypeInfoVirtualInternalEv
mre:_Stack_1_System_Collections_ICollection_CopyTo_m2104527616_gshared
Trg:_StringBuilder_AppendFormat_m1666670800
Y_a:__ZN18DeferredRenderLoop13RenderGBufferEP13RenderTexturePS1_b8JobFencePK25DeferredRenderLoopScratchRi
tJb:__Z18Transfer_BlittableI17RemapPPtrTransferLb1E8BitFieldEvRK29SerializationCommandArgumentsR31RuntimeSerializationCommandInfo
xfj:__ZN6il2cpp6icalls8mscorlib6System9ThreadingL11ThreadStartEPv
y$:__ZN15DirectorManager12OnSampleTimeEv
xFe:_ReadOnlyCollection_1_System_Collections_IList_Remove_m3878418841_gshared
bVd:_InputField_EnforceContentType_m1902926812
$z:__ZN8Animator13ClearBindingsEv
Zda:__ZN12CachedReader10Align4ReadEv
Wti:_Uri_op_Equality_m110355127
tAe:_Collection_1_CopyTo_m42272870_gshared
Sgj:__ZN6il2cpp2vm9Exception28GetMarshalDirectiveExceptionEPKc
R_e:_MulticastDelegate_GetObjectData_m3187757658
JLd:_CanvasScaler_set_referencePixelsPerUnit_m1188599784
kIe:_Comparison_1_EndInvoke_m179917407_gshared
V_b:__ZNK28MonoBehaviourPropertyBinding12SetPPtrValueERKN11UnityEngine9Animation10BoundCurveEi
cWa:__Z21GetScriptingArraySize17ScriptingArrayPtr
jyc:__ZN20TextRenderingPrivate8FontImpl8TransferI14SafeBinaryReadEEvRT_
nYh:__Z59RuntimeInvoker_Boolean_t3825574718_KeyValuePair_2_t38854645PK10MethodInfoPvPS2_
sri:__ZN23InterfaceActionInvoker1IP19LinkRef_t2090853131E6InvokeEjP11Il2CppClassP12Il2CppObjectS1_
aia:__Z35UnityPropertySheet_MakeSortedColorsRKNSt3__23mapIN9ShaderLab16FastPropertyNameE10ColorRGBAfNS_4lessIS2_EENS_9allocatorINS_4pairIKS2_S3_EEEEEER10vector_mapIS2_S3_S5_NS6_INS7_IS2_S3_EEEEE
YUg:_GUIStyle_Draw_m4006459684
qwa:__ZN9GfxDevice17ImmediateTexCoordEifff
gqi:_Parser_ParseRegularExpression_m2390577313
pGc:_ft_black_new
Bed:_Array_double_swapper_m1175307080
dXf:__ZL102GameObject_t1756533147_CustomAttributesCacheGenerator_GameObject_Internal_CreateGameObject_m3428198595P21CustomAttributesCache
pri:_Alternation_AddAlternative_m623421443
Fvf:_X509CertificateEnumerator_System_Collections_IEnumerator_Reset_m327358896
H2h:__Z36RuntimeInvoker_Enumerator_t402048720PK10MethodInfoPvPS2_
B5c:_Hash__ctor_m2554411450
nKe:_NumberFormatter_AppendDigits_m1308372770
pgb:__ZN17FileSystemHandler4CopyER13FileEntryDataS1_
i7c:_Single_System_IConvertible_ToDateTime_m2510003459_AdjustorThunk
Szd:_Delegate_RemoveImpl_m3666700529
zJj:_emscripten_glUniform4f__wrapper
spf:_NameObjectCollectionBase_OnDeserialization_m3478980442
n5h:_AnimatorControllerParameter_get_name_m1366583724
PUd:_InputField_set_caretColor_m2252440840
TA:__ZN8Animator8TransferI19StreamedBinaryWriteILb0EEEEvRT_
yXa:__ZNK6Camera16GetProjectionFarEv
$3a:__Z24InverseTransformRotationRK23TransformAccessReadOnlyRKN4math7_float4E
aNf:__ZL68SecurityCriticalAttribute_t2312050089_CustomAttributesCacheGeneratorP21CustomAttributesCache
PYe:_MissingFieldException__ctor_m1161042282
N1d:_Array_InternalArray__IndexOf_TisSlot_t2267560602_m1912863273_gshared
zYc:__Z31GetPerformanceReportingSettingsv
gqa:__ZN7Texture34CreateFileTextureUploadInstructionE18TextureUploadFlagsj
bzi:_StateMachineBehaviour_OnStateExit_m1490844990
ewa:__ZN9GfxDevice21ResetDynamicResourcesEv
YRa:__ZN13ComputeShader14SetBufferParamEjRKN9ShaderLab16FastPropertyNameE15ComputeBufferID
Hzj:__ZN6il2cpp2os9FastMutex4LockEv
IIe:_Comparison_1_EndInvoke_m4174686984_gshared
Mng:_StreamingContext__ctor_m3063421596_AdjustorThunk
kFe:_ReadOnlyCollection_1_System_Collections_Generic_IListU3CTU3E_Insert_m3054305464_gshared
y_b:__ZN19LowerResBlitTexture13ApplySettingsEv
XAf:__ZL70IntPtr_t_CustomAttributesCacheGenerator_IntPtr_op_Explicit_m3896766622P21CustomAttributesCache
KA:__ZN8Animator8TransferI14SafeBinaryReadEEvRT_
vdj:__ZN15dense_hashtableINSt3__24pairIK10KeyWrapperIP11Il2CppClassES4_EES5_N6il2cpp8metadata16SZArrayClassHashEN14dense_hash_mapIS5_S4_SA_NS5_14EqualsComparerINS9_19SZArrayClassCompareEEENS0_9allocatorIS7_EEE9SelectKeyESE_SG_E4swapERSJ_
Nhb:__ZN17GlobalGameManager23VirtualRedirectTransferER18StreamedBinaryReadILb0EE
c2d:_Array_InternalArray__IndexOf_TisTypeTag_t141209596_m2882894956_gshared
o9g:_Slider_get_value_m4182660424
i5:__Z23AsyncReadForceCloseFileRKN4core12basic_stringIcNS_20StringStorageDefaultIcEEEE
Zw:__ZN17AnimationPlayable34CollectAnimatorControllerPlayablesER13dynamic_arrayIP26AnimatorControllerPlayableLj4EE
dP:__ZN16BaseVideoTexture19UpdateVideoTexturesEv
plb:__Z28BuildSingleStreamChannelInfo17ShaderChannelMaskRK20VertexChannelsLayoutS_S2_P11ChannelInfo
Eoa:__ZNK16LightmapSettings23HasLightProbeTetrahedraEv
Iif:_Context_get_WriteSequenceNumber_m243492531
vtb:__ZN6Sprite23VirtualRedirectTransferER19StreamedBinaryWriteILb0EE
QGf:__ZL51Assembly_t4268412390_CustomAttributesCacheGeneratorP21CustomAttributesCache
j9c:_String_LastIndexOfAny_m1473637802
sah:_Text_get_resizeTextMaxSize_m2671487437
Bje:_List_1_System_Collections_ICollection_CopyTo_m3062449209_gshared
W6i:__ZNK15dense_hashtableINSt3__24pairIK10KeyWrapperINS1_IPK9FieldInfoP11Il2CppClassEEEjEES9_17ReflectionMapHashIS8_EN14dense_hash_mapIS9_jSD_NS9_14EqualsComparerINS0_8equal_toIS8_EEEENS0_9allocatorISB_EEE9SelectKeyESI_SK_E5beginEv
Sfa:__ZNK9ShaderLab7Program19HasMatchingVariantsERK13dynamic_arrayI16ShaderKeywordSetLj4EE
ht:__ZN15SerializeTraitsIN4math4trsXEE8TransferI8BlobSizeEEvRS1_RT_
Fza:__ZN14DataBufferGLES11CopySubDataEPKS_jjj
he:_emscripten_glVertexPointer
VIa:__ZNSt3__26__treeI20DeviceDepthStateGLES11memcmp_lessIS1_S1_ENS_9allocatorIS1_EEE7destroyEPNS_11__tree_nodeIS1_PvEE
lPc:__ZN2UI13PrepareOutputERNS_7BatchesEjjNS_30AdditionalCanvasShaderChannelsE
Ohe:_List_1_System_Collections_Generic_ICollectionU3CTU3E_get_IsReadOnly_m1614481629_gshared
d0i:__ZN6il2cpp2vm7Runtime47RaiseExecutionEngineExceptionIfMethodIsNotFoundEPK10MethodInfo
F_a:__Z17GetFrustumPortionPK8Vector3fffPS_
YBg:_UnauthorizedAccessException__ctor_m259001183
xij:__ZN15dense_hashtableINSt3__24pairIK10KeyWrapperIP14Il2CppIUnknownEjEES5_N6il2cpp5utils11PointerHashIS3_EEN14dense_hash_mapIS5_jSB_NS5_14EqualsComparerINS0_8equal_toIS4_EEEENS0_9allocatorIS7_EEE9SelectKeyESG_SI_E14squash_deletedEv
Hlb:__ZN5Light13AwakeFromLoadE17AwakeFromLoadMode
JAi:_TouchScreenKeyboard_set_text_m3456054179
fF:__Z96Register_UnityEngine_Experimental_Director_AnimatorControllerPlayable_INTERNAL_CALL_PlayInternalv
DOd:_DefaultControls_CreateDropdown_m1384069408
yId:_PointerEventData_get_clickCount_m4064532478
HDe:_ReadOnlyCollection_1_System_Collections_Generic_ICollectionU3CTU3E_get_IsReadOnly_m3508872969_gshared
GCd:_EventArgs__cctor_m1350395667
a0g:_Rect_get_position_m24550734_AdjustorThunk
EIi:_UnityEvent_1_GetDelegate_m4062537313_gshared
kDd:_CCGregorianCalendar_is_leap_year_m567513478
dtf:_Oid_get_Value_m2271181078
afd:_Attribute_IsDefined_m2118467641
oSa:__ZN14GraphicsHelper8DrawQuadER9GfxDevice17ShaderChannelMaskbRK5RectTIfE
fHd:_ExecuteEvents_Execute_m898902863
sqh:_InternalEnumerator_1_System_Collections_IEnumerator_get_Current_m3125080595_gshared
Vxe:_Collection_1_System_Collections_IList_Add_m2091889616_gshared
w5b:__ZN16StreamedResource8TransferI24GenerateTypeTreeTransferEEvRT_
ZPd:_DropdownItem_OnPointerEnter_m761897861
Soj:__GLOBAL__sub_I_Thread_cpp_40775
bTh:__Z75RuntimeInvoker_Int32_t2071877448_PlayableHandleU26_t3483893774_Il2CppObjectPK10MethodInfoPvPS2_
_Fa:__ZN10Matrix3x3f15InvertTransposeEv
WZd:_Array_InternalArray__ICollection_Remove_TisKeyValuePair_2_t1174980068_m2768765894_gshared
jBb:__ZN24GenerateTypeTreeTransfer8TransferINSt3__26vectorIN4core12basic_stringIcNS3_20StringStorageDefaultIcEEEE13stl_allocatorIS7_L18MemLabelIdentifier12ELi16EEEEEEvRT_PKc17TransferMetaFlags
Dve:_Collection_1_set_Item_m2199807215_gshared
$Wf:__ZL96GameObject_t1756533147_CustomAttributesCacheGenerator_GameObject_SendMessage_m71956653____value1P21CustomAttributesCache
EIb:__Z29Transfer_Blittable_ArrayFieldI14SafeBinaryRead8Vector3fEvRT_R9ArrayInfoRK23StaticTransferFieldInfo
Lzg:_UInt32_System_IConvertible_ToBoolean_m91295134
qug:_Monitor_Monitor_test_synchronised_m1542589500
TWf:__ZL85GameObject_t1756533147_CustomAttributesCacheGenerator_GameObject_get_layer_m725607808P21CustomAttributesCache
H6f:__ZL68RuntimePlatform_t1869584967_CustomAttributesCacheGenerator_WP8PlayerP21CustomAttributesCache
dzc:__ZN20TextRenderingPrivate8FontImpl18ResetCachedTextureEv
qAf:__ZL75String_t_CustomAttributesCacheGenerator_String_Concat_m626692867____values0P21CustomAttributesCache
aXf:__ZL98GameObject_t1756533147_CustomAttributesCacheGenerator_GameObject_SendMessage_m71956653____options2P21CustomAttributesCache
E7e:_SymmetricTransform_TransformFinalBlock_m4192185386
MMe:_TextInfo__ctor_m1263401274
BCg:_Version_get_Major_m3385239713
BZi:_ListPool_1_Release_m3047738410_gshared
HAi:_TouchScreenKeyboard_Open_m913506328
Huj:_GC_print_finalization_stats
wif:_Context_get_SecurityProtocolFlags_m3295551796
ffh:_ValueCollection__ctor_m927733289_gshared
Jea:__ZN11NamedObject15ThreadedCleanupEv
d6h:_LowMemoryCallback__ctor_m4181659636
cwh:_InternalEnumerator_1__ctor_m2981879621_AdjustorThunk
Rbc:__Z53Register_UnityEngine_Behaviour_get_isActiveAndEnabledv
irf:_IPAddress_ToString_m267966740
knh:_EqualityComparer_1__ctor_m3971803374_gshared
oq:__ZNSt3__26vectorIN4core12basic_stringIcNS1_20StringStorageDefaultIcEEEENS_9allocatorIS5_EEE8__appendEj
q3i:_il2cpp_gc_collect
Dzb:__ZN26PlayerSettingsSplashScreen8TransferI17RemapPPtrTransferEEvRT_
Pyc:__ZN20TextRenderingPrivate8FontImpl8TransferI17RemapPPtrTransferEEvRT_
Vth:_InternalEnumerator_1_get_Current_m3922357178_gshared
Q0i:__ZN6il2cpp6icalls8mscorlib6SystemL17CollectTypeFieldsINS_5utils10functional10TrueFilterEEEvP11Il2CppClassPKS7_iRNSt3__26vectorIP9FieldInfoNSB_9allocatorISE_EEEERKT_
gbg:__ZL72ColorBlock_t2652774230_CustomAttributesCacheGenerator_m_HighlightedColorP21CustomAttributesCache
vxg:_Type_get_IsValueType_m1733572463
ATg:_GUISkin_get_horizontalScrollbarThumb_m4062590908
dZb:__Z13GetTagManagerv
hrh:_InternalEnumerator_1_Dispose_m1748410190_AdjustorThunk
lJh:__Z127RuntimeInvoker_Void_t1841601450_IntPtr_t_Int32_t2071877448_SByte_t454417549_Int32_t2071877448_SByte_t454417549_SByte_t454417549PK10MethodInfoPvPS2_
w_d:_Array_InternalArray__ICollection_Remove_TisUInt16_t986882611_m65494986_gshared
_De:_ReadOnlyCollection_1_IndexOf_m3054637117_gshared
$t:__ZN11UnityEngine9Animation37HasGenericRootTransformPropertyValuesERKNS0_30AnimatorGenericBindingConstantEb
fQ:__ZN11UnityEngine15CloudWebService17CloudJobSchedulerD0Ev
e8c:_String_System_IConvertible_ToBoolean_m2696751322
gna:__ZN18LoadSceneOperation7PerformEv
rRg:_GUILayer_INTERNAL_CALL_HitTest_m693512502
mG:__ZL16FMOD_ErrorString11FMOD_RESULT_468
m9c:_String_LastIndexOfAny_m4281325295
N7h:_Camera_get_pixelRect_m2084185953
ME:__Z113Register_UnityEngine_Experimental_Director_AnimatorControllerPlayable_INTERNAL_CALL_GetAnimatorControllerInternalv
Ylc:__Z21CleanupGlobalGUIStatev
Zvg:_TimeSpan__ctor_m1888018443_AdjustorThunk
Jod:_SyncHashtable_get_Count_m3694444082
i5i:__ZNSt3__26vectorINS_12basic_stringIcNS_11char_traitsIcEENS_9allocatorIcEEEENS4_IS6_EEE8allocateEj
tHa:__ZN22VertexDeclarationCache5ClearEv
$Oj:_emscripten_glUniform2i__wrapper
N7a:__ZN17PersistentManager12SetPathRemapERKN4core12basic_stringIcNS0_20StringStorageDefaultIcEEEES6_
j0a:__ZN6Camera24PrepareCullingParametersERK23CameraCullingParameters13RenderingPathR11CullResults
sna:__ZN19RuntimeSceneManager22EndIntegrateMainThreadEP10UnitySceneNS_11LoadingModeE
JMf:__ZL84Evidence_t1407710183_CustomAttributesCacheGenerator_Evidence_GetHashCode_m1260371757P21CustomAttributesCache
RDe:_ReadOnlyCollection_1_System_Collections_ICollection_get_IsSynchronized_m2344337514_gshared
OJb:__Z26Transfer_UnityEngineObjectI17RemapPPtrTransferLb0EEvRK29SerializationCommandArgumentsR31RuntimeSerializationCommandInfo
t9c:_String_IsNullOrEmpty_m2802126737
Nhd:_Byte_Parse_m1442736478
IQe:_Int64_Parse_m3258022240
d9c:_String_IndexOfOrdinal_m3591623977
nAi:_Texture2D_get_whiteTexture_m1979591766
Lpg:_CryptoConfig_EncodeLongNumber_m2352037787
ayg:_Type_GetMethod_m475234662
Q7c:_Single_GetHashCode_m3102305584
PBe:_ReadOnlyCollection_1_get_Count_m2562379905_gshared
Jji:_ActivationServices_get_ConstructionActivator_m1726426854
LLb:__Z29Transfer_Blittable_ArrayFieldI24GenerateTypeTreeTransfer4AABBEvRT_R9ArrayInfoRK23StaticTransferFieldInfo
lMi:_Hacker_RunMainMenu_m908116088
lPf:__ZL76Convert_t2607082565_CustomAttributesCacheGenerator_Convert_ToChar_m245844937P21CustomAttributesCache
GOf:__ZL52Activator_t1850728717_CustomAttributesCacheGeneratorP21CustomAttributesCache
Jvj:_GC_adj_bytes_allocd
T9g:_SpriteState_t1353336012_marshal_pinvoke_cleanup
B3d:_Array_InternalArray__ICollection_Add_TisKeyframe_t1449471340_m887263954_gshared
JBi:_UIVertex__cctor_m803910084
_4d:_Array_InternalArray__Insert_TisDateTime_t693205669_m1484996356_gshared
Hje:_List_1_System_Collections_IList_Remove_m3933652540_gshared
hkh:_DefaultComparer_GetHashCode_m926674183_gshared
sVe:_MonoIO_get_ConsoleInput_m2976499023
BKg:_OpCode_get_Size_m481593949_AdjustorThunk
dmd:_BitArrayEnumerator_checkVersion_m3839504595
qdd:_Array_GetUpperBound_m1352329707
gOa:__ZZ23InitPlayerLoopCallbacksvEN36UpdateScriptRunBehaviourUpdatestruct7ForwardEv
U9d:_Mesh_SetListForChannel_TisIl2CppObject_m2261448912_gshared
EPh:__Z61RuntimeInvoker_Void_t1841601450_Byte_t3683104436_Il2CppObjectPK10MethodInfoPvPS2_
Q8c:_String_TrimEnd_m3153143011
nxd:_DateTimeOffset_Equals_m3728302791_AdjustorThunk
jWg:_GUIStyleState_t3801000545_marshal_pinvoke_back
q_a:__ZN20SphericalHarmonicsL219AddDirectionalLightERKN4math7_float3ERKNS0_7_float4E
Wwg:_TimeSpan_op_GreaterThanOrEqual_m3997050520
cQf:__ZL77Convert_t2607082565_CustomAttributesCacheGenerator_Convert_ToUInt16_m36213644P21CustomAttributesCache
n$:__Z26ScheduleJobForEachInternalR8JobFencePFvPvjES1_iPFvS1_E11JobPriority
otf:_OidEnumerator_MoveNext_m1889267785
l8b:__ZN9Scripting18RaiseMonoExceptionEPKcz
gqb:__ZN9Texture2D8TransferI19StreamedBinaryWriteILb0EEEEvRT_
GCb:__ZN24RingBufferMemoryFileData6UnlockEPv
dTg:_GUISkin_set_box_m877476512
aQd:_OptionData__ctor_m3070653720
qZi:_TweenRunner_1_StartTween_m3792842064_gshared
I1b:__ZN9ShaderLab16FastPropertyName15InitBy28BitHashEj
q7c:_Single_System_IConvertible_ToInt32_m3269519527_AdjustorThunk
lOi:__ZN6il2cpp2vm5Class7GetNameEP11Il2CppClass
h2c:_SHA1Internal_ProcessBlock_m4070037334
Fpa:__ZN17PersistentManager17IsObjectAvailableEi
rxj:__ZN6il2cpp6icalls8mscorlib6System10Reflection14MonoMethodInfo15get_method_infoE12Il2CppIntPtrP16Il2CppMethodInfo
BXf:__ZL87RectOffset_t3387826427_CustomAttributesCacheGenerator_RectOffset_get_bottom_m4112328858P21CustomAttributesCache
a6d:_Array_InternalArray__set_Item_TisDouble_t4078015681_m24756265_gshared
mjg:_ObjRef_GetObjectData_m3081609242
b$b:__ZN13ProduceHelperIN2UI13RectTransformELb0EE7ProduceE18MemLabelIdentifier18ObjectCreationMode
yvb:__ZN17PackedFloatVector12UnpackFloatsEPfiiii
rNf:__ZL113EncoderReplacementFallback_t4228544112_CustomAttributesCacheGenerator_EncoderReplacementFallback__ctor_m517300448P21CustomAttributesCache
nBe:_ReadOnlyCollection_1__ctor_m3671019970_gshared
zv:__ZN17AnimationPlayable28UpdateInternalStateRecursiveILi3ELb0EEEvPK35AnimationPlayableEvaluationConstant
jxa:__ZN13GfxDeviceGLES21DestroyComputeProgramER12ObjectHandleI18ComputeProgram_TagPvE
tsd:_Convert_ToDecimal_m2007036836
j7:__ZN17UniqueIDGenerator16DestroyPureIndexEj
N3:__ZL21AppendNestedClassName17ScriptingClassPtrRN4core17string_with_labelILi1EEE
jTb:__ZN14SafeBinaryRead21TransferSTLStyleArrayINSt3__26vectorIN9ShaderLab20SerializedSubProgram12UAVParameterENS1_9allocatorIS5_EEEEEEvRT_17TransferMetaFlags
Qli:_Context_NotifyDynamicSinks_m1367144344
VU:__ZNK13BaseAllocator10IsAssignedEv
oR:__ZN24TextDOMTransferWriteBaseI9JSONWriteE12PushMetaFlagEi
kDh:__Z45RuntimeInvoker_Int16_t4041245914_Il2CppObjectPK10MethodInfoPvPS2_
jhf:_TlsClientCertificateVerify__ctor_m110646389
xla:__ZN6prcoreL26RemapGenericIntegerToFloatI17TexFormatARGB888815TexFormatRFloatEEvPKNS_9InnerInfoE
LU:__ZN5Mutex6UnlockEv
Zli:_Context_GetServerContextSinkChain_m390126977
X4i:__ZN6il2cpp2vm17TypeNameParseInfoD2Ev
W7d:_Array_Sort_TisIl2CppObject_m143182644_gshared
G4f:__ZL89GUIStyle_t1799908754_CustomAttributesCacheGenerator_GUIStyle_set_imagePosition_m327170707P21CustomAttributesCache
_We:_StringReader_Read_m513112775
Qrb:__ZNK8Renderer8GetLayerEv
Cre:_Collection_1_System_Collections_IList_Insert_m266942173_gshared
nkb:__ZN12FlareManager11DeleteFlareEi
fte:_Collection_1_Add_m2613548553_gshared
Uz:__ZN7mecanim9animation22DestroyBlendTreeOutputEPNS0_15BlendTreeOutputERNS_6memory9AllocatorE
LWa:__ZNK6Camera20GetReplacementShaderEv
eLj:_glProgramBinary__wrapper
Zxd:_Decimal__ctor_m569480123_AdjustorThunk
GLa:__ZN12HandlerChain11MoveToTrashER13FileEntryData
Bqf:_HttpWebRequest__cctor_m3013631978
Ryj:__ZNSt3__26__treeINS_12__value_typeINS_12basic_stringIcNS_11char_traitsIcEENS_9allocatorIcEEEEPFvvEEENS_19__map_value_compareIS7_SA_NS_4lessIS7_EELb1EEENS5_ISA_EEE4findIS7_EENS_15__tree_iteratorISA_PNS_11__tree_nodeISA_PvEEiEERKT_
rTb:__ZNSt3__26vectorIN9ShaderLab20SerializedSubProgram14ConstantBufferENS_9allocatorIS3_EEE7reserveEj
mpa:__ZL23stbir__calculate_memoryP11stbir__info
yQh:__Z90RuntimeInvoker_Boolean_t3825574718_Int32_t2071877448_Int32U26_t455636984_Int32_t2071877448PK10MethodInfoPvPS2_
o8i:__ZNK15dense_hashtableINSt3__24pairIK10KeyWrapperINS1_IPK10MethodInfoP11Il2CppClassEEEjEES9_17ReflectionMapHashIS8_EN14dense_hash_mapIS9_jSD_NS9_14EqualsComparerINS0_8equal_toIS8_EEEENS0_9allocatorISB_EEE9SelectKeyESI_SK_E12test_deletedERK24dense_hashtable_iteratorISB_S9_SD_SM_SI_SK_E
zFf:__ZL90BinaryReader_t2491843768_CustomAttributesCacheGenerator_BinaryReader_ReadSByte_m1712621355P21CustomAttributesCache
e6g:_Scrollbar_FindSelectableOnRight_m3219495255
EAb:__ZNK30RuntimeInitializeOnLoadManager26GetTypeInfoVirtualInternalEv
ONc:__ZNSt3__227__insertion_sort_incompleteIRPFbPN2UI6CanvasES3_EPS3_EEbT0_S8_T_
Vvc:__ZNK9rapidjson12GenericValueINS_4UTF8IcEE13JSONAllocatorE6AcceptINS_12PrettyWriterI16TempBufferWriterS2_S2_S3_EEEEbRT_
sVh:__Z55RuntimeInvoker_AnalyticsResult_t3037633135_Il2CppObjectPK10MethodInfoPvPS2_
K4d:_Array_InternalArray__ICollection_CopyTo_TisVector3_t2243707580_m509487340_gshared
Mpc:__Z59Register_UnityEngine_GUIUtility_Internal_GetKeyboardControlv
Nff:_CipherSuite_get_KeyBlockSize_m2993514247
KE:__Z82AnimatorControllerPlayable_CUSTOM_INTERNAL_CALL_IsParameterControlledByCurveStringR9HPlayableP12Il2CppString
Ztc:__ZL26Transfer_SimpleNativeClassI8JSONRead10RectOffsetLb1EEvRK29SerializationCommandArgumentsR31RuntimeSerializationCommandInfo
WQc:__Z44CanvasRenderer_CUSTOM_INTERNAL_CALL_SetColorP12Il2CppObjectRK10ColorRGBAf
iuj:_GC_should_collect
Xji:_UrlAttribute_Equals_m1587451932
oqj:__ZNSt3__26__treeINS_12basic_stringIcNS_11char_traitsIcEENS_9allocatorIcEEEENS_4lessIS6_EENS4_IS6_EEE12__find_equalIS6_EERPNS_16__tree_node_baseIPvEESG_RKT_
orc:__Z18Transfer_BlittableI9JSONWriteLb1EsEvRK29SerializationCommandArgumentsR31RuntimeSerializationCommandInfo
fUc:__Z48UnityAnalyticsHandler_CUSTOM_SendCustomEventNameP12Il2CppObjectP12Il2CppString
Nqg:_DSAParameters_t1872138834_marshal_pinvoke_cleanup
Lea:__ZN6ObjectD2Ev
Eac:__ZN9Transform16SetLocalRotationERK11Quaternionf
mrd:_DateTime_Parse_m1628430317
RQa:__ZN13RenderManager37RenderCamerasWithScriptableRenderLoopEi
f4e:_ASN1_Element_m2600236165
IY:__GLOBAL__sub_I_runtime_graphics5_lump_cpp
x8:__ZN23InstancedPropInfoStaticL16RegisterCallbackEPv
m2h:__Z37RuntimeInvoker_Enumerator_t2983962278PK10MethodInfoPvPS2_
rt:__ZN7mecanim8skeleton25SkeletonPoseComputeLocalQEPKNS0_8SkeletonEPKNS0_13SkeletonPoseTIN4math4trsXEEEPS7_ii
ooi:_MethodCall_Init_m3987198685
qlj:__ZN6il2cpp2os19ReleaseSocketHandleEj
LDf:__ZL128SafeHandleZeroOrMinusOneIsInvalid_t1177681199_CustomAttributesCacheGenerator_SafeHandleZeroOrMinusOneIsInvalid__ctor_m3340306667P21CustomAttributesCache
Brj:__ZN15dense_hashtableINSt3__24pairIK10KeyWrapperIPK19Il2CppGenericMethodEP10MethodInfoEES6_N6il2cpp8metadata23Il2CppGenericMethodHashEN14dense_hash_mapIS6_S9_SD_NS6_14EqualsComparerINSC_26Il2CppGenericMethodCompareEEENS0_9allocatorISA_EEE9SelectKeyESH_SJ_E5clearEv
UKg:_TypeBuilder_GetPropertyImpl_m1854119335
uGg:_TypeBuilder_get_next_table_index_m1415870184
aGj:___cxa_can_catch
ncf:_SequentialSearchPrimeGeneratorBase_GenerateNewPrime_m296245934
Sid:_Char_GetUnicodeCategory_m4273361321
pYh:__Z68RuntimeInvoker_Boolean_t3825574718_Il2CppObject_ObjectU26_t597476745PK10MethodInfoPvPS2_
dXa:__ZN6Camera28DefaultPerformRenderFunctionD0Ev
DYe:_Math_Round_m565516458
Hli:_Identity_get_ClientDynamicProperties_m767245959
qqh:_InternalEnumerator_1__ctor_m675130983_AdjustorThunk
kgh:_Dictionary_2_Clear_m899854001_gshared
Knj:__ZN6il2cpp2os5posix15PosixWaitObjectC2ENS2_4TypeE
gCb:__Z23AppendPathNameExtensionRKN4core12basic_stringIcNS_20StringStorageDefaultIcEEEES5_
z2f:__ZL83Canvas_t209405766_CustomAttributesCacheGenerator_Canvas_get_scaleFactor_m1115379735P21CustomAttributesCache
LKg:_TypeBuilder_create_generic_class_m986834171
uLj:_emscripten_glVertexPointer__wrapper
wsa:__ZN23ShaderVariantCollection13WarmupShadersEv
vif:_Context_set_ProtocolNegotiated_m1177527245
vfi:_AnimatorControllerPlayable_INTERNAL_CALL_GetAnimatorTransitionInfoInternal_m2259454958
Pzg:_UInt32_System_IConvertible_ToChar_m1056040486
u3:__Z25GetCommonScriptingClassesv
cof:_TlsStream_get_Length_m1562309511
Ina:__Z27scripting_gc_collect_unsafei
OO:__ZN11AudioModule20SuspendVideoTexturesEv
gmd:_CaseInsensitiveComparer__ctor_m1125492797
e1b:__ZN12CubemapArrayC2E18MemLabelIdentifier18ObjectCreationMode
Tqd:_Convert_ToByte_m395020137
iLb:__Z26Transfer_UnityEngineObjectI24GenerateTypeTreeTransferLb0EEvRK29SerializationCommandArgumentsR31RuntimeSerializationCommandInfo
FJc:_UNITY_FT_GlyphLoader_CheckPoints
sme:_List_1_System_Collections_ICollection_CopyTo_m1995866425_gshared
Zpj:__ZN6il2cpp2vm6Method11GetFullNameEPK10MethodInfo
NXe:_TextWriter_WriteLine_m1754475888
jkb:__ZN15SharedLightData7PrecalcEv
roa:__ZN10Matrix4x4fmLERKS_
xGi:_InvokableCall_1_Invoke_m769918017_gshared
Mp:__ZN4PPtrI9TransformE8TransferI18StreamedBinaryReadILb0EEEEvRT_
Bae:_Array_InternalArray__get_Item_TisDouble_t4078015681_m2215331088_gshared
PMf:__ZL57PrincipalPolicy_t289802916_CustomAttributesCacheGeneratorP21CustomAttributesCache
Xdb:__ZN19StreamedBinaryWriteILb0EE19TransferSTLStyleMapINSt3__28multimapIN4core12basic_stringIcNS4_20StringStorageDefaultIcEEEEN11AssetBundle9AssetInfoENS2_4lessIS8_EENS2_9allocatorINS2_4pairIKS8_SA_EEEEEEEEvRT_17TransferMetaFlags
Nwe:_Collection_1_ClearItems_m3446813399_gshared
cgh:_Dictionary_2_Init_m3666073812_gshared
Kne:_List_1_AsReadOnly_m1681105545_gshared
JMa:__ZN15ArchiveReadFileD0Ev
x7e:_SymmetricTransform_TransformBlock_m1524716432
s8:__ZN18ConcurrentFreeListI28FileTextureUploadInstructionE7CleanUpEv
J0d:_Array_compare_TisColor32_t874517518_m3842009370_gshared
xVc:__ZN11UnityEngine15PlatformWrapper18GetOperatingSystemEv
ACa:__ZNSt3__26vectorIP14DataBufferGLESNS_9allocatorIS2_EEE21__push_back_slow_pathIKS2_EEvRT_
eyh:_InternalEnumerator_1__ctor_m2458691472_AdjustorThunk
rGe:_ReadOnlyCollection_1_System_Collections_Generic_ICollectionU3CTU3E_Remove_m974176789_gshared
wzd:_Delegate_return_type_match_m4278947849
DWd:_InputField_GenerateHightlight_m1346735465
yti:_Uri_ParseNoExceptions_m1151989845
kqd:_GC_SuppressFinalize_m953228702
BJc:_FT_MSB
Ymf:_InternalAsyncResult_get_ProceedAfterHandshake_m552962842
RVg:_GUIStyle_get_clipping_m2754700641
bNh:__Z50RuntimeInvoker_SByte_t454417549_Double_t4078015681PK10MethodInfoPvPS2_
d4f:__ZL72GUISkin_t1436893342_CustomAttributesCacheGenerator_m_verticalSliderThumbP21CustomAttributesCache
V2b:__ZZL23RegisterLightPropertiesR22GenericPropertyBindingEN29Wrapper_LightShadowNormalBias13GetFloatValueEPv
szj:__ZN6il2cpp6icalls8mscorlib4Mono8Security12Cryptography18KeyPairPersistence10_CanSecureEP12Il2CppString
_5f:__ZL96CustomEventData_t1269126727_CustomAttributesCacheGenerator_CustomEventData_AddUInt16_m3349298376P21CustomAttributesCache
eoh:_Action_1_Invoke_m4180501989_gshared
Y8g:_Slider__ctor_m3124136916
Rzh:_DefaultComparer__ctor_m3180706193_gshared
loe:_List_1_System_Collections_Generic_IEnumerableU3CTU3E_GetEnumerator_m3625278020_gshared
Yta:__ZN13GfxDeviceGLES14SetRasterStateEPK17DeviceRasterState
Oya:__ZNK13TranslateGLES11BlendFactorE9BlendMode
LGb:__Z30TransferField_LinearCollectionI14SafeBinaryReadEvRK29SerializationCommandArgumentsR31RuntimeSerializationCommandInfo
$sf:_OidCollection_Add_m3712419303
yBi:_Transform_InverseTransformPoint_m2648491174
Rhf:_TlsServerHello__ctor_m3032108168
qda:__ZN14SafeBinaryRead11EndTransferEv
tGf:__ZL98ILGenerator_t99948092_CustomAttributesCacheGenerator_ILGenerator_Mono_GetCurrentOffset_m3553856682P21CustomAttributesCache
vU:__ZNK3WWW12GetAudioClipEv
_Gb:__ZN14SafeBinaryRead8TransferI8MonoPPtrEEvRT_PKc17TransferMetaFlags
qih:_Dictionary_2_System_Collections_Generic_ICollectionU3CSystem_Collections_Generic_KeyValuePairU3CTKeyU2CTValueU3EU3E_Remove_m1705959559_gshared
fNa:__ZN24dense_hashtable_iteratorINSt3__24pairIKN4core12basic_stringIcNS2_20StringStorageDefaultIcEEEEP20ArchiveStorageReaderEES6_20StringHash32FunctionIS6_EN14dense_hash_mapIS6_S9_SC_NS0_8equal_toIS6_EE13stl_allocatorISA_L18MemLabelIdentifier54ELi16EEE9SelectKeyESF_SI_EppEv
Oxh:_InternalEnumerator_1_System_Collections_IEnumerator_get_Current_m1533037706_gshared
WYf:__ZL111MonoBehaviour_t1158329972_CustomAttributesCacheGenerator_MonoBehaviour_StartCoroutine_Auto_Internal_m1014513456P21CustomAttributesCache
IFa:__ZN21UniformBufferTFMethod13MapBoneBufferEj
Hlf:_RecordProtocol_SendChangeCipherSpec_m3542001341
K6d:_Array_InternalArray__set_Item_TisVector3_t2243707580_m1390667454_gshared
ilc:__ZN12GUIClipState10BeginOnGUIER10InputEvent
Vfj:__ZNSt3__26vectorIcNS_9allocatorIcEEEC2Ej
u5e:_KeyPairPersistence_CanSecure_m2251009700
JNa:__ZZ23InitPlayerLoopCallbacksvEN27FixedUpdateClearLinesstruct7ForwardEv
jDb:__ZN9TextAsset15ThreadedCleanupEv
gig:_ReturnMessage_get_Properties_m531965085
vIg:_GenericTypeParameterBuilder_IsSubclassOf_m563999142
XCd:_Exception_ToString_m627574695
Kzc:__ZNSt3__26vectorIN20TextRenderingPrivate8FontImpl7IntRectE13stl_allocatorIS3_L18MemLabelIdentifier34ELi16EEE21__push_back_slow_pathIKS3_EEvRT_
o$:__Z21CompleteFenceInternalR8JobFence
Tmc:__Z30Event_Get_Custom_PropModifiersP12Il2CppObject
Z6i:__ZN30dense_hashtable_const_iteratorINSt3__24pairIK10KeyWrapperINS1_IPK9FieldInfoP11Il2CppClassEEEjEES9_17ReflectionMapHashIS8_EN14dense_hash_mapIS9_jSD_NS9_14EqualsComparerINS0_8equal_toIS8_EEEENS0_9allocatorISB_EEE9SelectKeyESI_SK_E30advance_past_empty_and_deletedEv
Iih:_Dictionary_2_ContainsValue_m2375979648_gshared
lx:__ZN7mecanim9animation16CreateClipOutputEPKNS0_4ClipERNS_6memory9AllocatorE
iu:__ZN7mecanim9animation23ClearAnimationNodeStateEPNS0_18AnimationNodeStateEb
$4d:_Array_InternalArray__Insert_TisDecimal_t724701077_m1429254816_gshared
MZi:_ListPool_1_Get_m2998644518_gshared
cRb:__ZN18StreamedBinaryReadILb0EE21TransferSTLStyleArrayI13dynamic_arrayIyLj8EEEEvRT_17TransferMetaFlags
KBa:__ZN18AsyncUploadManager17DoScaledPaddedJobEP28FileTextureUploadInstruction
asa:__ZNSt3__218__stable_sort_moveIRN10vector_mapI17ScriptingClassPtrPKN5Unity4TypeENS_4lessIS2_EENS_9allocatorINS_4pairIS2_S6_EEEEE13value_compareENS_11__wrap_iterIPSB_EEEEvT0_SJ_T_NS_15iterator_traitsISJ_E15difference_typeEPNSM_10value_typeE
dSb:__ZN6Shader21AwakeFromLoadThreadedEv
yka:__ZN6prcoreL17RemapGenericFloatI17TexFormatRGBFloat17TexFormatRGBAHalfEEvPKNS_9InnerInfoE
Gcg:__ZL70InputField_t1631627530_CustomAttributesCacheGenerator_m_CharacterLimitP21CustomAttributesCache
ape:_List_1_get_Capacity_m2443158653_gshared
Gvc:__ZN8JSONRead21TransferSTLStyleArrayI13dynamic_arrayI8Vector2fLj4EEEEvRT_18MemLabelIdentifier17TransferMetaFlags
wXg:_LayerMask_op_Implicit_m2135076047
UZc:__ZN13RuntimeStaticINSt3__26vectorIjNS0_9allocatorIjEEEELb0EE16StaticInitializeEPv
TYc:__ZN13UploadHandler10OnSentDataEj
wAj:__ZN6il2cpp2os9SemaphoreC2Eii
oqh:_InternalEnumerator_1_get_Current_m2960188445_AdjustorThunk
aHb:__ZNSt3__26vectorI8MonoPPtr13stl_allocatorIS1_L18MemLabelIdentifier1ELi16EEE8__appendEj
xah:_Text_set_alignByGeometry_m1514652028
oVa:__ZN14qsort_internal30FindAndMovePivotToLastPositionIP17RODataReplacementi19ROSorterReplacementEEvT_S4_T0_T1_
TFa:__ZN15UniformTFMethod20IsBoneCountSupportedEi
j_g:_Object_Internal_InstantiateSingle_m2776302597
k4c:_X509Certificate_GetExpirationDateString_m2351894475
STe:_FileStream_get_Position_m465478322
vVi:__ZN14dense_hash_setI10KeyWrapperIPK19Il2CppGenericMethodEN6il2cpp8metadata23Il2CppGenericMethodHashENS4_14EqualsComparerINS6_26Il2CppGenericMethodCompareEEENSt3__29allocatorIS4_EEEC2EjRKS7_RKSA_
SHj:dynCall_viidi
d5d:_Array_InternalArray__Insert_TisInt64_t909078037_m3039874636_gshared
agd:_Convert_ToInt16_m1787678274
hbh:_ToggleGroup_NotifyToggleOn_m997426227
Rlf:_RSASslSignatureDeformatter_SetKey_m1150106904
r3f:__ZL74Event_t3028476042_CustomAttributesCacheGenerator_Event_Cleanup_m1195902101P21CustomAttributesCache
B_:__ZN24ScriptingMethodFiltering17FilterOnSignatureENS_18MethodSearchFilterE
NFg:_TypeBuilder_get_Module_m1668298460
Q5g:_Scrollbar_ClickRepeat_m3403943364
eO:__ZN13ProduceHelperI9AudioClipLb0EE7ProduceE18MemLabelIdentifier18ObjectCreationMode
_V:__ZN18ScreenManagerWebGL13SetLockCursorE14CursorLockMode
ZIc:_cf2_arrstack_finalize
h_e:_MonoType_GetMethodsByName_m1854415088
XLi:_DisplayBuffer_CutViewport_m34694897
DGg:_DerivedType_GetMethods_m165266904
c7e:_RSAManaged_EncryptValue_m4089823119
O_b:__ZN13MonoBehaviour19HandleNotificationsEPviR11MessageData
ZAj:__ZN6il2cpp2os9EventImpl5ResetEv
wjh:_DefaultComparer_GetHashCode_m926363525_gshared
zUg:_GUIStyle_set_focused_m1547304893
Q6g:_ScrollRect_get_verticalScrollbar_m2455612493
zVh:__Z69RuntimeInvoker_Void_t1841601450_Int32_t2071877448_HitInfo_t1761367055PK10MethodInfoPvPS2_
Oea:__ZNK11NamedObject26GetTypeInfoVirtualInternalEv
GUe:_ReadDelegate_Invoke_m2091885836
MHg:_TypeBuilder_GetField_m2112455315
HKj:b58
IKj:b59
zKj:b52
CKj:b53
nKj:b50
IWh:__Z51RuntimeInvoker_Vector4_t2243707581_SByte_t454417549PK10MethodInfoPvPS2_
FKj:b56
GKj:b57
DKj:b54
EKj:b55
_2e:_Kernel_Multiply_m3585610531
off:_CertificateSelectionCallback_EndInvoke_m3525317639
DL:__ZN4PPtrI15AudioMixerGroupE8TransferI18StreamedBinaryReadILb0EEEEvRT_
eFh:__Z67RuntimeInvoker_Void_t1841601450_Int32_t2071877448_Int16_t4041245914PK10MethodInfoPvPS2_
uvd:_DateTime__ctor_m3604679583_AdjustorThunk
L_f:__ZL96Transform_t3275118058_CustomAttributesCacheGenerator_Transform_INTERNAL_get_position_m1881704498P21CustomAttributesCache
W5f:__ZL94CustomEventData_t1269126727_CustomAttributesCacheGenerator_CustomEventData_AddChar_m1103619816P21CustomAttributesCache
Hed:_SimpleEnumerator_Reset_m1341779532
s5i:__ZNSt3__214__split_bufferINS_12basic_stringIcNS_11char_traitsIcEENS_9allocatorIcEEEERNS4_IS6_EEEC2EjjS8_
r6e:_MACAlgorithm_Core_m2390605245
axh:_InternalEnumerator_1_System_Collections_IEnumerator_get_Current_m30488070_gshared
HZb:__ZN10GameObject12CleanupClassEv
Jth:_InternalEnumerator_1_System_Collections_IEnumerator_Reset_m2624612805_AdjustorThunk
KCf:__ZL108ArrayReadOnlyList_1_t3367196019_CustomAttributesCacheGenerator_ArrayReadOnlyList_1_GetEnumerator_m3031680693P21CustomAttributesCache
Jmb:__ZN15SerializeTraitsI13dynamic_arrayI11TetrahedronLj4EEE19ResizeSTLStyleArrayERS2_i18MemLabelIdentifier
Bua:__ZN9GfxDevice25SetShaderPropertiesSharedERK19ShaderPropertySheet
jJi:_IndexedSet_1_GetEnumerator_m3646001838_gshared
RCb:__ZN10MonoScript17MainThreadCleanupEv
YAa:__ZN18AsyncUploadManager19AsyncResourceUploadER9GfxDeviceii9TextureID
k4g:_VertexHelper_AddUIVertexTriangleStream_m4009409241
xAh:_Comparer_1__ctor_m844571340_gshared
q2b:__ZL25InitializeDefaultMaterialv
Ngb:__ZN21ArchiveStorageCreatorD2Ev
Qvg:_WaitHandle_Dispose_m441403862
jKa:__ZN19FileAccessorHandlerD2Ev
fBh:_Comparer_1__ctor_m2941434245_gshared
Lbh:_VertexHelper_AddVert_m3290455716
sMf:__ZL56SHA256Managed_t2029745292_CustomAttributesCacheGeneratorP21CustomAttributesCache
pGf:__ZL126GenericTypeParameterBuilder_t1370236603_CustomAttributesCacheGenerator_GenericTypeParameterBuilder_MakeGenericType_m2955814622P21CustomAttributesCache
nra:__ZN17PersistentManager12UnloadStreamERKN4core12basic_stringIcNS0_20StringStorageDefaultIcEEEEb
RV:__ZN13ScreenManager17RequestResolutionEiibi
gqg:_DESTransform__ctor_m4096028381
B3i:_il2cpp_unity_liveness_calculation_from_statics
qvg:_Scheduler_get_Instance_m1989471839
sRh:__Z61RuntimeInvoker_Void_t1841601450_CullingGroupEvent_t1057617917PK10MethodInfoPvPS2_
ssf:_WebRequest_System_Runtime_Serialization_ISerializable_GetObjectData_m3377822910
nsb:__ZN8Renderer8TransferI17RemapPPtrTransferEEvRT_
cwe:_Collection_1_Contains_m1299140035_gshared
BKj:_glBlitFramebuffer__wrapper
ace:_ExecuteEvents_ExecuteHierarchy_TisIl2CppObject_m2541874163_gshared
G3d:_Array_InternalArray__ICollection_Add_TisUICharInfo_t3056636800_m968274080_gshared
UZi:_ObjectPool_1__ctor_m1532275833_gshared
Axa:__ZN13GfxDeviceGLES19SetSinglePassStereoE16SinglePassStereo
QAf:__ZL64IntPtr_t_CustomAttributesCacheGenerator_IntPtr__ctor_m3803259710P21CustomAttributesCache
Qne:_List_1_GetIndex_m3262928832_gshared
p2h:__Z88RuntimeInvoker_Boolean_t3825574718_DateTimeOffset_t1362988906_DateTimeOffset_t1362988906PK10MethodInfoPvPS2_
H3a:__Z24LookRotationToQuaternionRK8Vector3fS1_P11Quaternionf
F3a:__ZN16ReflectionProbes9GetCameraEv
sWb:__ZL18IsGpuProgramUsable20ShaderGpuProgramTypePK6Shader
Gaf:_ArgumentException__ctor_m2105824819
XPc:__ZN2UI6Canvas17SetSortingLayerIDEi
kLd:_BaseMeshEffect_get_graphic_m3358796463
Hnj:__ZN6il2cpp2vm11MethodStack23CleanupForCurrentThreadEv
uTi:__ZL25UnresolvedVirtualCall_238P12Il2CppObject19Vector4_t2243707581PK10MethodInfo
gFi:_Predicate_1_Invoke_m695569038_gshared
wce:_Enumerator_VerifyState_m825848279_AdjustorThunk
Skb:__ZN20TierGraphicsSettings8TransferI24GenerateTypeTreeTransferEEvRT_
u4h:_UnityAnalyticsHandler_t3238795095_marshal_pinvoke_back
wIb:__ZN14SafeBinaryRead21TransferSTLStyleArrayI13dynamic_arrayI4AABBLj4EEEEvRT_17TransferMetaFlags
Xha:__ZN18UnityPropertySheet8TransferI19StreamedBinaryWriteILb0EEEEvRT_
dkf:_TlsServerCertificate_checkServerIdentity_m3836435780
j9:__ZNSt3__26__treeINS_12__value_typeIiN11TypeManager18TypeCallbackStructEEENS_19__map_value_compareIiS4_NS_4lessIiEELb1EEENS_9allocatorIS4_EEE7destroyEPNS_11__tree_nodeIS4_PvEE
e8e:_PKCS12_Decrypt_m2353135969
Rci:_PersistentCallGroup_Initialize_m3908067069
ZMg:_MonoEvent_ToString_m386956596
D6f:__ZL70RuntimePlatform_t1869584967_CustomAttributesCacheGenerator_FlashPlayerP21CustomAttributesCache
OCb:__ZN39AssetBundleLoadFromStreamAsyncOperationC2ERKN4core12basic_stringIcNS0_20StringStorageDefaultIcEEEE
HId:_PointerEventData_get_pointerPress_m880101744
Bea:__ZL19GetCameraTargetRectRK6Camerabb
Ych:_Transform_1_BeginInvoke_m1786442111_gshared
COe:_Int32_GetFormatException_m1729046182
B4a:__ZN13dynamic_arrayIN10GameObject13ComponentPairELj4EE6insertEPS1_RKS1_
Xre:_Collection_1_get_Count_m3834276648_gshared
bcb:__ZN21UnityDefaultAllocatorI17LowLevelAllocatorE10DeallocateEPv
yY:__GLOBAL__sub_I_runtime_camera2_lump_cpp
emb:__ZN15SharedLightData22UpdateCookieTextureRefEv
lr:__ZN15PackedIntVector8TransferI14SafeBinaryReadEEvRT_
wLg:_FieldInfo_get_IsLiteral_m267898096
jCa:__ZN17SharedTextureDataD0Ev
dnf:_SslStreamBase_EndNegotiateHandshake_m1732321201
idh:_Transform_1_BeginInvoke_m1167293475_gshared
GH:__ZN13AudioListener8DoUpdateEv
Pzf:__ZL71SByte_t454417549_CustomAttributesCacheGenerator_SByte_Parse_m1620039654P21CustomAttributesCache
Oqd:__Z13bankers_roundd
uzb:__ZN14SafeBinaryRead8TransferI5RectTIfEEEvRT_PKc17TransferMetaFlags
ri:_emscripten_glGenFramebuffers
Und:_Hashtable_CopyTo_m2778915805
e9:__ZN17BaseObjectManager16StaticInitializeEPv
TFg:_ConstructorBuilder_get_IsCompilerContext_m2796899803
WVf:__ZL97Component_t3819376471_CustomAttributesCacheGenerator_Component_GetComponentsInChildren_m843288020P21CustomAttributesCache
K1h:__Z37RuntimeInvoker_UICharInfo_t3056636800PK10MethodInfoPvPS2_
w1d:_Array_IndexOf_TisUIVertex_t1204258818_m613887160_gshared
xAb:__ZN18StreamedBinaryReadILb0EE19TransferSTLStyleMapINSt3__28multimapIN4core12basic_stringIcNS4_20StringStorageDefaultIcEEEE4PPtrI6ObjectENS2_4lessIS8_EE13stl_allocatorINS2_4pairIKS8_SB_EEL18MemLabelIdentifier51ELi16EEEEEEvRT_17TransferMetaFlags
hOd:_FloatTween_GetDuration_m1757342579_AdjustorThunk
nrd:_DateTime_CoreParse_m2014268103
sle:_List_1__ctor_m3698273726_gshared
edb:__ZN9Behaviour23VirtualRedirectTransferER17RemapPPtrTransfer
aTc:__ZN21UnityAnalyticsManager23VirtualRedirectTransferER19StreamedBinaryWriteILb0EE
Prc:__Z18Transfer_BlittableI9JSONWriteLb0EyEvRK29SerializationCommandArgumentsR31RuntimeSerializationCommandInfo
Hea:__ZN13RenderTexture15ThreadedCleanupEv
gZc:__ZNK20UnityWebRequestProtoI19TransportJavaScript16AtomicRefCounter14RedirectHelper14ResponseHelper15DownloadHandler13UploadHandler12HeaderHelper14AsyncOperationE19GetDownloadProgressEv
O6:__ZN15dense_hashtableINSt3__24pairIKiiEEi21InstanceIDHashFunctorN14dense_hash_mapIiiS4_NS0_8equal_toIiEE13stl_allocatorIS3_L18MemLabelIdentifier130ELi16EEE9SelectKeyES7_SA_E9copy_fromERKSD_j
Tob:__ZN12CubemapArray23VirtualRedirectTransferER14SafeBinaryRead
Npg:_CryptographicException__ctor_m1012314467
pec:__Z51Register_UnityEngine_QualitySettings_set_vSyncCountv
yGe:_ReadOnlyCollection_1_System_Collections_IList_Add_m616574295_gshared
DOe:_Int32_ProcessTrailingWhitespace_m2812079777
Qna:__ZN18ProceduralMaterial9ReloadAllEbb
Kgc:__Z43RectTransform_CUSTOM_INTERNAL_set_sizeDeltaP12Il2CppObjectRK13Vector2fIcall
gsf:_WebProxy__ctor_m3679722173
Hsh:_InternalEnumerator_1_Dispose_m2743309309_AdjustorThunk
Wlj:__ZN15dense_hashtableINSt3__24pairIK10KeyWrapperINS1_IPKcS4_EEEiEES6_24NamespaceAndNamePairHashN14dense_hash_mapIS6_iS9_NS6_14EqualsComparerI26NamespaceAndNamePairEqualsEENS0_9allocatorIS8_EEE9SelectKeyESD_SF_E6insertERKS8_
Mda:__ZN24GenerateTypeTreeTransfer18BeginArrayTransferEPKcS1_Ri17TransferMetaFlags
dBa:__Z16DecompressCrunchPKhRjR13TextureFormatiiii18MemLabelIdentifier
cqe:_List_1__ctor_m2082969060_gshared
jm:___syscall51
nm:___syscall54
Rmj:__ZNSt3__26__treeINS_12__value_typeIP24Il2CppReflectionAssemblyPvEENS_19__map_value_compareIS3_S5_NS_4lessIS3_EELb1EEENS_9allocatorIS5_EEE12__find_equalIS3_EERPNS_16__tree_node_baseIS4_EESH_RKT_
tDh:__Z107RuntimeInvoker_Boolean_t3825574718_SByte_t454417549_Il2CppObject_Int32_t2071877448_ExceptionU26_t1467204777PK10MethodInfoPvPS2_
NHi:_UnityAction_2_Invoke_m1994351568_gshared
y4h:_UnityAnalyticsHandler_Dispose_m1048126775
MMb:__Z18Transfer_BlittableI19StreamedBinaryWriteILb0EELb1EjEvRK29SerializationCommandArgumentsR31RuntimeSerializationCommandInfo
Zr:__ZNK8Animator20IsAnyRendererVisibleEv
_Qi:__ZL25UnresolvedVirtualCall_108P12Il2CppObjectS0_28StreamingContext_t1417235061PK10MethodInfo
GJc:_cff_builder_add_point1
$mj:__ZN6il2cpp2vm5Image21GetCachedResourceDataEPK11Il2CppImageRKNSt3__212basic_stringIcNS5_11char_traitsIcEENS5_9allocatorIcEEEE
WSd:_HorizontalOrVerticalLayoutGroup_set_childControlWidth_m4209477792
v3d:_Array_InternalArray__ICollection_Add_TisUInt32_t2149682021_m2629016323_gshared
_Fb:__Z18Transfer_BlittableI14SafeBinaryReadLb0E10ColorRGBAfEvRK29SerializationCommandArgumentsR31RuntimeSerializationCommandInfo
mCf:__ZL65Il2CppArray_CustomAttributesCacheGenerator_Array_Sort_m3002148658P21CustomAttributesCache
Aa:invoke_iiiiiiiiii
IN:__ZNK7Texture10GetVRUsageEv
hna:__ZN18LoadSceneOperation19IntegrateTimeSlicedEi
Bvg:_Scheduler_SchedulerThread_m2209572785
j1e:_SortKeyBuffer_GetResultAndReset_m2516956577
M9a:__ZN10FileSystem19SetCurrentDirectoryERKN4core12basic_stringIcNS0_20StringStorageDefaultIcEEEE
VZi:_ObjectPool_1_get_countAll_m4217365918_gshared
P3:__ZN16ScriptingManager24NotifyScriptCacheReleaseEi
mUf:__ZL85UriParser_t1012511323_CustomAttributesCacheGenerator_UriParser_OnRegister_m4010407891P21CustomAttributesCache
cGf:__ZL63UnmanagedMemoryStream_t822875729_CustomAttributesCacheGeneratorP21CustomAttributesCache
Ibc:__Z47Register_UnityEngine_Coroutine_ReleaseCoroutinev
sI:__ZN15AudioReverbZone13SetFMODValuesEv
_9h:_Component_GetComponentInChildren_m3925629424
$0:__ZL19StaticDestroyShaderPv
ce:_glRenderbufferStorageMultisample
Rig:_SoapTypeAttribute_get_XmlTypeName_m2546866572
Yz:__ZN23AnimationPlayableOutput17SetTargetAnimatorEP8Animator
jCe:_ReadOnlyCollection_1_System_Collections_IList_get_IsFixedSize_m158012227_gshared
Ywi:_X509Chain__ctor_m1113875360
JIb:__Z35Transfer_Blittable_SingleValueFieldI14SafeBinaryReadfEvRT_R17GeneralMonoObjectRK23StaticTransferFieldInfo
ykf:_TlsServerHello_processProtocol_m1241336522
DSf:__ZL79ModulusRing_t80355992_CustomAttributesCacheGenerator_ModulusRing_Pow_m661630322P21CustomAttributesCache
Vqh:_InternalEnumerator_1_System_Collections_IEnumerator_Reset_m324760031_AdjustorThunk
vmi:_ContextAttribute_IsContextOK_m3281216012
RVe:_PathTooLongException__ctor_m3212099251
NQj:_pthread_cond_broadcast__wrapper
Vmg:_ObjectManager_RaiseDeserializationEvent_m1611173032
ur:__ZN17PackedFloatVector8TransferI18StreamedBinaryReadILb0EEEEvRT_
qXf:__ZL88Screen_t786852042_CustomAttributesCacheGenerator_Screen_t786852042____width_PropertyInfoP21CustomAttributesCache
spb:__ZN7Cubemap23VirtualRedirectTransferER17RemapPPtrTransfer
MPa:_longest_match_fast
NPd:_DropdownItem_get_image_m2752143412
eQi:__ZL24UnresolvedVirtualCall_60P12Il2CppObjectaPK10MethodInfo
n6b:__ZN22BlockMemoryCacheWriter11GetPathNameEv
mRd:_Graphic_Rebuild_m2617722358
LIf:__ZL86SafeHandle_t2733794115_CustomAttributesCacheGenerator_SafeHandle_SetHandle_m1980208835P21CustomAttributesCache
AGi:_InvokableCall_1__ctor_m563785030_gshared
Uwd:_DateTime_ToString_m3108726445_AdjustorThunk
sQ:__ZN19CloudServiceHandlerD2Ev
c6a:__ZN13dynamic_arrayIN23ReflectionProbesContext23ReflectionProbeCubeInfoELj4EE18resize_initializedEjRKS1_12ResizePolicy
lae:_Array_InternalArray__get_Item_TisTableRange_t2011406615_m602485977_gshared
wWd:_InputField_Append_m2623574152
TE:__Z116Register_UnityEngine_Experimental_Director_AnimatorControllerPlayable_INTERNAL_CALL_GetNextAnimatorStateInfoInternalv
zaf:_ApplicationException__ctor_m1120437222
DNg:_MonoMethod__ctor_m4091684020
_o:stackAlloc
acc:__Z44Camera_CUSTOM_INTERNAL_CALL_ScreenPointToRayP12Il2CppObjectRK8Vector3fR3Ray
UKa:__ZN25SingleBlockMemoryFileData4LockEPPv
OLa:__ZN12HandlerChain5TouchER13FileEntryData
TJg:_MethodBuilder_GetHashCode_m1713271764
eji:_Marshal__cctor_m802981325
cse:_Collection_1_IsSynchronized_m1319022347_gshared
t0e:_MSCompatUnicodeTable_GetResource_m3816716847
ldc:__Z32RectOffset_Get_Custom_PropBottomP12Il2CppObject
qNh:__Z49RuntimeInvoker_UInt16_t986882611_Int64_t909078037PK10MethodInfoPvPS2_
Fdd:_Array_CreateInstance_m15016505
BZf:__ZL103DataUtility_t4181890362_CustomAttributesCacheGenerator_DataUtility_INTERNAL_CALL_GetPadding_m1621366113P21CustomAttributesCache
WHb:__ZNSt3__26vectorI17AnimationCurveTplIfE13stl_allocatorIS2_L18MemLabelIdentifier1ELi16EEE6assignINS_11__wrap_iterIPS2_EEEENS_9enable_ifIXaasr21__is_forward_iteratorIT_EE5valuesr16is_constructibleIS2_NS_15iterator_traitsISC_E9referenceEEE5valueEvE4typeESC_SC_
dDj:_stat
Si:_JS_Eval_ClearTimeout
u4d:_Array_InternalArray__ICollection_CopyTo_TisUInt16_t986882611_m3228377237_gshared
age:_List_1_Add_m4157722533_gshared
pdg:__ZL68Navigation_t1571958496_CustomAttributesCacheGenerator_m_SelectOnDownP21CustomAttributesCache
B7h:_Bounds_op_Inequality_m2315096783
Msa:__ZNSt3__218__insertion_sort_3IRNS_4lessIN22BuiltinResourceManager8ResourceEEEPS3_EEvT0_S7_T_
uai:_Component_BroadcastMessage_m1308086896
T$c:_RC2_set_KeySize_m2015782960
la:invoke_iiiiiiiiiiii
Lxe:_Collection_1_SetItem_m3715941382_gshared
HLe:_NumberFormatInfo_get_CurrencyGroupSeparator_m2480433019
U7e:_StrongName_get_PublicKey_m3777577320
RUf:__ZL120AssetBundleCreateRequest_t1038783543_CustomAttributesCacheGenerator_AssetBundleCreateRequest_get_assetBundle_m2931245245P21CustomAttributesCache
tii:_RuntimeCompatibilityAttribute__ctor_m1331212510
cec:__Z43Register_UnityEngine_GameObject_SendMessagev
F6:__ZNSt3__26__treeINS_12__value_typeIN4core12basic_stringIcNS2_20StringStorageDefaultIcEEEES6_EENS_19__map_value_compareIS6_S7_NS_4lessIS6_EELb1EEE13stl_allocatorIS7_L18MemLabelIdentifier12ELi16EEE7destroyEPNS_11__tree_nodeIS7_PvEE
LNi:__ZN6il2cpp2vm17SetupFieldsLockedEP11Il2CppClassRKNS_2os12FastAutoLockE
NL:__ZN11AudioSourceD0Ev
X8h:_CanvasRenderer_set_hasPopInstruction_m1388844875
Hhe:_List_1_System_Collections_ICollection_CopyTo_m1530390632_gshared
qze:_Collection_1_System_Collections_IEnumerable_GetEnumerator_m1452790461_gshared
tsh:_InternalEnumerator_1_System_Collections_IEnumerator_Reset_m3194282029_AdjustorThunk
mab:__ZN16MemoryFileSystem4NameEv
Uje:__ZN21InterfaceFuncInvoker0I18Color32_t874517518E6InvokeEjP11Il2CppClassP12Il2CppObject
_Fd:_BaseRaycaster_OnEnable_m3641767070
Xpe:_List_1_ToArray_m2810936944_gshared
lJe:_Func_2_BeginInvoke_m669892004_gshared
icf:_PrimeGeneratorBase_get_PrimalityTest_m308005118
zBf:__ZL71Enum_t2459695545_CustomAttributesCacheGenerator_Enum_Format_m2294492821P21CustomAttributesCache
AVg:_GUIStyle_Internal_CalcSize_m1309259680
umc:__ZNK8GUIStyle8CalcSizeER10GUIContent
nhe:_List_1_CheckIndex_m2328469916_gshared
Aqe:_List_1_AddRange_m3345533268_gshared
DAc:_UNITY_FT_New_Size
f9b:__Z42ScriptingGetComponentsOfTypeFromGameObjectRK26ScriptingGetComponentsArgs
Zqe:_List_1_get_Item_m3157283227_gshared
B0d:__ZN21InterfaceFuncInvoker2Ii38CustomAttributeNamedArgument_t94157543S0_E6InvokeEjP11Il2CppClassP12Il2CppObjectS0_S0_
iHi:_InvokableCall_4_Invoke_m1555001411_gshared
sud:_Convert_ToString_m2915777777
yia:__ZNSt3__27__sort4IRPFbRKNS_4pairIN9ShaderLab16FastPropertyNameEN18UnityPropertySheet11UnityTexEnvEEES8_EPS6_EEjT0_SD_SD_SD_T_
VIc:_cf2_hintmap_build
eTh:__Z92RuntimeInvoker_AnimatorStateInfo_t2577870592_PlayableHandleU26_t3483893774_Int32_t2071877448PK10MethodInfoPvPS2_
JGc:_Line_Up
Q_e:_MonoType_GetGenericTypeDefinition_m2363776160
KHf:__ZL62ParameterAttributes_t1266705348_CustomAttributesCacheGeneratorP21CustomAttributesCache
Fif:_Context_set_SentConnectionEnd_m2641458842
je:_emscripten_glBufferSubData
Qgd:_Buffer_BlockCopyInternal_m2627156229
HJb:__Z18Transfer_BlittableI17RemapPPtrTransferLb1EyEvRK29SerializationCommandArgumentsR31RuntimeSerializationCommandInfo
fRd:_Graphic_set_material_m329335629
JFd:_ExecuteEvents_get_pointerExitHandler_m3250605428
Eja:__ZN6prcoreL12RemapGenericI15TexFormatRGB88817TexFormatARGB8888EEvPKNS_9InnerInfoE
mD:__Z17CalculateGlobalRS23TransformAccessReadOnly
rmg:__ZN21InterfaceFuncInvoker1IP12Il2CppObject28StreamingContext_t1417235061E6InvokeEjP11Il2CppClassS1_S2_
U7h:_Camera_ScreenPointToRay_m614889538
U2e:_Kernel_multiByteDivide_m735279869
_hh:_Dictionary_2_ToTValue_m542772656_gshared
NXc:__ZN23UnityPurchasingSettings10InitializeER6Object
$ug:_Thread_GetNewManagedId_internal_m3211695465
VPa:_unity_z_deflateReset
vQg:_SkinChangedDelegate_Invoke_m2801964040
LAa:__ZN17GenericDynamicVBO17DrawChunkInternalERK21DynamicVBOChunkHandle17ShaderChannelMaskS3_P17VertexDeclarationP16DrawBuffersRangeij
SZc:__ZN13RuntimeStaticINSt3__26vectorIN5physx25PxVehicleWheelQueryResultENS0_9allocatorIS3_EEEELb0EE16StaticInitializeEPv
SRb:__ZN22MemoryCacherReadBlocks14LockCacheBlockEjPPhS1_
Rfd:_Boolean_System_IConvertible_ToChar_m2637404801_AdjustorThunk
i6c:_SecurityContext_Capture_m2535194991
fzg:_UInt16_System_IConvertible_ToSByte_m3044765342_AdjustorThunk
IGg:_DerivedType_IsArrayImpl_m684825803
Nzf:__ZL47Byte_t3683104436_CustomAttributesCacheGeneratorP21CustomAttributesCache
koj:__ZN4utf88internal15increase_safelyIPKcEENS0_9utf_errorERT_S5_
Bzc:__ZN20TextRenderingPrivate8FontImpl16CacheFontForTextEPtiifjPK13dynamic_arrayINS_16TextFormatChangeELj4EE
d7d:_Array_qsort_TisUIVertex_t1204258818_TisUIVertex_t1204258818_m512606409_gshared
N$c:__Z21ArrayElementTypeCheckP11Il2CppArrayPv
UNj:_emscripten_glTexSubImage2D__wrapper
Npf:_NameValueCollection_AsSingleString_m10599052
XEj:__ZNSt3__212basic_stringIcNS_11char_traitsIcEENS_9allocatorIcEEE6appendEjc
Q$e:_Object_InternalGetHashCode_m1371384246
b4g:_Navigation_get_defaultNavigation_m2185194207
Afg:__ZL73LayoutElement_t2808691390_CustomAttributesCacheGenerator_m_FlexibleHeightP21CustomAttributesCache
kci:_ArgumentCache_get_stringArgument_m3051619173
qPe:_Int32_System_IConvertible_ToSByte_m1449623243_AdjustorThunk
T9e:_AccessViolationException__ctor_m1270251537
xSc:__Z42Register_UnityEngine_Canvas_get_rootCanvasv
pxi:_X509ExtensionCollection_IndexOf_m3972100651
ZGb:__Z14resize_trimmedINSt3__26vectorI8MonoPPtr13stl_allocatorIS2_L18MemLabelIdentifier1ELi16EEEEEvRT_j
Agb:__ZN39AssetBundleLoadFromStreamAsyncOperation11GetProgressEv
Se:_TTF_RenderText_Solid
QEb:__ZN13MonoBehaviour25TransferEngineAndInstanceI24GenerateTypeTreeTransferEEvRT_
$zg:_UInt32_System_IConvertible_ToInt64_m3091851828
ZYe:_MissingMethodException__ctor_m3898429715
pkg:_RemotingConfiguration_RegisterClientProviderTemplate_m514821425
zCh:_Enumerator_System_Collections_IEnumerator_Reset_m3085583937_gshared
I0h:__Z66RuntimeInvoker_ClientCertificateType_t4001384466_Int32_t2071877448PK10MethodInfoPvPS2_
d7e:_RSAManaged_ExportParameters_m2873993187
nqd:_Convert__cctor_m926133987
$qe:_Enumerator__ctor_m2816143215_AdjustorThunk
iYc:__ZN11UnityEngine7Connect16PersistentValuesC2Ev
_uf:_X509Chain_FindParent_m404663796
XYe:_MissingMemberException__ctor_m2164043278
_Ji:__ZL7log2_32j
sve:_Collection_1_CopyTo_m2282972507_gshared
VBb:__ZN13EmscriptenWWW10OnProgressEPvjj
pLd:_BaseVertexEffect__ctor_m358261091
TJb:__Z19TransferField_ArrayI17RemapPPtrTransfer27Converter_UnityEngineObjectEvRK23StaticTransferFieldInfoR31RuntimeSerializationCommandInfoRT0_
LDh:__Z48RuntimeInvoker_Void_t1841601450_SByte_t454417549PK10MethodInfoPvPS2_
SLf:__ZL53HMACSHA384_t3026079344_CustomAttributesCacheGeneratorP21CustomAttributesCache
vUh:__Z120RuntimeInvoker_Void_t1841601450_Single_t2076509932_Single_t2076509932_Single_t2076509932_Single_t2076509932_Il2CppObjectPK10MethodInfoPvPS2_
Jnb:__ZN14RenderSettings8TransferI18StreamedBinaryReadILb0EEEEvRT_
Abe:_Object_Instantiate_TisIl2CppObject_m4219963824_gshared
kRe:_IntPtr_System_Runtime_Serialization_ISerializable_GetObjectData_m21554269_AdjustorThunk
R7c:_Single_GetHashCode_m3102305584_AdjustorThunk
Upa:__ZN29SerializeTraitsForStringTypesIN4core12basic_stringIcNS0_20StringStorageDefaultIcEEEEE8TransferI24GenerateTypeTreeTransferEEvRS4_RT_
b9d:_Array_swap_TisVector3_t2243707580_m3036634038_gshared
jK:__ZN4FMOD6System9createDSPEP20FMOD_DSP_DESCRIPTIONPPNS_3DSPE
Pz:__ZN7mecanim9animation26DestroyControllerWorkspaceEPNS0_19ControllerWorkspaceERNS_6memory9AllocatorE
Cui:_UriParser_set_SchemeName_m3624672465
rG:__ZN4FMOD8ChannelI11EndCallbackEv
K3c:_ToBase64Transform_TransformBlock_m2201454137
imc:__ZN8GUIStyle14SetDefaultFontEPN13TextRendering4FontE
CKg:_OpCode_get_StackBehaviourPop_m3787015663_AdjustorThunk
gpi:_PatternCompiler_EmitCount_m3609178511
Tsb:__ZN15QualitySettings23VirtualRedirectTransferER24GenerateTypeTreeTransfer
OEi:_U3CCreateWhereIteratorU3Ec__Iterator1D_1_System_Collections_Generic_IEnumerableU3CTSourceU3E_GetEnumerator_m2682676065_gshared
vVg:_GUIStyle_Internal_GetCursorStringIndex_m1491806746
t9f:__ZL89PointerEventData_t1599784723_CustomAttributesCacheGenerator_U3CpositionU3Ek__BackingFieldP21CustomAttributesCache
f4i:__ZN6il2cpp2os10FileHandleC2Ev
igc:__Z59Register_UnityEngine_MonoBehaviour_Internal_CancelInvokeAllv
vNf:__ZL84Encoding_t663144255_CustomAttributesCacheGenerator_Encoding_GetByteCount_m4104502544P21CustomAttributesCache
pHd:__ZN23InterfaceActionInvoker1IP25AxisEventData_t1524870173E6InvokeEjP11Il2CppClassP12Il2CppObjectS1_
jjg:_ObjRef_set_TypeInfo_m1661789743
TUi:__ZN30dense_hashtable_const_iteratorINSt3__24pairIK10KeyWrapperIPK19Il2CppGenericMethodEPK26Il2CppGenericMethodIndicesEES6_N6il2cpp8metadata23Il2CppGenericMethodHashEN14dense_hash_mapIS6_SA_SE_NS6_14EqualsComparerINSD_26Il2CppGenericMethodCompareEEENS0_9allocatorISB_EEE9SelectKeyESI_SK_EppEv
cTg:_GUISkin_get_box_m533626169
Gof:_HybridDictionary_Add_m1037587952
$Xg:_Mathf_Cos_m238853451
fAc:_UNITY_FT_Request_Metrics
zoa:__Z37GetBarycentricCoordinatesForOuterCellPPK8Vector3fRK13dynamic_arrayIS_Lj4EERS0_RK11TetrahedronR8Vector4fRf
nij:__ZN6il2cpp6icalls8mscorlib6System10Reflection10MonoMethod29get_IsGenericMethodDefinitionEP22Il2CppReflectionMethod
Vej:__ZN6il2cpp2vm6Thread21AllocThreadStaticDataEi
Xri:__ZN23InterfaceActionInvoker4IiibP19LinkRef_t2090853131E6InvokeEjP11Il2CppClassP12Il2CppObjectiibS1_
prd:_DateTime_YearMonthDayFormats_m4204607055
RMd:_ColorBlock_set_disabledColor_m3502887543_AdjustorThunk
Hrj:__ZN30dense_hashtable_const_iteratorINSt3__24pairIK10KeyWrapperIPK19Il2CppGenericMethodEP10MethodInfoEES6_N6il2cpp8metadata23Il2CppGenericMethodHashEN14dense_hash_mapIS6_S9_SD_NS6_14EqualsComparerINSC_26Il2CppGenericMethodCompareEEENS0_9allocatorISA_EEE9SelectKeyESH_SJ_EppEv
nO:__Z13RegisterClassI13AudioListenerEvv
yGi:_InvokableCall_1_Find_m951110817_gshared
pEi:_Aes__ctor_m4020215067
oD:__ZN23AnimationOffsetPlayable11GetPositionEv
drc:__Z18Transfer_BlittableI9JSONWriteLb0E8Vector3fEvRK29SerializationCommandArgumentsR31RuntimeSerializationCommandInfo
d7:__ZN13RuntimeStaticI17UniqueIDGeneratorLb0EE13StaticDestroyEPv
Rf:_emscripten_glUniform4i
ZLf:__ZL46MD5_t1507972490_CustomAttributesCacheGeneratorP21CustomAttributesCache
kRd:_Graphic_OnDisable_m2360886868
_Zi:_ObjectPool_1_Release_m1615270002_gshared
bf:_emscripten_glUniform4f
vj:___unlock
Jtj:_GC_default_oom_fn
x7g:_ScrollRect_InternalCalculateOffset_m3083065267
Zuh:_InternalEnumerator_1_System_Collections_IEnumerator_Reset_m1561424184_AdjustorThunk
kmd:_Comparer_Compare_m4132969818
tM:__ZN20SoundChannelInstance19setReverbPropertiesEP29FMOD_REVERB_CHANNELPROPERTIES
ZWd:_U3CCaretBlinkU3Ec__Iterator0_System_Collections_Generic_IEnumeratorU3CobjectU3E_get_Current_m3541562536
Syh:_InternalEnumerator_1__ctor_m2808001655_AdjustorThunk
dwh:_InternalEnumerator_1_System_Collections_IEnumerator_Reset_m2571770313_AdjustorThunk
DLg:_FieldInfo_get_UMarshal_m1934544188
jKh:__Z68RuntimeInvoker_Void_t1841601450_IntPtr_t_MonoMethodInfoU26_t16045984PK10MethodInfoPvPS2_
LEh:__Z86RuntimeInvoker_Int32_t2071877448_Int32_t2071877448_Int32_t2071877448_Int32_t2071877448PK10MethodInfoPvPS2_
QC:__ZNK26AnimatorControllerPlayable14IsInTransitionEi
Pjh:_DefaultComparer_Equals_m2171836276_gshared
Mgj:__ZN6il2cpp2vm9Exception18GetFormatExceptionEPKc
t$h:__Z56RuntimeInvoker_Void_t1841601450_ResourceInfo_t3933049236PK10MethodInfoPvPS2_
VJf:__ZL55IMessageSink_t2189618969_CustomAttributesCacheGeneratorP21CustomAttributesCache
Tic:__Z40Register_UnityEngine_Transform_IsChildOfv
bVg:_GUIStyle_Draw_m1435796321
ckd:_ArrayList_Sort_m923359189
Sah:_Text_CalculateLayoutInputVertical_m1732119136
adc:__Z45Register_UnityEngine_Display_GetSystemExtImplv
NIa:__ZN9GfxDevice31DrawIndexedNullGeometryIndirectE16GfxPrimitiveTypeP9GfxBuffer15ComputeBufferIDj
yrh:_InternalEnumerator_1_System_Collections_IEnumerator_get_Current_m3088751576_gshared
lLh:__Z78RuntimeInvoker_Void_t1841601450_Int64_t909078037_Il2CppObject_Int64_t909078037PK10MethodInfoPvPS2_
p7h:_Bounds_set_center_m2069004927_AdjustorThunk
l9e:_X509Certificate_GetSubjectName_m2120755276
ooc:__Z46GUIStyle_CUSTOM_Internal_DrawWithTextSelectionP12Il2CppObjectR43MonoInternal_DrawWithTextSelectionArguments
XJi:__ZL17log2withScale_128yyi
fZf:__ZL58ResourceRequest_t2560315377_CustomAttributesCacheGeneratorP21CustomAttributesCache
HOc:__ZNSt3__218__insertion_sort_3IRNS_6__lessIN2UI14DepthSortEntryES3_EEPS3_EEvT0_S7_T_
vNg:_MonoField_CheckGeneric_m1527550038
tZ:__ZN13RuntimeStaticI15DirectorManagerLb0EE16StaticInitializeEPv
puc:__ZN8JSONRead8TransferI23ManagedObjectTransfererEEvRT_PKc17TransferMetaFlagsb
avg:_Thread_get_ManagedThreadId_m1995754972
sFd:_BaseInput_get_touchCount_m998724785
uyb:__ZN11TimeManager6UpdateEv
Zwi:_X509Chain_get_Status_m2726750609
QWd:_InputField_get_preferredWidth_m3185355225
KQg:_GUIUtility_get_pixelsPerPoint_m2667928361
sye:_Collection_1_RemoveItem_m1406181352_gshared
Tug:_Thread_SetState_m3198426726
wkd:_ArrayListWrapper_Contains_m1158465965
Q8d:_Array_swap_TisColor32_t874517518_m2203309732_gshared
ccf:_BigInteger_op_LessThan_m3825358479
kDj:_fflush
ooa:__ZN17LightProbeContext4InitERK16LightmapSettingsRK14RenderSettings
dgd:_Convert_ToInt32_m55151042
_Rd:_GraphicRaycaster_Raycast_m1206612976
qBj:__GLOBAL__sub_I_Error_cpp
tri:_Alternation_GetWidth_m4218808325
eHe:_ReadOnlyCollection_1_System_Collections_IList_Insert_m2651065875_gshared
VBf:__ZL80Il2CppArray_CustomAttributesCacheGenerator_Array_SetValue_m169741241____indices1P21CustomAttributesCache
bia:__ZN10ColorRGBAf8TransferI19StreamedBinaryWriteILb0EEEEvRT_
ZCc:_ft_bitmap_glyph_bbox
Upf:_TypeConverterAttribute__ctor_m4061167050
Bnj:__ZN6il2cpp2vm11MethodStack17GetStackFramesRawEv
lhi:_Font_add_textureRebuilt_m1282639736
Thh:_Dictionary_2_ContainsValue_m2760581195_gshared
svj:_GC_reclaim_uninit
s1a:__Z34ProcessIndexListIsNodeVisibleStep2RK22SceneCullingParametersPK9SceneNodePK4AABBR9IndexList
PCb:__ZN10MonoScriptD2Ev
Sja:__ZN6prcoreL12RemapGenericI17TexFormatARGB888817TexFormatBGRA8888EEvPKNS_9InnerInfoE
E9g:_Slider_OnRectTransformDimensionsChange_m4109401172
csf:_WebHeaderCollection_Get_m3391944907
$Y:__GLOBAL__sub_I_half_cpp
Aec:__Z39Input_CUSTOM_INTERNAL_get_mousePositionP8Vector3f
KFc:_tt_cmap13_char_next
Mkg:_ServerIdentity__ctor_m1576469955
yOa:__ZN9ShaderLab4Pass16SetupPassOptionsEv
Nei:_AnimatorControllerPlayable_INTERNAL_CALL_SetTriggerID_m508896534
_Ii:_UnityEvent_4__ctor_m3102731553_gshared
T1h:__Z78RuntimeInvoker_Int32_t2071877448_UICharInfo_t3056636800_UICharInfo_t3056636800PK10MethodInfoPvPS2_
eh:_JS_Sound_ReleaseInstance
u6f:__ZL72IL2CPPStructAlignmentAttribute_t130316838_CustomAttributesCacheGeneratorP21CustomAttributesCache
Pua:__ZN13GfxDeviceGLES19DrawBuffersIndirectEP9GfxBufferPK18VertexStreamSourceiP17VertexDeclaration17ShaderChannelMask16GfxPrimitiveType15ComputeBufferIDj
Wme:_List_1_Shift_m439051997_gshared
U1g:_Renderer_get_sortingLayerID_m2403577271
cji:_InAttribute__ctor_m1401060713
FMj:_emscripten_glPixelStorei__wrapper
nyd:_Decimal_System_IConvertible_ToDecimal_m1541432424_AdjustorThunk
eRb:__Z29Transfer_Blittable_ArrayFieldI18StreamedBinaryReadILb0EEaEvRT_R9ArrayInfoRK23StaticTransferFieldInfo
Ygc:__Z21Resources_CUSTOM_LoadP12Il2CppStringP12Il2CppObject
Am:FUNCTION_TABLE_diddi
qHd:_ExecuteEvents_Execute_m2863348178
bhc:__Z26Material_CUSTOM_SetIntImplP12Il2CppObjectii
lOe:_Int16_System_IConvertible_ToSingle_m3277935657_AdjustorThunk
YKb:__Z18Transfer_BlittableI24GenerateTypeTreeTransferLb0EaEvRK29SerializationCommandArgumentsR31RuntimeSerializationCommandInfo
E6h:_AttributeHelperEngine_CheckIsEditorScript_m2980171478
nnf:_SslStreamBase_get_KeyExchangeAlgorithm_m3712013038
Xmi:_InternalRemotingServices__cctor_m3821625125
ydc:__Z42Register_UnityEngine_RectOffset_get_bottomv
Urg:_StringBuilder_Insert_m3322917127
Yih:_DefaultComparer_Equals_m724229128_gshared
qme:_List_1__cctor_m1337542316_gshared
och:_Enumerator_VerifyCurrent_m1702320752_AdjustorThunk
mhg:__ZN21InterfaceFuncInvoker0IP24ObjectU5BU5D_t3614634134E6InvokeEjP11Il2CppClassP12Il2CppObject
DHi:_UnityAction_1_EndInvoke_m2603848420_gshared
Usd:_Convert_ToDouble_m3520060872
YLj:_emscripten_glUniform1f__wrapper
WGj:dynCall_di
Xlf:_SslCipherSuite_ComputeServerRecordMAC_m1876572367
lBc:__ZN20TextRenderingPrivate19NativeTextGeneratorC2ERK11UTF16StringPNS_8FontImplE11ColorRGBA32ifRK8Vector2fbifiibffbbbP13dynamic_arrayIN2UI8UIVertexELj4EE
Pqc:__Z28RegisterModule_JSONSerializev
WE:__Z111Register_UnityEngine_Experimental_Director_AnimatorControllerPlayable_INTERNAL_CALL_GetAnimatorClipInfoInternalv
lug:_Interlocked_CompareExchange_m3227034792
p_c:_HashAlgorithm_get_Hash_m931854461
O3i:_il2cpp_monitor_enter
Yzh:_DefaultComparer_Compare_m3564013922_gshared
WXb:__ZN2UI13RectTransform8TransferI14SafeBinaryReadEEvRT_
N7b:__Z20IsHumanControllingUsv
tRa:__ZNK19RenderEventsContext21ExecuteCommandBuffersEijR17ShaderPassContextR15RenderNodeQueueP19ProfilerInformationi
Wwe:_Collection_1_RemoveAt_m3454169520_gshared
UU:__ZNK20DynamicHeapAllocatorI17LowLevelAllocatorE10GetPtrSizeEPKv
qgi:_AnimatorControllerPlayable_PlayInFixedTime_m172593751
Ueb:__ZN10systeminfo21GetPersistentDataPathEv
ePd:_Dropdown_set_value_m2945561009
Gua:__ZN13GfxDeviceGLES17DestroyGpuProgramEPK10GpuProgram
zLe:_GregorianCalendar_GetMonth_m523739832
FFb:__Z44InitializeTransferFunctionScriptingTraitsForI18StreamedBinaryReadILb0EEEvR31TransferFunctionScriptingTraits
sZa:__ZNSt3__218__insertion_sort_3IR23CompareReflectionProbesP31RuntimeReflectionProbeBlendInfoEEvT0_S5_T_
xJe:_DateTimeFormatInfo_Clone_m1101948106
LCe:_ReadOnlyCollection_1_System_Collections_ICollection_get_IsSynchronized_m2987885125_gshared
QPg:_GameObject_AddComponent_m3757565614
Z9:__ZN12_GLOBAL__N_113StaticDestroyEPv
YZh:__Z54RuntimeInvoker_Boolean_t3825574718_Vector4_t2243707581PK10MethodInfoPvPS2_
KNe:_Guid_ToString_m51661589
Rkc:__ZNK8GUIStyle4DrawER8GUIStateRK5RectTIfER10GUIContentbbbb
jah:_Text_set_font_m1095513810
HQj:_glUnmapBuffer__wrapper
bwd:_DateTime_System_IConvertible_ToUInt32_m1363211018_AdjustorThunk
hUd:_InputField_get_cachedInputTextGenerator_m881618486
y8h:_Canvas_get_rootCanvas_m1790974328
ufc:__Z32Mesh_CUSTOM_ExtractArrayFromListP12Il2CppObject
xEg:_Binder_get_DefaultBinder_m965620943
Uuc:__ZN8JSONRead21TransferSTLStyleArrayINSt3__26vectorI8Gradient13stl_allocatorIS3_L18MemLabelIdentifier1ELi16EEEEEEvRT_17TransferMetaFlags
jjf:_SecurityParameters_Clear_m3409219757
Syb:__ZNSt3__218__insertion_sort_3IRNS_6__lessINS_4pairIPKN5Unity4TypeE7Hash128EES8_EEPS8_EEvT0_SC_T_
Opi:_PatternCompiler_EmitAlternationEnd_m889639343
tLb:__ZN10RectOffset8TransferI24GenerateTypeTreeTransferEEvRT_
Fed:_SimpleEnumerator_get_Current_m482975946
x8b:__Z18GetResourceManagerv
QDj:_srand
j8i:__ZNK15dense_hashtableINSt3__24pairIK10KeyWrapperINS1_IPK10MethodInfoP11Il2CppClassEEEjEES9_17ReflectionMapHashIS8_EN14dense_hash_mapIS9_jSD_NS9_14EqualsComparerINS0_8equal_toIS8_EEEENS0_9allocatorISB_EEE9SelectKeyESI_SK_E10test_emptyERK30dense_hashtable_const_iteratorISB_S9_SD_SM_SI_SK_E
XZe:_MonoTypeInfo__ctor_m1398838196
tOc:__ZN2UI13CanvasManager19RemoveDirtyRendererEPNS_6CanvasEPNS_14CanvasRendererE
$$g:_Rect_get_position_m24550734
lbh:_Toggle_Rebuild_m929023818
JN:__ZN7Texture34UpdateFileTextureUploadInstructionEP28FileTextureUploadInstructionj
Paa:__Z15GetIApplicationv
K6h:_AudioClip_InvokePCMSetPositionCallback_Internal_m2304858844
jVc:__ZN11UnityEngine15PlatformWrapper25GetGraphicsRendererStringEv
VFh:__Z51RuntimeInvoker_UInt16_t986882611_Decimal_t724701077PK10MethodInfoPvPS2_
cWd:_InputField_KeyPressed_m3066588581
tAi:_Time_get_unscaledTime_m862335845
qWi:__ZNK15dense_hashtableINSt3__24pairIK10KeyWrapperI13dynamic_arrayIPK10Il2CppTypeLj4EEEPFvvEEES8_N6il2cpp8metadata19Il2CppSignatureHashEN14dense_hash_mapIS8_SB_SF_NS8_14EqualsComparerINSE_22Il2CppSignatureCompareEEENS0_9allocatorISC_EEE9SelectKeyESJ_SL_E13find_positionERS9_
J8g:_Selectable_DoStateTransition_m539253088
T2c:_SHA512_Create_m439875055
Rb:invoke_vi
L2c:_SHA384Managed_update_m2629600295
kfg:__ZL68GridLayoutGroup_t1515633077_CustomAttributesCacheGenerator_m_SpacingP21CustomAttributesCache
IJa:__ZN15dense_hashtableINSt3__24pairIKN4core12basic_stringIcNS2_20StringStorageDefaultIcEEEEP20ArchiveStorageReaderEES6_20StringHash32FunctionIS6_EN14dense_hash_mapIS6_S9_SC_NS0_8equal_toIS6_EE13stl_allocatorISA_L18MemLabelIdentifier54ELi16EEE9SelectKeyESF_SI_ED2Ev
Pb:invoke_vd
qb:invoke_vf
CVg:_GUIStyle_Internal_CalcSizeWithConstraints_m3375255978
Mxh:_InternalEnumerator_1__ctor_m32322958_AdjustorThunk
n5:__ZNK10GameObject8IsActiveEv
gW:__ZN18ScreenManagerWebGL21SetCursorInsideWindowEb
Rog:_SByte_System_IConvertible_ToUInt32_m4256495110
WHd:_PointerEventData_set_eligibleForClick_m2036057844
DDa:__ZN18GfxFramebufferGLES23SetupDefaultFramebufferEPP17RenderSurfaceBaseS2_N2gl6HandleILNS3_10ObjectTypeE9EEE
sDj:_mbsinit
LUg:_GUIStyle_get_Internal_clipOffset_m4237737448
F8f:__ZL70EventSystem_t3466835263_CustomAttributesCacheGenerator_m_FirstSelectedP21CustomAttributesCache
oW:__ZN13ScreenManager18RequestOrientationE17ScreenOrientation
iOi:__ZN6il2cpp2vm5Class12SetupMethodsEP11Il2CppClass
mS:__ZN11UnityEngine15CloudWebService13WWWRestClient18GetResponseHeadersEv
Oac:__Z39DeleteLastPathNameComponentWithAnySlashRKN4core12basic_stringIcNS_20StringStorageDefaultIcEEEE
pU:__ZN13EmscriptenWWW14BlockUntilDoneEv
Ccg:__ZL68InputField_t1631627530_CustomAttributesCacheGenerator_m_KeyboardTypeP21CustomAttributesCache
Pbh:_VerticalLayoutGroup_CalculateLayoutInputHorizontal_m497637066
sLd:_Button_get_onClick_m1595880935
tZi:_ListPool_1_Release_m3716853512_gshared
Mva:__ZN13GfxDeviceGLES17UploadTextureCubeE9TextureIDPKhiii13TextureFormati18TextureUploadFlags17TextureColorSpace
_x:__ZN17AnimationPlayable22SetStateMachineMessageEN7mecanim12statemachine19StateMachineMessageE
J1g:_RectTransformUtility_PixelAdjustPoint_m560908615
wni:_MethodCall__ctor_m4106494862
TDg:_Module_IsResource_m663979284
Eoc:__Z37Register_UnityEngine_GUIStyle_Cleanupv
Ma:invoke_iiifii
Xyi:_StackTraceUtility_ExtractStringFromExceptionInternal_m2568950546
r3b:__ZN8GUILayer12AddToManagerEv
NXf:__ZL109TouchScreenKeyboard_t601950206_CustomAttributesCacheGenerator_TouchScreenKeyboard_Open_m3410222954____secure4P21CustomAttributesCache
A1i:__ZN6il2cpp6icalls8mscorlib6System8MonoType13IsPointerImplEP20Il2CppReflectionType
Esd:_Convert_ToDecimal_m2284596541
deg:__ZL62Selectable_t1490392188_CustomAttributesCacheGenerator_m_ColorsP21CustomAttributesCache
Fub:__ZN14Texture2DArray34UpdateFileTextureUploadInstructionEP28FileTextureUploadInstructionj
Oi:_emscripten_glFramebufferRenderbuffer
VSf:__ZL64CipherSuiteCollection_t2431504453_CustomAttributesCacheGeneratorP21CustomAttributesCache
oki:__ZN21InterfaceFuncInvoker3IP12Il2CppObjectP8String_tS1_PS3_E6InvokeEjP11Il2CppClassS1_S3_S1_S4_
mkf:_TlsServerCertificateRequest_ProcessAsSsl3_m3017921864
EQe:_Int64_GetHashCode_m4047499913
C4a:__ZN9Transform30EnsureTransformHierarchyExistsEv
ZO:__ZN11AudioModule26SetDefaultMicrophoneDriverEPv
BVf:__ZL102Camera_t189460977_CustomAttributesCacheGenerator_Camera_INTERNAL_CALL_ScreenToViewportPoint_m529506484P21CustomAttributesCache
bfd:_Attribute_IsDefined_m216577166
fjd:_Char_ToUpper_m109978609
Bth:_InternalEnumerator_1_get_Current_m1089848479_gshared
TAd:_Double_System_IConvertible_ToInt64_m3798425616
FJd:_StandaloneInputModule_get_repeatDelay_m3025279
Cg:___cxa_find_matching_catch_4
_fc:__ZN13MonoBehaviour13StopCoroutineEPKc
F7a:__ZNSt3__26vectorINS_4pairIN4core12basic_stringIcNS2_20StringStorageDefaultIcEEEEPK17MessageIdentifierEENS_9allocatorISA_EEE12__move_rangeEPSA_SE_SE_
pVa:__ZN14qsort_internal17MedianOfThreeSwapIP17RODataReplacement19ROSorterReplacementEEvT_S4_S4_T0_
Jte:_Collection_1_System_Collections_IList_Insert_m3303840316_gshared
$Mi:__ZNK15dense_hashtableINSt3__24pairIK10KeyWrapperIPK22Il2CppGenericParameterEP11Il2CppClassEES6_N6il2cpp5utils11PointerHashIS4_EEN14dense_hash_mapIS6_S9_SE_NS6_14EqualsComparerINS0_8equal_toIS5_EEEENS0_9allocatorISA_EEE9SelectKeyESJ_SL_E3endEv
Kac:__ZN17TransformInternal36OnScaleChangedCalculateTransformTypeE15TransformAccess
HJa:__ZN15dense_hashtableINSt3__24pairIKN4core12basic_stringIcNS2_20StringStorageDefaultIcEEEEP20ArchiveStorageReaderEES6_20StringHash32FunctionIS6_EN14dense_hash_mapIS6_S9_SC_NS0_8equal_toIS6_EE13stl_allocatorISA_L18MemLabelIdentifier54ELi16EEE9SelectKeyESF_SI_E4swapERSL_
Ald:_SynchronizedArrayListWrapper_InsertRange_m709359548
eMa:__ZN17ArchiveFileSystem10ToAbsoluteEPKc
Ybf:_BigInteger_op_Modulus_m13450242
Ykb:__ZN4PPtrI8MaterialE8TransferI18StreamedBinaryReadILb0EEEEvRT_
U_h:__Z56RuntimeInvoker_Int32_t2071877448_RaycastResult_t21186376PK10MethodInfoPvPS2_
utd:_Convert_ToInt32_m2988544165
w7d:_Array_Resize_TisColor32_t874517518_m2219502085_gshared
nw:__ZN7mecanim6CRCKeyENS_7eStringE
Pnf:_SslStreamBase_get_CanWrite_m2069502593
MYb:__ZL12SetPrefValueRKN4core12basic_stringIcNS_20StringStorageDefaultIcEEEERK9PrefValue
cXh:__Z31RuntimeInvoker_Mode_t1081683921PK10MethodInfoPvPS2_
WSb:__ZL30ReconstructParamNamesFromTableIN9ShaderLab20SerializedSubProgram15MatrixParameterEEvRK14dense_hash_mapIiN4core17string_with_labelILi1EEE18SInt32HashFunctionNSt3__28equal_toIiEE13stl_allocatorINS8_4pairIKiS6_EEL18MemLabelIdentifier1ELi16EEERNS8_6vectorIT_NS8_9allocatorISL_EEEE
$$:__ZN19ShaderPropertySheet20ReservePropertyCountEj
Snj:__ZN6il2cpp5utils11StringUtils6PrintfEPKcz
uxc:__ZN16NovodexAllocatorD0Ev
Lia:__ZN15NameToObjectMapI6ShaderNSt3__23mapI4PPtrIS0_EN4core12basic_stringIcNS5_20StringStorageDefaultIcEEEENS1_4lessIS4_EENS1_9allocatorINS1_4pairIKS4_S9_EEEEEENS1_8multimapIS9_S4_NSA_IS9_EENSC_INSD_IKS9_S4_EEEEEEE4FindERSK_
wch:_ShimEnumerator_Reset_m98005789_gshared
Tpa:__ZN24GenerateTypeTreeTransfer21TransferResourceImageE19ActiveResourceImagePKcR13StreamingInfoPvjiPKN5Unity4TypeE
k_g:_Object_INTERNAL_CALL_Internal_InstantiateSingle_m3932420250
$df:_PKCS1_Compare_m552424558
IQb:__Z18Transfer_BlittableI18StreamedBinaryReadILb0EELb0EyEvRK29SerializationCommandArgumentsR31RuntimeSerializationCommandInfo
aFe:_ReadOnlyCollection_1_System_Collections_IList_set_Item_m1377990618_gshared
CPa:_UNITY_png_zstream_error
rJg:_ILGenerator_make_room_m373147874
yih:_Dictionary_2_Init_m1045257495_gshared
cQj:_emscripten_glLinkProgram__wrapper
Zgf:_TlsClientSettings_set_TargetHost_m3421266913
E6e:_PKCS1_Verify_v15_m2571212635
qnb:__ZNSt3__212__deque_baseI18ReflectionProbeJobNS_9allocatorIS1_EEED2Ev
Bv:__ZN11UnityEngine9Animation27DestroyAnimationSetBindingsEPNS0_20AnimationSetBindingsERN7mecanim6memory9AllocatorE
aTb:__ZN15dense_hashtableINSt3__24pairIKiN4core17string_with_labelILi1EEEEEi18SInt32HashFunctionN14dense_hash_mapIiS5_S7_NS0_8equal_toIiEE13stl_allocatorIS6_L18MemLabelIdentifier1ELi16EEE9SelectKeyESA_SD_E13set_empty_keyERKS6_
KB:__ZN8Animator12CleanupClassEv
Bbd:_DecoderReplacementFallbackBuffer__ctor_m1305504326
Suc:__Z13TransferFieldI8JSONReadLb0E27Converter_SimpleNativeClassI10RectOffsetEEvRK23StaticTransferFieldInfoR31RuntimeSerializationCommandInfoRT1_
b9c:_String_IndexOf_m570401060
STd:_Image_CalculateLayoutInputVertical_m1340533162
DBd:_Enum_System_IConvertible_ToDateTime_m2924690746
wdb:__ZN11AssetBundle9AssetInfo8TransferI14SafeBinaryReadEEvRT_
GPd:_Dropdown_CreateBlocker_m4109366440
e_c:_HashAlgorithm_System_IDisposable_Dispose_m2106335965
yjj:__GLOBAL__sub_I_GenericMetadata_cpp
c$e:_NotImplementedException__ctor_m1305569814
A_h:__Z59RuntimeInvoker_Int32_t2071877448_KeyValuePair_2_t1174980068PK10MethodInfoPvPS2_
o$g:_RangeAttribute__ctor_m1657271662
P3f:__ZL67GUISettings_t622856320_CustomAttributesCacheGenerator_m_CursorColorP21CustomAttributesCache
Qkc:__ZNK8GUIStyle4DrawER8GUIStateRK5RectTIfER10GUIContentib
O0i:__ZN6il2cpp6icalls8mscorlib6System8MonoType18GetFields_internalEP20Il2CppReflectionTypeiS5_
V0a:__Z24CalculateSpotLightBoundsffRK10Matrix4x4fR15SpotLightBounds
v0e:_TailoringInfo__ctor_m2248501932
Zca:__ZNK13RenderTexture21GetShadowSamplingModeEv
nQ:__ZN23CloudWebServicesManager23VirtualRedirectTransferER14SafeBinaryRead
Ykd:_FixedSizeArrayListWrapper_InsertRange_m2690348965
mEb:__Z19ShouldTransferFieldR32SerializationCommandQueueBuilder17ScriptingClassPtriR18TransferField_InfoRK20CoreScriptingClasses
QKg:_FieldInfo_get_IsStatic_m1411173225
fVe:_MemoryStream_Read_m2289595005
oL:__ZN5audio5mixer22UpdateAudioMixerMemoryERKNS0_18AudioMixerConstantERNS0_16AudioMixerMemoryEfPN4FMOD6SystemEf
Yxc:__ZL21InitializeCachedStripPv
O1c:_SignatureDescription_set_DigestAlgorithm_m3219799565
i4h:_CustomEventData_Add_m4139356558
Afj:__ZN6il2cpp6icalls8mscorlib6System9Threading6Thread23GetCachedCurrentCultureEP12Il2CppThread
k8f:__ZL94PlayerEditorConnectionEvents_t2252784345_CustomAttributesCacheGenerator_messageTypeSubscribersP21CustomAttributesCache
c8g:_Selectable_get_allSelectables_m3045831006
qVa:__ZNK6Camera22GetWorldToCameraMatrixEv
Ned:_ArrayTypeMismatchException__ctor_m2892687300
xnj:__ZN6il2cpp2vm12GenericClass11IsValueTypeEP18Il2CppGenericClass
t9d:_Dictionary_2_Do_CopyTo_TisKeyValuePair_2_t3716250094_TisIl2CppObject_m715850636_gshared
BDb:__ZN13MonoBehaviour7SetNameEPKc
Sef:_ContentInfo__ctor_m3579805263
k7g:_ScrollRect_get_verticalNormalizedPosition_m1701804869
wna:__ZN18AwakeFromLoadQueue5ClearEv
heh:_Enumerator_get_Current_m2986380627_AdjustorThunk
G$a:__ZNSt3__27__sort5IR15ReflProbeSorterPP15ReflectionProbeEEjT0_S6_S6_S6_S6_T_
PZ:__ZN8Playable10DisconnectEPS_i
qk:_glGenTransformFeedbacks
Qra:__ZN13LoadOperationD2Ev
k5e:_KeyPairPersistence__ctor_m1817312194
uZd:_Array_InternalArray__ICollection_Contains_TisMark_t2724874473_m1640201705_gshared
Dji:_ActivatedClientTypeEntry_get_ContextAttributes_m53051138
Kla:__Z21PlayerStartFirstSceneb
gHg:_TypeBuilder_get_AssemblyQualifiedName_m2097258567
zia:__ZNSt3__27__sort5IRPFbRKNS_4pairIN9ShaderLab16FastPropertyNameEN18UnityPropertySheet11UnityTexEnvEEES8_EPS6_EEjT0_SD_SD_SD_SD_T_
hza:__ZNK7ApiGLES18GetExtensionStringEv
WFa:__ZN31TransformFeedbackSkinPoseBufferD0Ev
ZLj:_emscripten_glVertexAttrib1f__wrapper
$mf:_SslStreamBase_get_MightNeedHandshake_m3432170694
rjh:_DefaultComparer_Equals_m1281232537_gshared
Yo:FUNCTION_TABLE_iiiiiiiii
pVd:_InputField_set_asteriskChar_m619206227
bqg:_DES_IsSemiWeakKey_m3967392585
T5:__Z24GetComponentOrScriptNameRN5Unity9ComponentE
VIe:_Comparison_1__ctor_m2159122699_gshared
rOe:_Int16_System_IConvertible_ToUInt32_m883204517_AdjustorThunk
G0f:__ZL137AnimatorControllerPlayable_t4078305555_CustomAttributesCacheGenerator_AnimatorControllerPlayable_CrossFade_m2119841183____normalizedTime3P21CustomAttributesCache
rOg:_MonoProperty_get_PropertyType_m1921201152
cOd:_FloatTween_TweenValue_m3881535116_AdjustorThunk
guj:_GC_allochblk
zna:__Z15UnloadGameScenev
CQj:_glCheckFramebufferStatus__wrapper
O7f:__ZL59WriteOnlyAttribute_t14323075_CustomAttributesCacheGeneratorP21CustomAttributesCache
DB:__ZN16MecanimAnimationD0Ev
bbf:_BigInteger_get_Rng_m2525288368
Flg:_BinaryCommon_IsPrimitive_m2132448955
px:__ZN7mecanim9animation14DeltasFromClipERKNS0_18ClipMuscleConstantERKNS0_12ClipBindingsERKNS_14ValueArrayMaskERNS_10ValueArrayESB_SB_
E_i:_KeyValuePair_2__ctor_m1640124561_AdjustorThunk
lmd:_CaseInsensitiveHashCodeProvider__ctor_m3775398833
nAh:_Comparer_1_System_Collections_IComparer_Compare_m674728644_gshared
RXf:__ZL80Input_t1785128008_CustomAttributesCacheGenerator_Input_GetButtonDown_m2792523731P21CustomAttributesCache
lec:__Z36Renderer_Get_Custom_PropSortingOrderP12Il2CppObject
m7i:__ZNK15dense_hashtableINSt3__24pairIK10KeyWrapperIPK10Il2CppTypeEjEES6_N6il2cpp8metadata14Il2CppTypeHashEN14dense_hash_mapIS6_jSB_NS6_14EqualsComparerINSA_26Il2CppTypeEqualityComparerEEENS0_9allocatorIS8_EEE9SelectKeyESF_SH_E13find_positionERS7_
Oca:__ZN7Texture5ResetEv
sKb:__Z18Transfer_BlittableI24GenerateTypeTreeTransferLb0E8Vector2fEvRK29SerializationCommandArgumentsR31RuntimeSerializationCommandInfo
w2f:__ZL82Canvas_t209405766_CustomAttributesCacheGenerator_Canvas_get_renderMode_m1816014618P21CustomAttributesCache
lKb:__Z18Transfer_BlittableI24GenerateTypeTreeTransferLb1EhEvRK29SerializationCommandArgumentsR31RuntimeSerializationCommandInfo
Cwb:__ZN10VertexData10DeallocateEv
Q4i:__ZNSt3__214__split_bufferIiRNS_9allocatorIiEEEC2EjjS3_
dac:__ZNK16TypeTreeIterator10ByteOffsetEv
h1d:_Array_FindLastIndex_TisIl2CppObject_m3885928623_gshared
RQd:_Graphic_get_rectTransform_m2697395074
_7:__ZnwjRKSt9nothrow_t
Vr:__ZN8Animator11ClearObjectEv
SAb:__ZNSt3__26vectorIi13stl_allocatorIiL18MemLabelIdentifier12ELi16EEE8__appendEj
Atf:_X500DistinguishedName_Decode_m3070515374
Qga:__ZN14SafeBinaryRead19TransferSTLStyleMapINSt3__23mapI39DeprecatedFastPropertyNameSerializationN18UnityPropertySheet11UnityTexEnvENS1_4lessIS3_EENS1_9allocatorINS1_4pairIKS3_S5_EEEEEEEEvRT_17TransferMetaFlags
ngc:__Z45Register_UnityEngine_MonoBehaviour_IsInvokingv
GLh:__Z65RuntimeInvoker_Void_t1841601450_Int64_t909078037_Int64_t909078037PK10MethodInfoPvPS2_
jrf:_IPv6Address_set_ScopeId_m1442934355
UDf:__ZL72PKCS12_t1362584794_CustomAttributesCacheGenerator_U3CU3Ef__switchU24mapBP21CustomAttributesCache
Wmg:_ObjectManager_RaiseOnDeserializedEvent_m512850179
E2f:__ZL83Canvas_t209405766_CustomAttributesCacheGenerator_Canvas_get_renderOrder_m2874842494P21CustomAttributesCache
l8f:__ZL87PlayerEditorConnectionEvents_t2252784345_CustomAttributesCacheGenerator_connectionEventP21CustomAttributesCache
EVf:__ZL86Camera_t189460977_CustomAttributesCacheGenerator_Camera_get_allCamerasCount_m989474043P21CustomAttributesCache
T8b:__Z35UnregisterSerializationCacheBuilderPFv17ScriptingClassPtrR23CachedSerializationDataRbE
qfa:__Z30GetBuiltinVectorParamArraySize24BuiltinShaderVectorParam
t6i:__ZNSt3__218uninitialized_copyIPNS_4pairIK10KeyWrapperINS1_IPK14Il2CppAssemblyP11Il2CppClassEEEjEESC_EET0_T_SE_SD_
h0e:_CodePointIndexer__ctor_m797342079
Dcg:__ZL64InputField_t1631627530_CustomAttributesCacheGenerator_m_LineTypeP21CustomAttributesCache
XLf:__ZL61KeyedHashAlgorithm_t1374150027_CustomAttributesCacheGeneratorP21CustomAttributesCache
XFi:_Predicate_1__ctor_m3243601712_gshared
fag:__ZL103PointerEventData_t1599784723_CustomAttributesCacheGenerator_PointerEventData_set_clickCount_m2095939005P21CustomAttributesCache
v2a:__ZN21RendererUpdateManager11AddRendererER8Renderer
$Zb:__Z13RegisterClassI15ResourceManagerEvv
mng:_SerializationEntry_t3485203212_marshal_pinvoke_back
Hvb:__ZN14SafeBinaryRead21TransferSTLStyleArrayI13dynamic_arrayIfLj4EEEEvRT_17TransferMetaFlags
tOf:__ZL79Thread_t241561612_CustomAttributesCacheGenerator_Thread_GetHashCode_m2038641494P21CustomAttributesCache
Tnj:__ZN6il2cpp5utils11StringUtils11Utf16ToUtf8EPKDs
UMg:_MonoEventInfo_GetEventInfo_m2331957186
AVc:__ZN11UnityEngine15PlatformWrapper20IsRootedOrJailbrokenEv
auf:_X509Certificate2_GetNameInfo_m402390219
Q0a:__Z33IntersectAABBPlaneBoundsOptimizedRK4AABBPKN4math7_float4Ei
Ked:_Swapper_BeginInvoke_m2652511022
O0g:_RectOffset_t3387826427_marshal_pinvoke_back
stg:_UTF8Encoding_GetBytes_m2973831055
Tua:__ZN9GfxDevice19EndGeometryJobFrameEv
dNh:__Z49RuntimeInvoker_SByte_t454417549_Int32_t2071877448PK10MethodInfoPvPS2_
CIe:_Comparison_1_Invoke_m2645957248_gshared
gKb:__ZN27Converter_SimpleNativeClassI17AnimationCurveTplIfEE17ScriptingToNativeER18ScriptingObjectPtrPS1_
VNh:__Z197RuntimeInvoker_Boolean_t3825574718_Il2CppObject_Il2CppObject_Il2CppObject_Int32_t2071877448_DateTimeU26_t3448131235_SByte_t454417549_BooleanU26_t3168250738_SByte_t454417549_ExceptionU26_t1467204777PK10MethodInfoPvPS2_
$zj:__ZN6il2cpp8metadata24Il2CppGenericInstCompare7CompareERK10KeyWrapperIPK17Il2CppGenericInstES8_
QUi:__ZNK15dense_hashtableINSt3__24pairIK10KeyWrapperIPK19Il2CppGenericMethodEPK26Il2CppGenericMethodIndicesEES6_N6il2cpp8metadata23Il2CppGenericMethodHashEN14dense_hash_mapIS6_SA_SE_NS6_14EqualsComparerINSD_26Il2CppGenericMethodCompareEEENS0_9allocatorISB_EEE9SelectKeyESI_SK_E5beginEv
gRd:_Graphic_get_materialForRendering_m2600868951
Fjf:_TlsClientSettings_get_ClientCertificate_m89435195
uLf:__ZL61AsymmetricAlgorithm_t784058677_CustomAttributesCacheGeneratorP21CustomAttributesCache
Cgi:_AnimatorControllerPlayable_INTERNAL_CALL_PlayInternal_m3496633968
vJg:__ZN21InterfaceFuncInvoker1IiP12MemberInfo_tE6InvokeEjP11Il2CppClassP12Il2CppObjectS1_
q$h:__Z54RuntimeInvoker_Void_t1841601450_ILTokenInfo_t149559338PK10MethodInfoPvPS2_
Pve:_Collection_1_System_Collections_IList_Contains_m3210868188_gshared
Eri:_AnchorInfo_get_IgnoreCase_m2406760852
VHa:__ZN9GfxDevice22UploadTextureCubeArrayE9TextureIDPKhjii13TextureFormati18TextureUploadFlags17TextureColorSpace
v$b:__ZNK17AnimationCurveTplIfE8EvaluateEfPNS0_5CacheE
oNa:__Z31ManagerContextInitializeClassesv
R0i:__ZNSt3__213__vector_baseIP9FieldInfoNS_9allocatorIS2_EEED2Ev
xmf:_TlsException_get_Alert_m4022765752
wDc:_ft_smooth_transform
LEf:__ZL53SortedList_t3004938869_CustomAttributesCacheGeneratorP21CustomAttributesCache
JAc:_UNITY_FT_List_Finalize
Mzj:__ZN6il2cpp6icalls8mscorlib6System7Runtime8Remoting10Activation18ActivationServices34AllocateUninitializedClassInstanceEP20Il2CppReflectionType
FWa:__Z20LightAttenuateApproxRKfS0_
Z2:__ZN9Scripting30SetCachedPtrOnScriptingWrapperE18ScriptingObjectPtrP6Object
RH:__ZNK12AudioManager26GetTypeInfoVirtualInternalEv
PMb:__Z18Transfer_BlittableI19StreamedBinaryWriteILb0EELb0EdEvRK29SerializationCommandArgumentsR31RuntimeSerializationCommandInfo
jcb:__ZN17LowLevelAllocator6MallocEj
Tad:_ASCIIEncoding_GetBytes_m3649277167
OQg:_GUILayoutUtility_Internal_GetWindowRect_m1287880151
FEh:__Z49RuntimeInvoker_Char_t3454481338_Int32_t2071877448PK10MethodInfoPvPS2_
nhh:_Dictionary_2__ctor_m2457723796_gshared
zUh:__Z49RuntimeInvoker_Il2CppObject_Il2CppObject_IntPtr_tPK10MethodInfoPvPS2_
L_e:_MonoType_GetObjectData_m2888677152
Cqa:__ZN18BlockRangeInternal16PopLastNodeIndexEP10BlockRangeji
wCg:_Version__ctor_m2972638031
_ce:_Enumerator_System_Collections_IEnumerator_Reset_m886102771_AdjustorThunk
z3e:_Kernel_MultiplyByDword_m155008287
Yub:__ZN4MeshD0Ev
a_c:__ZL42RequestRecreateEyeTexturesBeforeNextUpdatev
$eh:_ValueCollection_System_Collections_Generic_ICollectionU3CTValueU3E_get_IsReadOnly_m3005456072_gshared
uEe:_ReadOnlyCollection_1_System_Collections_ICollection_get_SyncRoot_m1577944046_gshared
Gea:__ZNK6Camera20IsCurrentlyRenderingEv
L2g:_LayoutUtility_U3CGetMinHeightU3Em__4_m1769295917
Inf:_SslStreamBase_Read_m1036897444
mMf:__ZL58RijndaelManaged_t1034060848_CustomAttributesCacheGeneratorP21CustomAttributesCache
Rrc:__Z18Transfer_BlittableI9JSONWriteLb0EdEvRK29SerializationCommandArgumentsR31RuntimeSerializationCommandInfo
mjb:__ZN6Camera8TransferI19StreamedBinaryWriteILb0EEEEvRT_
iWe:_TextReader__ctor_m3276128267
Rge:_List_1_System_Collections_Generic_ICollectionU3CTU3E_get_IsReadOnly_m3598018290_gshared
ICe:_ReadOnlyCollection_1_System_Collections_IList_Insert_m3679749778_gshared
qbh:_Toggle_OnDidApplyAnimationProperties_m325835214
hCj:_wctomb
Wei:_AnimatorControllerPlayable_INTERNAL_CALL_IsParameterControlledByCurveString_m1715379406
ecc:__Z27Camera_CUSTOM_GetAllCamerasP11Il2CppArray
CDb:__ZNK13MonoBehaviour25GetNeedsPerObjectTypeTreeEv
MFj:__ZNSt11logic_errorD0Ev
oqd:_Convert_InternalFromBase64String_m3682756716
Yc:___cxa_rethrow
ntc:__Z18Transfer_BlittableI8JSONReadLb1EhEvRK29SerializationCommandArgumentsR31RuntimeSerializationCommandInfo
eMj:_glBindRenderbuffer__wrapper
D3f:__ZL86GUI_t4082743951_CustomAttributesCacheGenerator_U3CnextScrollStepTimeU3Ek__BackingFieldP21CustomAttributesCache
C8b:__ZN10systeminfo23SupportsLocationServiceEv
$Xf:__ZL85Input_t1785128008_CustomAttributesCacheGenerator_Input_get_touchSupported_m3352846145P21CustomAttributesCache
$R:__ZNKSt3__26__treeINS_12__value_typeIN4core12basic_stringIcNS2_20StringStorageDefaultIcEEEES6_EENS_19__map_value_compareIS6_S7_NS_4lessIS6_EELb1EEENS_9allocatorIS7_EEE4findIS6_EENS_21__tree_const_iteratorIS7_PNS_11__tree_nodeIS7_PvEEiEERKT_
ari:_Regex_System_Runtime_Serialization_ISerializable_GetObjectData_m4035555909
swg:_TimeSpan_Add_m3228293154
ujh:_DefaultComparer_Equals_m4098991076_gshared
u4a:__ZN13MonoBehaviour8SetClassE17ScriptingClassPtr18ScriptingObjectPtr
xef:_RC4__cctor_m523650203
Ami:_CrossContextDelegate_Invoke_m2908136830
PDi:_Locale_GetText_m3480617287
Caf:_ApplicationIdentity_ToString_m800036884
zW:__ZN20LocalFileSystemPosix4ReadER13FileEntryDatayyPvPy
e_a:__ZNSt3__211__sift_downIRN23ForwardShaderRenderLoop18RenderObjectSorterILb0EEEP21ForwardRenderPassDataEEvT0_S7_T_NS_15iterator_traitsIS7_E15difference_typeES7_
hYe:_UnmanagedMemoryStream_get_Position_m4093669769
cKf:__ZL83MethodDictionary_t1742974787_CustomAttributesCacheGenerator_U3CU3Ef__switchU24map21P21CustomAttributesCache
DIj:dynCall_iiiiiiffiiiiiiiiiffffiiii
RDb:__ZN13MonoBehaviour5DoGUIENS_13GUILayoutTypeEii
Jbf:_Kernel_Multiply_m1938858919
aHg:_DerivedType_IsDefined_m555719351
soi:_Mark_get_IsDefined_m3332701456
ybb:__ZNK12TLSAllocatorI14StackAllocatorE8ContainsEPKv
wyb:__ZN11TimeManager8TransferI18StreamedBinaryReadILb0EEEEvRT_
sXb:__ZN15SerializeTraitsINSt3__23mapI4PPtrI6ShaderEN4core12basic_stringIcNS5_20StringStorageDefaultIcEEEENS0_4lessIS4_EENS0_9allocatorINS0_4pairIKS4_S9_EEEEEEE8TransferI24GenerateTypeTreeTransferEEvRSH_RT_
F6e:_EncryptedPrivateKeyInfo__ctor_m3964541963
mqg:_DESTransform__cctor_m1179482644
klh:_EqualityComparer_1_System_Collections_IEqualityComparer_GetHashCode_m1465362976_gshared
g_g:_Object_t1021602117_marshal_pinvoke_cleanup
kvb:__ZN14BlendShapeData8TransferI14SafeBinaryReadEEvRT_
_zi:_TextGenerator_PopulateWithErrors_m467881283
OBd:_Enum_Format_m2294492821
oPf:__ZL81Convert_t2607082565_CustomAttributesCacheGenerator_Convert_ToDateTime_m3810846875P21CustomAttributesCache
Cpa:__ZN7Texture25ReloadFromStorageIfNeededEPvb
lBb:__ZN24GenerateTypeTreeTransfer8TransferINSt3__26vectorIN30RuntimeInitializeOnLoadManager15ClassMethodInfoE13stl_allocatorIS4_L18MemLabelIdentifier12ELi16EEEEEEvRT_PKc17TransferMetaFlags
Z9f:__ZL106PointerEventData_t1599784723_CustomAttributesCacheGenerator_PointerEventData_set_pressPosition_m2094137883P21CustomAttributesCache
zch:_ShimEnumerator_get_Entry_m2332479818_gshared
WFd:_BaseRaycaster_get_priority_m247683215
Jwd:_DateTime_CheckDateTimeKind_m329345155_AdjustorThunk
RLc:_Update_Max
Ugi:_PlayableHandle_Equals_m1435096530_AdjustorThunk
nfj:__ZN6il2cpp6icalls8mscorlib6SystemL15ThrowNoWideningEv
F$b:__ZNK23TransformChangeDispatch24GetChangeMaskForInterestENS_12InterestTypeE
xic:__Z45Transform_CUSTOM_INTERNAL_CALL_TransformPointP12Il2CppObjectRK8Vector3fRS1_
xve:__ZN23InterfaceActionInvoker2Ii18Color32_t874517518E6InvokeEjP11Il2CppClassP12Il2CppObjectiS0_
bbb:__ZL10KeyHandleriPK23EmscriptenKeyboardEventPv
TWi:__ZN14dense_hash_mapI10KeyWrapperI13dynamic_arrayIPK10Il2CppTypeLj4EEEPFvvEN6il2cpp8metadata19Il2CppSignatureHashENS6_14EqualsComparerINSA_22Il2CppSignatureCompareEEENSt3__29allocatorINSF_4pairIKS6_S8_EEEEEC2EjRKSB_RKSE_
nha:__ZNSt3__26__treeINS_12__value_typeI39DeprecatedFastPropertyNameSerializationfEENS_19__map_value_compareIS2_S3_NS_4lessIS2_EELb1EEENS_9allocatorIS3_EEE7destroyEPNS_11__tree_nodeIS3_PvEE
nFc:_tt_cmap4_char_index
KRh:__Z54RuntimeInvoker_Void_t1841601450_Vector2U26_t3911752445PK10MethodInfoPvPS2_
A6h:_AsyncOperation_get_allowSceneActivation_m2825451182
Twg:_TimeSpan_op_Addition_m3421801803
xLa:__ZNK12HandlerChain8IsHiddenERK13FileEntryData
Xbg:__ZL50Graphic_t2426225576_CustomAttributesCacheGeneratorP21CustomAttributesCache
AJb:__ZL26Transfer_SimpleNativeClassI17RemapPPtrTransfer10RectOffsetLb0EEvRK29SerializationCommandArgumentsR31RuntimeSerializationCommandInfo
kBc:__Z14ValidateFormatR13dynamic_arrayIN20TextRenderingPrivate16TextFormatChangeELj4EE
Dhe:_List_1__ctor_m2672294496_gshared
lCi:_Vector2_op_Implicit_m1064335535
Lvd:_DateTime_System_IConvertible_ToInt32_m2789391054_AdjustorThunk
h4e:_ASN1Convert_FromInt32_m1541043489
ZId:_PointerInputModule_ProcessMove_m3200120346
Xqd:_Convert_ToByte_m1008221737
ydf:_MD2Managed_MD2Transform_m3825201358
Cwe:_Collection_1_System_Collections_IList_IndexOf_m3976312928_gshared
Ddg:__ZL69Scrollbar_t3248359358_CustomAttributesCacheGenerator_m_OnValueChangedP21CustomAttributesCache
$Zi:_KeyValuePair_2__ctor_m3201181706_gshared
aUb:__ZNSt3__26vectorIN9ShaderLab20SerializedSubProgram13BufferBindingENS_9allocatorIS3_EEEC2ERKS6_
xig:_SoapFieldAttribute_get_XmlElementName_m4100905008
jPd:_Dropdown_AddOptions_m835420907
kDi:_Vector4_get_sqrMagnitude_m2115578799_AdjustorThunk
QLi:_Display_Start_m3446268861
I9f:__ZL107PointerEventData_t1599784723_CustomAttributesCacheGenerator_PointerEventData_get_rawPointerPress_m448871540P21CustomAttributesCache
sfa:__ZNK9ShaderLab20ShaderBlendStateDesc15ToGfxBlendStateEPK19ShaderPropertySheetS3_R13GfxBlendState
CEf:__ZL92Hashtable_t909839986_CustomAttributesCacheGenerator_Hashtable_t909839986____hcp_PropertyInfoP21CustomAttributesCache
zMd:_CanvasUpdateRegistry_IsRebuildingLayout_m1677873278
ESh:__Z64RuntimeInvoker_Boolean_t3825574718_PlayableHandleU26_t3483893774PK10MethodInfoPvPS2_
Rv:__ZN11UnityEngine9AnimationL22GenericBindingCallbackEPvS1_i
zLc:_Compute_Point_Displacement
cXb:__ZN9ShaderLab9IntShaderC2Ev
H1i:__ZN6il2cpp6icalls8mscorlib6SystemL9IsPrivateEPK9EventInfo
Byj:__ZN6il2cpp6icalls8mscorlib6System10Reflection4Emit11TypeBuilder20setup_internal_classEP27Il2CppReflectionTypeBuilderS7_
Rrh:_InternalEnumerator_1_System_Collections_IEnumerator_Reset_m3237341717_AdjustorThunk
nSi:__ZL25UnresolvedVirtualCall_177P12Il2CppObject23RaycastResult_t21186376S1_PK10MethodInfo
ZRg:_RectOffset_set_left_m620681523
oph:_ArrayReadOnlyList_1_IndexOf_m1809425308_gshared
M_h:__Z61RuntimeInvoker_Int32_t2071877448_ResourceCacheItem_t333236149PK10MethodInfoPvPS2_
t3i:_il2cpp_gc_disable
aE:__Z69AnimatorControllerPlayable_CUSTOM_INTERNAL_CALL_GetLayerIndexInternalR9HPlayableP12Il2CppString
IHd:_ExecuteEvents_U3Cs_HandlerListPoolU3Em__0_m2903690915
bod:_Hashtable_Clone_m165405752
pGg:_TypeBuilder_get_Name_m170882803
hHf:__ZL61CallingConventions_t1097349142_CustomAttributesCacheGeneratorP21CustomAttributesCache
QDh:__Z140RuntimeInvoker_Boolean_t3825574718_Il2CppObject_Int32_t2071877448_Il2CppObject_SByte_t454417549_Int64U26_t763825331_ExceptionU26_t1467204777PK10MethodInfoPvPS2_
wai:_Component_BroadcastMessage_m444672650
VUc:__ZN11UnityEngine15PlatformWrapper19GetPhysicalMemoryMBEv
Qag:__ZL144U3CStartU3Ec__Iterator0_t3220237554_CustomAttributesCacheGenerator_U3CStartU3Ec__Iterator0_System_Collections_IEnumerator_get_Current_m290565900P21CustomAttributesCache
DX:__Z15CreateDirectoryRKN4core12basic_stringIcNS_20StringStorageDefaultIcEEEE
Boa:__Z21CalculateGlobalMatrix23TransformAccessReadOnly
wDf:__ZL70InternalsVisibleToAttribute_t1037732567_CustomAttributesCacheGeneratorP21CustomAttributesCache
OSe:_MonoIO_GetCurrentDirectory_m1509324201
O2c:_SHA384Managed_adjustByteCounts_m410900820
Fsg:_UTF32Encoding_GetHashCode_m4205784236
Cif:_Context_get_ReceivedConnectionEnd_m3369356276
_ag:__ZL73U3COnFinishSubmitU3Ec__Iterator0_t99135383_CustomAttributesCacheGeneratorP21CustomAttributesCache
ZZb:__Z13RegisterClassI14RenderSettingsEvv
F2a:__ZNK25CameraStackRenderingState25CalculateCameraTargetTypeEv
Gzi:_TextGenerator_Finalize_m4242493229
ase:_Collection_1_ConvertItem_m3563206219_gshared
Qwg:_TimeSpan_Subtract_m3597791685_AdjustorThunk
LMg:_MonoCMethod_get_Name_m764669486
mgi:_AnimatorControllerPlayable_CrossFade_m3146661810
Ty:__ZN7mecanim12statemachine24CreateStateMachineOutputEPKNS0_20StateMachineConstantEjRNS_6memory9AllocatorE
yXg:_Logger__ctor_m3834134587
F2i:_il2cpp_assembly_get_image
qva:__ZNK9GfxDevice27GetActiveRenderSurfaceWidthEv
T_d:_SetPropertyUtility_SetClass_TisIl2CppObject_m3524554928_gshared
jdb:__ZNK11AssetBundle26GetTypeInfoVirtualInternalEv
Qvi:_PKCS12_get_Keys_m1312614820
lVc:__ZN11UnityEngine15PlatformWrapper28GetCleanGraphicsFixedVersionEv
aab:__ZN16MemoryFileSystem5WriteER13FileEntryDatayyPvPy
w:tempBigIntP
w5i:__ZN6il2cpp2vm4Type7GetTypeEPK10Il2CppType
xyf:_Interval_t2354235237_marshal_pinvoke_cleanup
z0g:_Rect_Contains_m1334685291_AdjustorThunk
Ped:_AssemblyLoadEventHandler_Invoke_m108373765
nVh:__Z64RuntimeInvoker_Boolean_t3825574718_Il2CppObject_Int64_t909078037PK10MethodInfoPvPS2_
YId:_PointerInputModule_ShouldStartDrag_m4163638715
sbg:__ZL61Dropdown_t1985816271_CustomAttributesCacheGenerator_m_OptionsP21CustomAttributesCache
uQi:__ZL24UnresolvedVirtualCall_76P12Il2CppObjectPK10MethodInfo
Fka:__ZN6prcoreL17RemapGenericFloatI18TexFormatRGBAFloat17TexFormatRGBAHalfEEvPKNS_9InnerInfoE
SQa:__Z16FindCameraStacksRKNSt3__24listI4PPtrI6CameraENS_9allocatorIS3_EEEERNS_6vectorI11CameraStackNS4_ISA_EEEE
ODi:_WebRequestUtils__cctor_m893658947
Nqb:__ZN10GISettings8TransferI14SafeBinaryReadEEvRT_
rn:FUNCTION_TABLE_vifff
lFe:_ReadOnlyCollection_1_System_Collections_Generic_ICollectionU3CTU3E_Remove_m2957273994_gshared
QFd:_BaseInputModule_ShouldActivateModule_m2899747874
Yca:__ZN13RenderTexture13ApplySettingsEv
SNf:__ZL92UTF8Encoding_t111055448_CustomAttributesCacheGenerator_UTF8Encoding_GetByteCount_m2547312609P21CustomAttributesCache
We:_JS_Sound_SetListenerPosition
kn:FUNCTION_TABLE_fiffi
rKg:_ModuleBuilderTokenGenerator_GetToken_m3427457873
$Cb:__ZN9TextAsset9SetScriptERKN4core12basic_stringIcNS0_20StringStorageDefaultIcEEEEb
r8g:_Selectable_get_isPointerInside_m3162215687
Rfe:_List_1_System_Collections_IList_Contains_m149594880_gshared
_lj:__ZNK15dense_hashtableINSt3__24pairIK10KeyWrapperINS1_IPKcS4_EEEiEES6_24NamespaceAndNamePairHashN14dense_hash_mapIS6_iS9_NS6_14EqualsComparerI26NamespaceAndNamePairEqualsEENS0_9allocatorIS8_EEE9SelectKeyESD_SF_E10test_emptyERK24dense_hashtable_iteratorIS8_S6_S9_SH_SD_SF_E
WPf:__ZL78Convert_t2607082565_CustomAttributesCacheGenerator_Convert_ToSByte_m2585959569P21CustomAttributesCache
D0g:_Rect_Overlaps_m4145874649
XBg:_UnauthorizedAccessException__ctor_m3480402128
w3e:_BigInteger_op_Modulus_m3788401748
ani:_ArgInfo_GetInOutArgs_m3184132151
Jma:__ZNK8Material16MarkDependenciesER27GarbageCollectorThreadState
pOf:__ZL85Thread_t241561612_CustomAttributesCacheGenerator_Thread_get_CurrentThread_m3667342817P21CustomAttributesCache
Trc:__ZL17Transfer_GUIStyleI9JSONWriteLb0EEvRK29SerializationCommandArgumentsR31RuntimeSerializationCommandInfo
hDg:_Random__ctor_m1561335652
EUa:__Z28GetHaloVertexPositionsStereoP8Vector3fRKS_S2_f
vla:__ZN6prcoreL27StretchGenericFloatBilinearI15TexFormatRGHalfEEvPKNS_9InnerInfoE
F7f:__ZL85UnityEvent_1_t4075366602_CustomAttributesCacheGenerator_UnityEvent_1__ctor_m152711818P21CustomAttributesCache
Kce:_Enumerator_MoveNext_m598197344_AdjustorThunk
cRi:__ZL25UnresolvedVirtualCall_112P12Il2CppObjectsS0_aaaPK10MethodInfo
xbi:_DisplaysUpdatedDelegate_Invoke_m3646339243
szi:_TextGenerationSettings_t2543476768_marshal_pinvoke_back
S9c:_String_JoinUnchecked_m1880555587
Jfa:__ZNK9ShaderLab7Program21GetMatchingSubProgramEPK6ShaderPKNS_4PassERK16ShaderKeywordSetjPS7_R19ShaderSnippetResult
U4d:_Array_InternalArray__Insert_TisKeyValuePair_2_t1174980068_m2464431954_gshared
bVf:__ZL109AsyncOperation_t3814632279_CustomAttributesCacheGenerator_AsyncOperation_set_allowSceneActivation_m3988498951P21CustomAttributesCache
$gc:__Z49Register_UnityEngine_Resources_GetBuiltinResourcev
Vri:_BalancingGroup_set_Balance_m3452171919
zFc:_tt_cmap10_char_index
fPd:_Dropdown_Awake_m335654827
S7:__Z18GetITerrainManagerv
bih:_Dictionary_2_U3CCopyToU3Em__0_m1479035402_gshared
Uld:_BitArray_set_Item_m3801461194
NJd:_StandaloneInputModule_get_cancelButton_m1563746440
nNi:__ZN15dense_hashtableINSt3__24pairIK10KeyWrapperIPK22Il2CppGenericParameterEP11Il2CppClassEES6_N6il2cpp5utils11PointerHashIS4_EEN14dense_hash_mapIS6_S9_SE_NS6_14EqualsComparerINS0_8equal_toIS5_EEEENS0_9allocatorISA_EEE9SelectKeyESJ_SL_E3endEv
v9c:_String_Remove_m3580114465
vCc:_UNITY_FT_Destroy_Class_cff_field_handlers
KVb:__ZN9ShaderLab22SerializedBindChannels8TransferI19StreamedBinaryWriteILb0EEEEvRT_
bCf:__ZL65Il2CppArray_CustomAttributesCacheGenerator_Array_Copy_m1969461849P21CustomAttributesCache
Rqh:_InternalEnumerator_1_MoveNext_m1791963761_AdjustorThunk
Wrf:_WebHeaderCollection_AddWithoutValidate_m1479880592
LHf:__ZL56ParameterInfo_t2249040075_CustomAttributesCacheGeneratorP21CustomAttributesCache
Mji:_UrlAttribute_get_UrlValue_m3448699483
ZWf:__ZL83GameObject_t1756533147_CustomAttributesCacheGenerator_GameObject_set_tag_m717375123P21CustomAttributesCache
mSg:_Mathf_Max_m1875893177
yBg:_UIntPtr__ctor_m2737768530
PAc:_UNITY_FT_Stream_ReadUShort
n7h:_Bounds_get_center_m129401026_AdjustorThunk
CVd:_InputField_OnEnable_m3797157569
Cdc:__Z51Register_UnityEngine_GUILayer_INTERNAL_CALL_HitTestv
Bjc:__Z50Register_UnityEngine_Object_FindSceneObjectsOfTypev
Oga:__ZNSt3__26__treeINS_12__value_typeIN4core12basic_stringIcNS2_20StringStorageDefaultIcEEEES6_EENS_19__map_value_compareIS6_S7_NS_4lessIS6_EELb1EEE13stl_allocatorIS7_L18MemLabelIdentifier1ELi16EEE7destroyEPNS_11__tree_nodeIS7_PvEE
SEi:_Nullable_1__ctor_m796575255_gshared
Vsj:__ZN6il2cpp2vm8Profiler7GCEventE13Il2CppGCEvent
Vvd:_DateTimeUtils_ToString_m3878360633
mfj:__ZN6il2cpp6icalls8mscorlib6SystemL16ThrowInvalidCastEPK11Il2CppClassS5_
myh:_InternalEnumerator_1_get_Current_m3732458101_AdjustorThunk
zzb:__ZN12AspectRatios8TransferI24GenerateTypeTreeTransferEEvRT_
cKd:_StandaloneInputModule_ForceAutoSelect_m1167170508
lgf:_Context_get_ServerWriteIV_m2960700649
V3h:_CustomEventData_AddUInt64_m1437973832
nKd:_TouchInputModule_Process_m1373751353
Mf:_emscripten_glUniform1fv
fgb:__ZNK17FileSystemHandler8IsHiddenERK13FileEntryData
zNi:__ZN6il2cpp2vm5Class13GetArrayClassEP11Il2CppClassj
aJ:__ZN4FMOD7Channel7setModeEj
NGg:_DerivedType_InvokeMember_m4149586013
gU:__ZN13EmscriptenWWW6CancelEv
eof:_TlsStream_SetLength_m1460039587
Gmc:__ZN11IMGUIModule12AddGUIScriptER8ListNodeI13MonoBehaviourE
nb:invoke_difi
iId:_PointerEventData_set_rawPointerPress_m1484888025
z7:__ZL50StaticRegisterSceneLoadedCallback_LightmapSettingsPv
gld:_SimpleEnumerator_Clone_m215554974
IXa:__ZN29MotionVectorRenderLoopScratch15ThreadedCleanupEv
Km:FUNCTION_TABLE_iiffi
lSd:_GridLayoutGroup_get_cellSize_m1061731753
llh:_EqualityComparer_1_System_Collections_IEqualityComparer_Equals_m300683774_gshared
_za:__ZN21GLESGpuProgramApplier11ApplyVectorERKN20GpuProgramParameters14ValueParameterEPK8Vector4ft
q0a:__Z17PrepareSceneNodesP11CullResults
rDi:_Vector4_ToString_m2340321043_AdjustorThunk
sla:__ZN6prcoreL27StretchGenericFloatBilinearI18TexFormatRGBAFloatEEvPKNS_9InnerInfoE
Ysi:_Parser_IsIgnoreCase_m4155598997
Eij:__ZN15dense_hashtableINSt3__24pairIK10KeyWrapperIP14Il2CppIUnknownEjEES5_N6il2cpp5utils11PointerHashIS3_EEN14dense_hash_mapIS5_jSB_NS5_14EqualsComparerINS0_8equal_toIS4_EEEENS0_9allocatorIS7_EEE9SelectKeyESG_SI_E12expand_arrayEjN21dense_hash_map_traits17integral_constantIbLb0EEE
OHc:_cff_size_done
qlh:_EqualityComparer_1_System_Collections_IEqualityComparer_Equals_m3376587337_gshared
WRa:__ZN22RenderingCommandBuffer13GetAndCheckRTE24BuiltinRenderTextureTypeRKN9ShaderLab16FastPropertyNameEPKcPP13RenderTexture
c7a:__ZN6Camera34UpdatePreviousViewProjectionMatrixEv
Mfa:__ZN9ShaderLab11ShaderState25RemoveUnsupportedProgramsEPK6Shader
vWb:__ZL23AddGpuProgramParametersR20GpuProgramParametersRKNSt3__26vectorIN9ShaderLab20SerializedSubProgram15MatrixParameterENS1_9allocatorIS5_EEEERKNS2_INS4_15VectorParameterENS6_ISB_EEEEiP16PropertyNamesSet
AUf:__ZL179U3CCreateWhereIteratorU3Ec__Iterator1D_1_t2523986802_CustomAttributesCacheGenerator_U3CCreateWhereIteratorU3Ec__Iterator1D_1_System_Collections_IEnumerator_get_Current_m1354814095P21CustomAttributesCache
tjc:__Z44Register_UnityEngine_Object_DestroyImmediatev
$Ef:__ZL57CompareOptions_t2829943955_CustomAttributesCacheGeneratorP21CustomAttributesCache
Occ:__Z47Register_UnityEngine_Component_BroadcastMessagev
rr:__ZN18StreamedBinaryReadILb0EE21TransferSTLStyleArrayI13dynamic_arrayI4PPtrI6ObjectELj4EEEEvRT_17TransferMetaFlags
UIf:__ZL62_ConstructorBuilder_t1236878896_CustomAttributesCacheGeneratorP21CustomAttributesCache
i9b:__Z26scripting_class_has_parent17ScriptingClassPtrS_
jQe:_Int64_System_IConvertible_ToInt16_m2022633688_AdjustorThunk
G6:__ZN13RuntimeStaticI21AssetReferenceStorageLb0EE16StaticInitializeEPv
fBj:__ZN6il2cpp8metadata25Il2CppGenericClassCompare7CompareEPK18Il2CppGenericClassS4_
vu:__ZNK8Animator20IsInMatchTargetStateEv
lnc:__Z36Register_UnityEngine_GUI_set_changedv
uNd:_ColorTween_get_startColor_m278546349_AdjustorThunk
N6c:_Encoding_get_Unicode_m1382741113
mli:_LifetimeServices_set_SponsorshipTimeout_m1403222216
$_d:_SetPropertyUtility_SetStruct_TisFitMode_t4030874534_m2608169783_gshared
FIh:__Z64RuntimeInvoker_Single_t2076509932_Il2CppObject_Int32_t2071877448PK10MethodInfoPvPS2_
kjd:_Char_ToString_m1401375624_AdjustorThunk
M2d:_Array_InternalArray__ICollection_Add_TisTableRange_t2011406615_m147373358_gshared
bsd:_Convert_ToDateTime_m1251728572
O2d:_Array_InternalArray__ICollection_Add_TisBoolean_t3825574718_m1009318882_gshared
gGe:_ReadOnlyCollection_1_System_Collections_IList_set_Item_m1149349508_gshared
Dy:__ZN27AnimationLayerMixerPlayable18SetInputConnectionEP8Playablei
Poc:__Z42Register_UnityEngine_GUIStyle_get_wordWrapv
wmg:_ObjectReader_ReadObjectContent_m3949770110
Hke:_List_1_System_Collections_ICollection_get_SyncRoot_m3031553207_gshared
sai:_Component_SendMessage_m4199581575
_sa:__ZZ19InitializeGfxDevice20GfxCreateDeviceFlagsEN38PreLateUpdateEndGraphicsJobsLatestruct7ForwardEv
ZOi:__ZN6il2cpp2vm5Class40GetInterfaceInvokeDataFromVTableSlowPathEPK12Il2CppObjectPK11Il2CppClassj
Qbg:__ZL69FontData_t2614388407_CustomAttributesCacheGenerator_m_AlignByGeometryP21CustomAttributesCache
Zkb:__ZN20TierGraphicsSettings8TransferI18StreamedBinaryReadILb0EEEEvRT_
hah:_Text_get_font_m3115501113
wej:__GLOBAL__sub_I_Thread_cpp
Zga:__ZN14SafeBinaryRead8TransferINSt3__24pairIN9ShaderLab16FastPropertyNameE10ColorRGBAfEEEEvRT_PKc17TransferMetaFlags
NJi:__ZL9rshift128PyS_
qmg:_ObjectReader_RecordFixup_m1893348030
HHg:_EnumBuilder_GetElementType_m1228393631
kcj:__ZN14dense_hash_mapI10KeyWrapperINSt3__24pairIPK12PropertyInfoP11Il2CppClassEEEj17ReflectionMapHashIS8_ENS9_14EqualsComparerINS1_8equal_toIS8_EEEENS1_9allocatorINS2_IKS9_jEEEEE13set_empty_keyERSH_
bk:_glRenderbufferStorage
cmj:__ZNK15dense_hashtableINSt3__24pairIK10KeyWrapperINS1_IPKcS4_EEEiEES6_24NamespaceAndNamePairHashN14dense_hash_mapIS6_iS9_NS6_14EqualsComparerI26NamespaceAndNamePairEqualsEENS0_9allocatorIS8_EEE9SelectKeyESD_SF_E13find_positionERS7_
sGf:__ZL80ILGenerator_t99948092_CustomAttributesCacheGenerator_ILGenerator_Emit_m116557729P21CustomAttributesCache
ozf:__ZL43Il2CppObject_CustomAttributesCacheGeneratorP21CustomAttributesCache
Xec:__Z45Register_UnityEngine_Input_get_touchSupportedv
pVc:__ZN11UnityEngine15PlatformWrapper28GetTextureFormatSupportFlagsEv
pDc:_UNITY_FT_Create_Class_pshinter_module_class
fUh:__Z103RuntimeInvoker_Void_t1841601450_Vector2U26_t3911752445_Il2CppObject_Il2CppObject_Vector2U26_t3911752445PK10MethodInfoPvPS2_
Z8c:_String_CompareOrdinalCaseInsensitiveUnchecked_m2002640463
Egd:_Boolean_GetHashCode_m1894638460
rIc:_cf2_setError
vaf:_AppDomainInitializer_BeginInvoke_m2446455399
JBg:_UIntPtr_ToUInt32_m1679632738_AdjustorThunk
Xsg:_UTF7Encoding_InternalGetChars_m4157428055
uoa:__Z33InterpolateLightProbeCoefficientsRK17LightProbeContextRK29LightProbeSamplingCoordinatesR20SphericalHarmonicsL2
EZf:__ZL86Texture_t2243626319_CustomAttributesCacheGenerator_Texture_Internal_GetWidth_m56137242P21CustomAttributesCache
I5e:_SmallXmlParser_HandleBufferedContent_m3397096753
_g:_glDisable
KWd:_InputField_OnDeselect_m3963675647
Drh:_InternalEnumerator_1_MoveNext_m1994485778_AdjustorThunk
oSc:__Z44Register_UnityEngine_Canvas_get_pixelPerfectv
p_i:_KeyValuePair_2_get_Value_m1916631176_AdjustorThunk
REg:_MethodBase__ctor_m3951051358
Dnb:__ZN4PPtrI9Texture2DE8TransferI14SafeBinaryReadEEvRT_
moj:__ZN6il2cpp5utils11StringUtils15StringDuplicateEPKDsj
TOd:_Dropdown_get_template_m3014799983
Owf:_BaseMachine_Scan_m122450399
Egi:_AnimatorControllerPlayable_PlayInternal_m3385259863
Yjd:_ArrayList_CopyTo_m2353632788
YGf:__ZL71AssemblyFileVersionAttribute_t2897687916_CustomAttributesCacheGeneratorP21CustomAttributesCache
F1h:__Z33RuntimeInvoker_Color32_t874517518PK10MethodInfoPvPS2_
t7:__ZNSt3__26vectorINS_4pairIyP17VertexDeclarationEENS_9allocatorIS4_EEE6assignIPS4_EENS_9enable_ifIXaasr21__is_forward_iteratorIT_EE5valuesr16is_constructibleIS4_NS_15iterator_traitsISB_E9referenceEEE5valueEvE4typeESB_SB_
Vhe:_List_1_Add_m943275925_gshared
o_h:__Z100RuntimeInvoker_Int32_t2071877448_Il2CppObject_Color32_t874517518_Int32_t2071877448_Int32_t2071877448PK10MethodInfoPvPS2_
x_c:_HMAC_get_BlockSizeValue_m603907214
$Xa:__ZNK8Material12GetPassCountEv
Cpd:_Enumerator__cctor_m3784927209
gRj:b110
hRj:b111
iRj:b112
gGj:_bitshift64Ashr
kRj:b114
lRj:b115
mRj:b116
Aga:__ZNK8Material26GetTypeInfoVirtualInternalEv
J8h:_WillRenderCanvases_EndInvoke_m3215676440
ABa:__ZN4crnd12crn_unpacker22decode_alpha_endpointsEv
q1a:__Z23CullDynamicObjectsUmbraPK4AABBPKN5Umbra15OcclusionBufferER9IndexList
Lgg:__ZL67FieldWithTarget_t2256174789_CustomAttributesCacheGenerator_m_TargetP21CustomAttributesCache
Xwe:_Collection_1_RemoveItem_m2565709010_gshared
oFc:_tt_cmap4_char_next
KVh:__Z86RuntimeInvoker_Void_t1841601450_Il2CppObject_StringU26_t638738783_StringU26_t638738783PK10MethodInfoPvPS2_
PPb:__ZN18StreamedBinaryReadILb1EE21TransferSTLStyleArrayI13dynamic_arrayIiLj4EEEEvRT_17TransferMetaFlags
h$:__ZN17DirectorFrameTime14ResetDSPValuesEv
Gze:_Collection_1_ClearItems_m1649070779_gshared
Qui:_GeneralNames_ToString_m800435094
nLd:_BaseMeshEffect_OnDidApplyAnimationProperties_m2484799839
wLf:__ZL73AsymmetricSignatureDeformatter_t3580832979_CustomAttributesCacheGeneratorP21CustomAttributesCache
bkf:_TlsServerCertificate_validateCertificates_m1988583701
IWf:__ZL97GameObject_t1756533147_CustomAttributesCacheGenerator_GameObject__ctor_m1633632305____components1P21CustomAttributesCache
R_a:__ZN23ForwardShaderRenderLoopD2Ev
qIa:__ZN9GfxDevice20SetComputeBufferDataE15ComputeBufferIDPKvj
wzg:_UInt16_Parse_m3560204090
uvc:__ZN8JSONRead21TransferSTLStyleArrayI13dynamic_arrayIsLj2EEEEvRT_18MemLabelIdentifier17TransferMetaFlags
OI:__ZN4FMOD7Channel11setPositionEjj
Sh:_glBindSampler
w8:__Z22CreateMutexLockedQueuev
vHe:_ReadOnlyCollection_1_System_Collections_Generic_ICollectionU3CTU3E_Clear_m964488020_gshared
T6c:_SecurityFrame_get_Domain_m3219347572_AdjustorThunk
Wh:_glGetVertexAttribiv
_1c:_SHA1__ctor_m788472966
Q2d:_Array_InternalArray__ICollection_Add_TisChar_t3454481338_m422084244_gshared
zUi:__ZNSt3__218uninitialized_fillIPNS_4pairIK10KeyWrapperIPKcEP11Il2CppClassEES9_EEvT_SB_RKT0_
ZNc:__ZN2UI11CanvasGroup23VirtualRedirectTransferER18StreamedBinaryReadILb0EE
Ddh:_Transform_1_EndInvoke_m803975703_gshared
sHe:_ReadOnlyCollection_1_get_Item_m3778245964_gshared
$Qf:__ZL52EventArgs_t3289624707_CustomAttributesCacheGeneratorP21CustomAttributesCache
efi:_AnimatorControllerPlayable_GetLayerName_m2571001466
Buc:__ZN8JSONRead8TransferIbEEvRT_PKc17TransferMetaFlagsb
qte:_Collection_1_RemoveAt_m290627370_gshared
T4h:_AnimationEvent_get_objectReferenceParameter_m3565420672
fId:_PointerEventData_get_lastPress_m3835070463
hXg:_DefaultValueAttribute_Equals_m3216982933
Vsf:_X509KeyUsageExtension_Decode_m3292847033
J7:__ZN26SharedLightmapSettingsDataD2Ev
uMg:_Module_filter_by_type_name_ignore_case_m3574895736
lKf:__ZL57ProxyAttribute_t4031752430_CustomAttributesCacheGeneratorP21CustomAttributesCache
xqb:__ZN26CustomRenderTextureManager19PreAllocateMaterialEP19CustomRenderTexture
Ixc:__ZN19ControllerHitReport13onObstacleHitERKN5physx23PxControllerObstacleHitE
Ylg:_ObjectReader_ReadObject_m397855326
Qtj:_GC_promote_black_lists
mTd:_Image_get_fillAmount_m3354146540
mvc:__Z29Transfer_Blittable_ArrayFieldI8JSONRead8Vector4fEvRT_R9ArrayInfoRK23StaticTransferFieldInfo
Cfe:_List_1_Sort_m1518807012_gshared
rBc:__ZNK13TextRendering4Font9GetAscentEv
Rn:FUNCTION_TABLE_vf
po:FUNCTION_TABLE_vd
dyg:_Type_GetMethod_m1930231379
ro:FUNCTION_TABLE_vi
ilg:_WellKnownServiceTypeEntry_ToString_m493996021
ZFf:__ZL55StreamReader_t2360341767_CustomAttributesCacheGeneratorP21CustomAttributesCache
HWg:_HumanBone_get_humanName_m2091758568_AdjustorThunk
TJf:__ZL51IMessage_t3044378324_CustomAttributesCacheGeneratorP21CustomAttributesCache
Y0e:_SimpleCollator_GetContraction_m1391584430
Hgd:_CultureInfo_get_InvariantCulture_m398972276
hgd:_Boolean_System_IConvertible_ToInt64_m4142756949_AdjustorThunk
yVf:__ZL84Camera_t189460977_CustomAttributesCacheGenerator_Camera_get_targetTexture_m705925974P21CustomAttributesCache
EC:__ZNK8Animator17HasBoundPlayablesEv
mdf:_HMAC_initializePad_m3828610671
b$f:__ZL68DrivenTransformProperties_t2488747555_CustomAttributesCacheGeneratorP21CustomAttributesCache
$ie:_List_1_Contains_m980727749_gshared
H1c:_RSAParameters_t1462703416_marshal_pinvoke_cleanup
sli:_ConfigHandler_OnChars_m2004226744
y6h:_AsyncOperation_get_priority_m966065939
ua:invoke_iiifiii
sgj:__ZN6il2cpp2vm9Exception11FromNameMsgEPK11Il2CppImagePKcS6_S6_
RLe:_NumberFormatInfo_get_NumberDecimalDigits_m3706097953
Oxg:_Type_internal_from_name_m1506974323
bn:FUNCTION_TABLE_fiiifii
Elb:__ZN5LightD2Ev
ZB:__ZN10HumanTrait15InitializeClassEv
w$:__Z14GetTimeManagerv
a0f:__ZL143AnimatorControllerPlayable_t4078305555_CustomAttributesCacheGenerator_AnimatorControllerPlayable_INTERNAL_CALL_GetLayerNameInternal_m2049776925P21CustomAttributesCache
KSh:__Z67RuntimeInvoker_Void_t1841601450_Scene_t1684909666_Int32_t2071877448PK10MethodInfoPvPS2_
IZc:__ZN19TransportJavaScript7CleanupEv
jhb:__Z12GUIDToStringRK9UnityGUIDPc
Meb:__ZN15FileSystemEntry4LockE12FileLockModeP12FileAccessor
BYd:_Array_get_swapper_TisIl2CppObject_m1701356863_gshared
dM:__ZN11AudioSource22UnmuteActiveVideoSinksEv
joj:__ZN4utf88internal20is_overlong_sequenceIiEEbjT_
Pi:_glReadBuffer
iJh:__Z31RuntimeInvoker_SByte_t454417549PK10MethodInfoPvPS2_
mld:_SynchronizedArrayListWrapper_get_Count_m4104930530
q_c:_HashAlgorithm_get_HashSize_m2625667696
hZa:__Z30SetupBakedOcclusionForGeometrybRK26SharedLightmapSettingsDataRK15LightmapIndicesR17ShaderPassContext
J7d:_Array_Resize_TisVector4_t2243707581_m1528805937_gshared
P4c:_SecurityPermission_IsSubsetOf_m1087302418
Ucc:__Z41Register_UnityEngine_Cursor_get_lockStatev
GYa:__Z14SetupLightmapsRK8Vector4fS1_R17ShaderPassContext
Ayf:_Interval_get_Empty_m3170923997
ARg:_GUILayoutEntry_CalcWidth_m2520096159
u$b:__Z20DestroyObjectDelayedP6Objectf
OU:__ZN20DynamicHeapAllocatorI17LowLevelAllocatorED0Ev
ZVd:_InputField_OnDrag_m726194348
bji:_GuidAttribute__ctor_m1099153635
e2e:_PreviousInfo__ctor_m1442166472_AdjustorThunk
TVa:__ZN9DepthPassD2Ev
rwd:_DateTime_get_Kind_m1331920314_AdjustorThunk
IH:__ZN11AudioFilter6GetDSPEv
CTi:__ZN13Il2CppHashMapIPKcP11Il2CppClassN6il2cpp5utils11StringUtils12StringHasherIS1_EENS6_21CaseSensitiveComparerENSt3__29allocatorINSA_4pairIK10KeyWrapperIS1_ES3_EEEEEC2EjRKS8_RKS9_
hAc:__ZN20TextRenderingPrivate15DynamicFontData36GetFaceForCharacterIfAvailableInFontERKNS_7FontRefERKNSt3__26vectorI4PPtrIN13TextRendering4FontEE13stl_allocatorIS9_L18MemLabelIdentifier34ELi16EEEEj
D1:__ZN19RuntimeSceneManager14CanUnloadSceneEP10UnityScene
hWa:__Z22ExtractRenderNodeQueueRK11CullResults15ExtractionFlagsR15RenderNodeQueue
F6d:_Array_InternalArray__set_Item_TisContentType_t1028629049_m703420360_gshared
Opj:__ZN6il2cpp2vm6Method7GetNameEPK10MethodInfo
_qe:_List_1_set_Item_m1431784996_gshared
WG:__ZN24AudioScriptBufferManagerC2Ev
vwc:__ZN11UnityEngine9Analytics18SceneLoadTimeEvent12ToJsonStringER9JSONWrite
Jzc:__ZNSt3__26vectorIh13stl_allocatorIhL18MemLabelIdentifier1ELi16EEE8__appendEj
GXc:__ZN13RuntimeStaticI19UnityConnectServiceLb0EE13StaticDestroyEPv
Mzc:__ZN20TextRenderingPrivate8FontImpl16ResetPackingDataEv
ewg:_TimeSpan_get_Hours_m3804628138_AdjustorThunk
G1d:_Array_InternalArray__IndexOf_TisLink_t865133271_m3612939760_gshared
$qc:__Z18Transfer_BlittableI9JSONWriteLb0EfEvRK29SerializationCommandArgumentsR31RuntimeSerializationCommandInfo
jda:__Z21GetAsyncUploadManagerv
Gj:_emscripten_glDetachShader
DBg:_UIntPtr__cctor_m889490270
e0e:_SafeHandleZeroOrMinusOneIsInvalid_get_IsInvalid_m2033528032
Yid:_Char_IsUpper_m4083577610
MAa:__ZN17GenericDynamicVBO20ReleaseChunkInternalERK21DynamicVBOChunkHandlejj
CMc:__ZL27CleanupModule_TextRenderingv
d0e:_SafeHandleZeroOrMinusOneIsInvalid__ctor_m3340306667
JCj:_fmodl
qjg:_SerializationInfo_AddValue_m902275108
XCj:_fmodf
Qze:_Collection_1_RemoveItem_m2272047354_gshared
fea:__ZN12CachedWriter11Align4WriteEv
kXa:__Z20DoDeferredRenderLoopR17RenderLoopContextR13dynamic_arrayI16RenderObjectDataLj4EES4_RK11CullResultsRP13RenderTextureSA_Pb
sra:__ZNSt3__26vectorIiNS_9allocatorIiEEE21__push_back_slow_pathIKiEEvRT_
E1f:__ZL137AnimatorControllerPlayable_t4078305555_CustomAttributesCacheGenerator_AnimatorControllerPlayable_INTERNAL_CALL_ResetTriggerID_m3592790433P21CustomAttributesCache
Vra:__ZN19RuntimeSceneManager11CreateSceneEv
log:_RuntimeTypeHandle__ctor_m235560320_AdjustorThunk
EHc:_ps_get_standard_strings
Uue:_Collection_1_IsValidItem_m1908012838_gshared
gZa:__Z27SetupBakedOcclusionForLightbRK15SharedLightDataR17ShaderPassContext
Czj:__ZN6il2cpp2os5Mutex6UnlockEv
Jqf:__ZN21InterfaceFuncInvoker1IP13Uri_t19570940S1_E6InvokeEjP11Il2CppClassP12Il2CppObjectS1_
JSi:__ZL25UnresolvedVirtualCall_199P12Il2CppObject22Navigation_t1571958496PK10MethodInfo
v7g:_ScrollRect_OnScroll_m3346515304
B0f:__ZL137AnimatorControllerPlayable_t4078305555_CustomAttributesCacheGenerator_AnimatorControllerPlayable_CrossFadeInFixedTimeInternal_m3729673154P21CustomAttributesCache
mFj:__ZN10__cxxabiv116__shim_type_infoD2Ev
Gde:_Enumerator_System_Collections_IEnumerator_get_Current_m3461301268_gshared
Vgh:_Dictionary_2_CopyToCheck_m1638253305_gshared
rRa:__Z18RenderImageFiltersR10RenderLoopb
AU:__Z19free_alloc_internalPv18MemLabelIdentifier
Ggb:__ZNK23ArchiveStorageConverter16GetDirectoryInfoEv
$Qc:__Z43CanvasRenderer_Get_Custom_PropMaterialCountP12Il2CppObject
MXg:__ZN23InterfaceActionInvoker2IP21Exception_t1927440687P18Object_t1021602117E6InvokeEjP11Il2CppClassP12Il2CppObjectS1_S3_
a5a:__ZN10GameObjectD2Ev
ACe:_ReadOnlyCollection_1_System_Collections_Generic_IListU3CTU3E_set_Item_m25653560_gshared
fRg:_GUIContent_t4210063000_marshal_pinvoke_cleanup
lp:__ZN6Object23VirtualRedirectTransferER19StreamedBinaryWriteILb1EE
kac:__ZNK9BlobWrite24HasOffsetPtrWithDebugPtrEv
geg:__ZL68Selectable_t1490392188_CustomAttributesCacheGenerator_m_InteractableP21CustomAttributesCache
MBb:__ZN33AssetBundleLoadFromAsyncOperation12IsCrc32ValidEv
S9h:_Color32_op_Implicit_m889975790
ddi:_UnityEventBase_RebuildPersistentCallsIfNeeded_m1583202007
mff:_CertificateSelectionCallback_Invoke_m2902629105
Z6:__ZN10InputEventD2Ev
kLe:_DateTimeFormatInfo_GetAllDateTimePatternsInternal_m1587126173
ZBi:_Vector2_ToString_m775491729_AdjustorThunk
m5c:_Evidence__ctor_m1638117806
Bwe:__ZN21InterfaceFuncInvoker1Ib22UICharInfo_t3056636800E6InvokeEjP11Il2CppClassP12Il2CppObjectS0_
AKe:_NumberFormatter_Append_m3268121457
Yaj:__ZNK15dense_hashtableINSt3__24pairIK10KeyWrapperIPK14Il2CppAssemblyEPK16MonoAssemblyNameEES6_N6il2cpp5utils11PointerHashIS4_EEN14dense_hash_mapIS6_SA_SF_NS6_14EqualsComparerINS0_8equal_toIS5_EEEENS0_9allocatorISB_EEE9SelectKeyESK_SM_E3endEv
xsh:_InternalEnumerator_1_Dispose_m3578333724_AdjustorThunk
q1c:_RSA_ToXmlString_m4145056574
Vaa:__Z20SetPlayerPauseDirect11PlayerPause
cBd:_Double_System_IConvertible_ToUInt64_m1318285078_AdjustorThunk
oCj:_isalpha
N3i:_il2cpp_object_unbox
b6g:_Selectable_FindSelectable_m2739582497
sgb:__ZN17FileSystemHandler5TouchER13FileEntryData
ZSd:_LayoutGroup_GetAlignmentOnAxis_m1783063916
Xvd:_DateTimeUtils_ZeroPad_m86470512
DZh:__Z73RuntimeInvoker_Boolean_t3825574718_CustomAttributeNamedArgument_t94157543PK10MethodInfoPvPS2_
q$i:__ZN6il2cpp2vmL17IsSocketAsyncCallEP14Il2CppDelegate
Q7h:_Camera_get_clearFlags_m1743144302
FXg:_Logger_IsLogTypeAllowed_m1750132386
jsj:__ZN6il2cpp2vm6String6NewLenEPKcj
Yib:__ZN6Camera23VirtualRedirectTransferER19StreamedBinaryWriteILb0EE
_oj:__ZN6il2cpp2os6Thread12GetApartmentEv
GIa:__ZN9GfxDevice28UpdateComputeConstantBuffersEjP12ObjectHandleI18ConstantBuffer_TagPvEjjPKhPKjS8_PKi
Vk:_time
b0c:_RC2Transform__cctor_m4079629627
s$h:__Z60RuntimeInvoker_Void_t1841601450_ResourceCacheItem_t333236149PK10MethodInfoPvPS2_
icg:__ZL79GraphicRaycaster_t410733016_CustomAttributesCacheGenerator_U3CU3Ef__amU24cache0P21CustomAttributesCache
Wnh:_EqualityComparer_1_System_Collections_IEqualityComparer_Equals_m1091252481_gshared
KRd:_Graphic_UnregisterDirtyLayoutCallback_m1724443555
idf:_CryptoConvert_ToHex_m2874017189
_Ic:_cf2_stack_free
a2:__ZN15dense_hashtableINSt3__24pairIKiP6ObjectEEi21InstanceIDHashFunctorN14dense_hash_mapIiS4_S6_NS0_8equal_toIiEE13stl_allocatorIS5_L18MemLabelIdentifier65ELi16EEE9SelectKeyES9_SC_E12resize_deltaEjj
Efg:__ZL94LayoutGroup_t3962498969_CustomAttributesCacheGenerator_LayoutGroup_DelayedSetDirty_m4276695617P21CustomAttributesCache
DA:__ZN8Animator31ClearInternalControllerPlayableEv
v5a:__ZN10GameObject8TransferI24GenerateTypeTreeTransferEEvRT_
jee:_Enumerator_VerifyState_m3913376581_gshared
hfg:__ZL72GridLayoutGroup_t1515633077_CustomAttributesCacheGenerator_m_StartCornerP21CustomAttributesCache
yUf:__ZL83U3CCreateWhereIteratorU3Ec__Iterator1D_1_t2523986802_CustomAttributesCacheGeneratorP21CustomAttributesCache
C6i:__ZN15dense_hashtableINSt3__24pairIK10KeyWrapperINS1_IPK9FieldInfoP11Il2CppClassEEEjEES9_17ReflectionMapHashIS8_EN14dense_hash_mapIS9_jSD_NS9_14EqualsComparerINS0_8equal_toIS8_EEEENS0_9allocatorISB_EEE9SelectKeyESI_SK_E4findERSA_
_Pj:_glDeleteSync__wrapper
nyi:_SerializePrivateVariables__ctor_m806793207
Bsd:_Decimal_op_Implicit_m623319612
Jeh:_ValueCollection_System_Collections_Generic_ICollectionU3CTValueU3E_Remove_m98888100_gshared
IGd:_EventTrigger_OnPointerExit_m2119176877
cvg:_ThreadAbortException__ctor_m1623816114
k0b:__ZN13ProduceHelperI30RuntimeInitializeOnLoadManagerLb0EE7ProduceE18MemLabelIdentifier18ObjectCreationMode
t3a:__ZN13RenderTexture19SetAutoGenerateMipsEb
cja:__Z20GetTextureFormatInfo13TextureFormat
Noc:__Z43Register_UnityEngine_GUIStyle_get_alignmentv
A2b:__Z40InitializeLightAnimationBindingInterfacev
wz:__ZN26AnimatorControllerPlayable8GetFloatEiRf
f4g:_Shadow__ctor_m924057531
uId:_PointerEventData_set_worldPosition_m192283671
nte:_Collection_1_InsertItem_m1391780791_gshared
ZHj:dynCall_iiifiiii
LOb:__ZN18StreamedBinaryReadILb1EE5AlignEv
TCi:_Vector3_get_right_m1884123822
Xxj:__ZN6il2cpp5utils10MemoryPool6MallocEj
nG:__ZN11SoundHandle8InstanceD2Ev
a9:__ZN31CanvasBatchIntermediateRenderer13StaticDestroyEPv
Txi:_X509Store_BuildCrlsCollection_m52567568
kYi:__ZNK15dense_hashtableINSt3__24pairIK10KeyWrapperIPK11Il2CppClassEPKcEES6_N6il2cpp5utils11PointerHashIS3_EEN14dense_hash_mapIS6_S9_SE_NS6_14EqualsComparerINS0_8equal_toIS5_EEEENS0_9allocatorISA_EEE9SelectKeyESJ_SL_E10test_emptyERK24dense_hashtable_iteratorISA_S6_SE_SN_SJ_SL_E
ing:_CallbackHandler__ctor_m1235509347
xfc:__Z29Mesh_CUSTOM_RecalculateBoundsP12Il2CppObject
dDe:_ReadOnlyCollection_1_System_Collections_Generic_ICollectionU3CTU3E_get_IsReadOnly_m3561954522_gshared
NBd:_Enum_ToString_m662345249
Ffe:_List_1_get_Capacity_m531373308_gshared
aNj:_emscripten_glBindProgramARB__wrapper
GLf:__ZL66DESCryptoServiceProvider_t933603253_CustomAttributesCacheGeneratorP21CustomAttributesCache
Rcc:__Z41Register_UnityEngine_CullingGroup_Disposev
qpb:__ZN7Cubemap23VirtualRedirectTransferER19StreamedBinaryWriteILb0EE
nTh:__Z100RuntimeInvoker_Void_t1841601450_Il2CppObject_Single_t2076509932_Int32_t2071877448_Single_t2076509932PK10MethodInfoPvPS2_
AKa:__ZN25MultiBlocksMemoryFileData5WriteEyyPKv
HGh:__Z78RuntimeInvoker_Il2CppObject_Int64_t909078037_Int64_t909078037_Int64_t909078037PK10MethodInfoPvPS2_
x9i:__ZNSt3__218uninitialized_fillIPNS_4pairIK10KeyWrapperINS1_IPK12PropertyInfoP11Il2CppClassEEEjEESB_EEvT_SD_RKT0_
ume:_List_1_System_Collections_IList_Add_m4271264217_gshared
foh:_Action_1_BeginInvoke_m1305519803_gshared
wNa:__ZZ23InitPlayerLoopCallbacksvEN47InitializationAsyncUploadTimeSlicedUpdatestruct7ForwardEv
Gbj:__ZN14dense_hash_mapI10KeyWrapperIPK10Il2CppTypeEjN6il2cpp8metadata14Il2CppTypeHashENS4_14EqualsComparerINS6_26Il2CppTypeEqualityComparerEEENSt3__29allocatorINSB_4pairIKS4_jEEEEE13set_empty_keyERSE_
Dcc:__Z35Component_CUSTOM_SendMessageUpwardsP12Il2CppObjectP12Il2CppStringS0_i
KCa:__ZL17ProgramUniform2fvPK7ApiGLESjiihPKv
pCf:__ZL65Il2CppArray_CustomAttributesCacheGenerator_Array_Sort_m4096942812P21CustomAttributesCache
Ezc:__ZN20TextRenderingPrivate8FontImpl21HasCharacterInTextureEjijfPj
Sgb:__ZN13Lz4CompressorD0Ev
KDj:_htonl
Yxa:__Z20GetBufferManagerGLESv
L0d:__ZN21InterfaceFuncInvoker1Ii18Color32_t874517518E6InvokeEjP11Il2CppClassP12Il2CppObjectS0_
UQb:__ZN18StreamedBinaryReadILb0EE21TransferSTLStyleArrayI31ArrayOfManagedObjectsTransfererEEvRT_17TransferMetaFlags
gtg:_UTF7Decoder_GetChars_m2790530452
LDj:_htons
lTh:__Z82RuntimeInvoker_Boolean_t3825574718_PlayableHandleU26_t3483893774_Int32_t2071877448PK10MethodInfoPvPS2_
Gtc:__Z18Transfer_BlittableI8JSONReadLb0EtEvRK29SerializationCommandArgumentsR31RuntimeSerializationCommandInfo
X9i:__ZN15dense_hashtableINSt3__24pairIK10KeyWrapperINS1_IPK9EventInfoP11Il2CppClassEEEjEES9_17ReflectionMapHashIS8_EN14dense_hash_mapIS9_jSD_NS9_14EqualsComparerINS0_8equal_toIS8_EEEENS0_9allocatorISB_EEE9SelectKeyESI_SK_E12expand_arrayEjN21dense_hash_map_traits17integral_constantIbLb0EEE
bUg:_GUIStyle_t1799908754_marshal_pinvoke_back
DNa:__ZZ23InitPlayerLoopCallbacksvEN44EarlyUpdateResetFrameStatsAfterPresentstruct7ForwardEv
MDh:__Z49RuntimeInvoker_Int32_t2071877448_Int64_t909078037PK10MethodInfoPvPS2_
zah:_Text_set_fontSize_m2101304336
Epb:__ZNK7Cubemap20GetTextureLayerCountEv
qCc:_pshinter_module_class_pic_free
qdg:__ZL68Navigation_t1571958496_CustomAttributesCacheGenerator_m_SelectOnLeftP21CustomAttributesCache
Pu:__ZN34AnimationStateMachineMixerPlayable13EndTransitionEv
coj:__ZNSt3__212basic_stringIDsNS_11char_traitsIDsEENS_9allocatorIDsEEE9__grow_byEjjjjjj
rI:__ZN12AudioManager21FixMasterGroupRoutingEv
v3c:_SymmetricAlgorithm_set_Key_m2973350820
Jbg:__ZL58FontData_t2614388407_CustomAttributesCacheGenerator_m_FontP21CustomAttributesCache
Yrf:_WebHeaderCollection_IsHeaderValue_m1723393133
Bnd:_Hashtable__ctor_m4280223555
Mpj:__ZN6il2cpp2os10ThreadImpl33UnregisterCurrentThreadForCleanupEv
TVf:__ZL97Component_t3819376471_CustomAttributesCacheGenerator_Component_GetComponentInChildren_m3985003615P21CustomAttributesCache
Fy:__ZN27AnimationLayerMixerPlayable22PrepareAnimationEventsEfR13dynamic_arrayI22AnimationClipEventInfoLj4EE
bGb:__Z18Transfer_BlittableI14SafeBinaryReadLb1E4AABBEvRK29SerializationCommandArgumentsR31RuntimeSerializationCommandInfo
xoj:__ZN6il2cpp6icalls8mscorlib6System4Enum12get_hashcodeEP12Il2CppObject
SWg:_Input_INTERNAL_get_mouseScrollDelta_m1140491498
Dei:_AnimatorControllerPlayable_SetInteger_m1311149575
yge:_List_1_Sort_m2895170076_gshared
bW:__ZNK13ScreenManager16GetScreenTimeoutEv
aH:__ZN9AudioClip7WWWOpenEPKciPjPPvS4_
jUf:__ZL66Uri_t19570940_CustomAttributesCacheGenerator_Uri__ctor_m3854873816P21CustomAttributesCache
qPh:__Z79RuntimeInvoker_Void_t1841601450_Il2CppObject_Int32_t2071877448_Int64_t909078037PK10MethodInfoPvPS2_
WFb:__Z18Transfer_BlittableI14SafeBinaryReadLb0E8Vector2fEvRK29SerializationCommandArgumentsR31RuntimeSerializationCommandInfo
Peg:__ZL101ToggleGroup_t1030026315_CustomAttributesCacheGenerator_ToggleGroup_U3CAnyTogglesOnU3Em__0_m1218114300P21CustomAttributesCache
rrf:_IPv6Address_SwapUShort_m1481806078
rgi:_AnimatorControllerPlayable_PlayInFixedTime_m2562520484
M$:__ZN13RuntimeStaticINSt3__23setI19RepeatingLogMessageNS0_4lessIS2_EE13stl_allocatorIS2_L18MemLabelIdentifier70ELi16EEEELb0EE16StaticInitializeEPv
Pc:_emscripten_glVertexAttrib2f
HTb:__ZN15SerializeTraitsIN9ShaderLab20SerializedSubProgram16TextureParameterEE8TransferI14SafeBinaryReadEEvRS2_RT_
ihd:_Byte_System_IConvertible_ToInt16_m1575115635_AdjustorThunk
Bki:_CrossAppDomainData_get_ProcessID_m2865289777
Dt:__ZN11UnityEngine9Animation31SetHumanTransformPropertyValuesERKNS0_21AvatarBindingConstantERKN7mecanim8skeleton13SkeletonPoseTIN4math4trsXEEEbb
kzg:_UInt16_System_IConvertible_ToUInt16_m1646506872_AdjustorThunk
Pli:_Context_get_HasGlobalDynamicSinks_m3205328884
v1e:_SimpleCollator_CompareQuick_m619038530
neg:__ZL93Selectable_t1490392188_CustomAttributesCacheGenerator_Selectable_get_isPointerDown_m774209881P21CustomAttributesCache
Bnf:_SslStreamBase_EndRead_m1072850679
nff:_CertificateSelectionCallback_BeginInvoke_m990408067
IIa:__ZN9GfxDevice22DispatchComputeProgramE12ObjectHandleI18ComputeProgram_TagPvEjjj
id:_SDL_GetTicks
rue:_Collection_1_System_Collections_IList_Contains_m3345685421_gshared
uPc:__ZN2UI14CanvasRenderer11SyncCullingENS0_8SyncFlagE
v8i:__ZN15dense_hashtableINSt3__24pairIK10KeyWrapperINS1_IPK11Il2CppImageP11Il2CppClassEEEjEES9_17ReflectionMapHashIS8_EN14dense_hash_mapIS9_jSD_NS9_14EqualsComparerINS0_8equal_toIS8_EEEENS0_9allocatorISB_EEE9SelectKeyESI_SK_E6insertERKSB_
Wv:__Z16AppendPathToHashRKN7mecanim5crc32EPKc
X0a:__Z21CreateShadowCullerJobP30CreateUmbraShadowCullerJobData
PXg:_Material_get_mainTexture_m432794412
CCa:__ZL18ProgramUniform2uivPK7ApiGLESjiihPKv
zJi:_U3CStartU3Ec__Iterator0_System_Collections_Generic_IEnumeratorU3CobjectU3E_get_Current_m1702093362_gshared
GOj:_glUniform4iv__wrapper
WZa:__Z33GenerateShadowCasterPartsSortDataRK16ShadowCasterDatajRK15RenderNodeQueueRKNSt3__26vectorI20ShadowCasterPartData13stl_allocatorIS7_L18MemLabelIdentifier2ELi16EEEERK10Matrix4x4fRjP20ShadowCasterSortData
ljd:_Char_GetTypeCode_m2251277629_AdjustorThunk
Tde:_Enumerator_Dispose_m3109097029_AdjustorThunk
Oih:_Dictionary_2_ToTKey_m4209561517_gshared
lIc:_cf2_computeDarkening
FY:__GLOBAL__sub_I_runtime_gfxdevice_lump_cpp
z6h:_AsyncOperation_set_priority_m3581020444
kuj:_GC_expand_hp_inner
rWi:__ZNK15dense_hashtableINSt3__24pairIK10KeyWrapperI13dynamic_arrayIPK10Il2CppTypeLj4EEEPFvvEEES8_N6il2cpp8metadata19Il2CppSignatureHashEN14dense_hash_mapIS8_SB_SF_NS8_14EqualsComparerINSE_22Il2CppSignatureCompareEEENS0_9allocatorISC_EEE9SelectKeyESJ_SL_E12test_deletedEj
ekj:__ZNK15dense_hashtableI10KeyWrapperIP18Il2CppGenericClassES3_N6il2cpp8metadata22Il2CppGenericClassHashEN14dense_hash_setIS3_S6_NS3_14EqualsComparerINS5_25Il2CppGenericClassCompareEEENSt3__29allocatorIS3_EEE8IdentityESA_SD_E12test_deletedEj
oec:__Z25Screen_Get_Custom_PropDpiv
rNb:__Z29Transfer_Blittable_ArrayFieldI19StreamedBinaryWriteILb0EEsEvRT_R9ArrayInfoRK23StaticTransferFieldInfo
LKd:_AnimationTriggers_get_disabledTrigger_m2987312382
zSa:__ZN13ComputeShader20GetCompatibleVariantE17GfxDeviceRendereri
_nj:__ZN4utf812find_invalidIPKcEET_S3_S3_
swf:_X509ExtensionCollection_System_Collections_ICollection_CopyTo_m3421329346
Etj:_GC_err_printf
sIg:_FieldBuilder_SetValue_m3109503557
VQd:_Graphic_OnBeforeTransformParentChanged_m1866292273
juf:_X509Certificate2_Verify_m1574874641
Iag:__ZL58PhysicsRaycaster_t249603239_CustomAttributesCacheGeneratorP21CustomAttributesCache
rzc:__ZN20TextRenderingPrivate19NativeTextGenerator23FixLineHorizontalOffsetEiii
Vnh:_EqualityComparer_1_System_Collections_IEqualityComparer_GetHashCode_m1473684243_gshared
upd:_SortedList_GetEnumerator_m1318483481
Edd:_Array_CreateInstance_m3327690220
BQd:_FontData_UnityEngine_ISerializationCallbackReceiver_OnBeforeSerialize_m2486694676
ew:__ZN7mecanim9animation19DestroyAnimationSetEPNS0_12AnimationSetERNS_6memory9AllocatorE
aRe:_IntPtr__ctor_m2996690883_AdjustorThunk
GIh:__Z64RuntimeInvoker_Double_t4078015681_Il2CppObject_Int32_t2071877448PK10MethodInfoPvPS2_
X3:__ZN14SerializedFile7ReleaseEv
SBf:__ZL69Il2CppArray_CustomAttributesCacheGenerator_Array_GetValue_m1507415734P21CustomAttributesCache
Z9a:__ZN16MemoryFileSystem4OpenER13FileEntryData14FilePermission16FileAutoBehavior
zAe:_Collection_1_Remove_m3355928137_gshared
zFh:__Z52RuntimeInvoker_UInt64_t2909196914_Decimal_t724701077PK10MethodInfoPvPS2_
O8:__ZN13RuntimeStaticI13RendererSceneLb0EE13StaticDestroyEPv
qO:__ZN12AudioManager12CleanupClassEv
RKb:__Z18Transfer_BlittableI24GenerateTypeTreeTransferLb1E12PropertyNameEvRK29SerializationCommandArgumentsR31RuntimeSerializationCommandInfo
x2b:__ZN5Light15InitializeClassEv
Kyb:__ZN14SafeBinaryRead21TransferSTLStyleArrayI10vector_mapIPKN5Unity4TypeE7Hash128NSt3__24lessIS5_EENS7_9allocatorINS7_4pairIS5_S6_EEEEEEEvRT_17TransferMetaFlags
$G:__ZN9AudioClip18GetQueuedAudioDataEPPvj
d$h:__Z59RuntimeInvoker_Void_t1841601450_DictionaryEntry_t3048875398PK10MethodInfoPvPS2_
_jh:_DefaultComparer_GetHashCode_m3439703487_gshared
q7b:__ZNK9Texture2D17CheckHasPixelDataEv
CVa:__Z18SetShadowsKeywordsR17ShaderPassContext9LightType10ShadowType16ShadowProjectionbb
jcj:__ZN14dense_hash_mapI10KeyWrapperINSt3__24pairIPK12PropertyInfoP11Il2CppClassEEEj17ReflectionMapHashIS8_ENS9_14EqualsComparerINS1_8equal_toIS8_EEEENS1_9allocatorINS2_IKS9_jEEEEEC2EjRKSB_RKSF_
m2b:__ZN17CollisionMeshDataC2Ev
PDg:_Assembly_GetModule_m2064378601
mIi:_UnityEvent_1_AddListener_m846589010_gshared
fQf:__ZL79Convert_t2607082565_CustomAttributesCacheGenerator_Convert_ToUInt16_m3866680988P21CustomAttributesCache
Y6g:_ScrollRect_SetDirty_m93243192
Eqb:__ZN16LightmapSettings23VirtualRedirectTransferER19StreamedBinaryWriteILb0EE
d_g:_MessageTypeSubscribers__ctor_m743474932
vOj:_glTexParameteriv__wrapper
Rqa:__ZN18IDCollectorFunctor18GenerateInstanceIDEi17TransferMetaFlags
M5d:_Array_InternalArray__set_Item_TisTableRange_t2011406615_m2386708730_gshared
HDh:__Z40RuntimeInvoker_Il2CppObject_Il2CppObjectPK10MethodInfoPvPS2_
LKe:_NumberFormatter_ToDecHex_m1474793296
mbb:__ZN14StackAllocatorD0Ev
Uej:__ZN6il2cpp2vm6Thread8SetStateEP12Il2CppThreadNS0_11ThreadStateE
_$e:_OperatingSystem_Clone_m1943707477
uQd:_FontData_set_richText_m29558601
tvg:_Scheduler_Change_m4063588742
SXi:__ZN6il2cpp2vm13MetadataCache25GetMethodGenericContainerEPK10MethodInfo
G7d:_Array_Resize_TisVector2_t2243707579_m1117258774_gshared
kS:__ZN11UnityEngine15CloudWebService13WWWRestClientD0Ev
Tph:_InternalEnumerator_1_Dispose_m1640363425_AdjustorThunk
jyi:_HitInfo_SendMessage_m3368777144_AdjustorThunk
vXh:__Z41RuntimeInvoker_SelectionState_t3187567897PK10MethodInfoPvPS2_
dra:__ZN17PersistentManager4LockEv
xgc:__Z22PlayableValidityChecksRK9HPlayableb
f1h:__Z53RuntimeInvoker_RaycastHit_t87180320_Int32_t2071877448PK10MethodInfoPvPS2_
Hjf:_TlsClientCertificateVerify_ProcessAsTls1_m1960818833
cle:_List_1_Insert_m2532850849_gshared
ucc:__Z41Register_UnityEngine_Camera_GetAllCamerasv
rWf:__ZL91CullingGroup_t1091689465_CustomAttributesCacheGenerator_CullingGroup_SendEvents_m1292564468P21CustomAttributesCache
dne:_List_1_Sort_m2659614836_gshared
Zcg:__ZL154U3CCaretBlinkU3Ec__Iterator0_t906898126_CustomAttributesCacheGenerator_U3CCaretBlinkU3Ec__Iterator0_System_Collections_IEnumerator_get_Current_m2309548992P21CustomAttributesCache
bZg:_Mesh_get_vertices_m626989480
D3g:_MaskableGraphic_OnCanvasHierarchyChanged_m2012659245
uBa:__ZN4crnd12crn_unpacker10unpack_dxnEPPhjjjjjj
gXc:__ZN28PerformanceReportingSettings8TransferI14SafeBinaryReadEEvRT_
zzh:_DefaultComparer__ctor_m3668042_gshared
Wsd:_Double_Parse_m2344589511
m_h:__Z122RuntimeInvoker_Int32_t2071877448_Il2CppObject_CustomAttributeTypedArgument_t1498197914_Int32_t2071877448_Int32_t2071877448PK10MethodInfoPvPS2_
igj:__ZN6il2cpp2vm22EmbeddedResourceRecordC2ERKS1_
NWb:__ZNSt3__26vectorIN9ShaderLab20SerializedSubProgram15VectorParameterENS_9allocatorIS3_EEE21__push_back_slow_pathIKS3_EEvRT_
XIh:__Z109RuntimeInvoker_Void_t1841601450_Int32U26_t455636984_Int32U26_t455636984_Int32U26_t455636984_Int32_t2071877448PK10MethodInfoPvPS2_
lpb:__ZN9Texture2D13AwakeFromLoadE17AwakeFromLoadMode
E2e:_Kernel_SingleByteDivideInPlace_m1760318278
O0e:_MSCompatUnicodeTableUtil__cctor_m1479836795
Wsi:_PositionAssertion__ctor_m3703837499
LXd:_LayoutGroup_get_minWidth_m4111745491
GWe:_StreamWriter_Initialize_m1707678624
mnj:__ZN6il2cpp2vm3RCW14QueryInterfaceILb0EEEP14Il2CppIUnknownP15Il2CppComObjectRK10Il2CppGuid
R6g:_ScrollRect_set_verticalScrollbar_m2903688658
eWg:_GUIStyle_INTERNAL_CALL_SetMouseTooltip_m1802284884
hka:__ZN6prcoreL17RemapGenericFloatI15TexFormatRFloat18TexFormatARGBFloatEEvPKNS_9InnerInfoE
Xfb:__ZNK21AssetBundleFileSystem4SizeERK13FileEntryData
hJf:__ZL50_Thread_t1894135853_CustomAttributesCacheGeneratorP21CustomAttributesCache
Lth:_InternalEnumerator_1_get_Current_m1047712960_gshared
BY:__GLOBAL__sub_I_runtime_camera_renderlayers_lump_cpp
xWc:__ZN11UnityEngine15PlatformWrapper20GetPlayerPrefsUInt64ERKN4core12basic_stringIcNS1_20StringStorageDefaultIcEEEEy
vZa:__ZN20ReflectionProbeCacheC2ER13BatchRendererR15RenderLoopStats
_ea:__ZN7Texture23VirtualRedirectTransferER18StreamedBinaryReadILb0EE
o6g:_U3CClickRepeatU3Ec__Iterator0_System_Collections_Generic_IEnumeratorU3CobjectU3E_get_Current_m3444627780
C9:__ZN18AssetBundleManagerC2Ev
PLa:__ZNK12HandlerChain6ExistsERK13FileEntryData
pUf:__ZL61ExtensionAttribute_t1840441203_CustomAttributesCacheGeneratorP21CustomAttributesCache
std:_Convert_ToInt32_m2734833291
m_a:__Z30FindDirectAttenuationFromProbeP18ForwardLightsBlockbiRK10RenderNodeRK23FindForwardLightsParamsf
Pxb:__ZN12InputManager23VirtualRedirectTransferER24GenerateTypeTreeTransfer
wYb:__ZN9Transform23VirtualRedirectTransferER24GenerateTypeTreeTransfer
Pna:__Z18GetLODGroupManagerv
Yoe:_List_1_Sort_m3574220472_gshared
JWb:__ZNSt3__26vectorIN9ShaderLab20SerializedSubProgram12UAVParameterENS_9allocatorIS3_EEE21__push_back_slow_pathIKS3_EEvRT_
i3h:__Z92RuntimeInvoker_Il2CppObject_CustomAttributeNamedArgument_t94157543_Il2CppObject_Il2CppObjectPK10MethodInfoPvPS2_
tki:_CrossAppDomainChannel_RegisterCrossAppDomainChannel_m43456045
bwf:_X509ChainElement_Count_m228862214
cxg:_TimeZone_IsDaylightSavingTime_m1840774423
TKc:_UNITY_tt_size_ready_bytecode
_xc:__ZN13TextRendering4FontD2Ev
Rma:__ZN27GenericSlowGarbageCollectorD2Ev
gPh:__Z48RuntimeInvoker_Void_t1841601450_Byte_t3683104436PK10MethodInfoPvPS2_
YAc:_UNITY_FT_Stream_Open
xOc:__GLOBAL__sub_I_runtime_ui_lump_cpp
JKa:__ZN10MemoryFile4ReadEyyPvPy
kua:__ZN13GfxDeviceGLES26UpdateViewProjectionMatrixEv
fbi:_DebugLogHandler__ctor_m3134219506
Hsa:__ZNSt3__26vectorIN22BuiltinResourceManager8ResourceENS_9allocatorIS2_EEE21__push_back_slow_pathIKS2_EEvRT_
Fph:_InternalEnumerator_1_System_Collections_IEnumerator_Reset_m1181480250_AdjustorThunk
O2b:__ZZL23RegisterLightPropertiesR22GenericPropertyBindingEN22Wrapper_LightIntensity13SetFloatValueEPvf
DF:__ZN4FMOD3DSP12setParameterEif
iaa:__ZN13MemoryManager16StaticInitializeEv
NUf:__ZL97Application_t354826772_CustomAttributesCacheGenerator_Application_set_targetFrameRate_m2941880625P21CustomAttributesCache
WEf:__ZL53StackFrame_t2050294881_CustomAttributesCacheGeneratorP21CustomAttributesCache
nf:___cxa_free_exception
wGe:_ReadOnlyCollection_1_System_Collections_ICollection_CopyTo_m4126742951_gshared
xJ:__ZN4FMOD22FakeModChannelCallbackEPv
tf:_emscripten_glValidateProgram
LRa:__ZN4Mesh10CreateMeshEv
D9i:__ZN6il2cpp2gc19AppendOnlyGCHashMapINSt3__24pairIPK9EventInfoP11Il2CppClassEEP21Il2CppReflectionEvent17ReflectionMapHashIS9_ENS2_8equal_toIS9_EEE3AddERKS9_SB_
vG:__ZN4FMOD7SystemI11createSoundEPKcjP22FMOD_CREATESOUNDEXINFOPPNS_5SoundE
Fyi:_Sprite_get_associatedAlphaSplitTexture_m3617241169
llg:_ArrayFixupRecord_FixupImpl_m2377725358
JIc:_cf2_stack_clear
EAd:_Double_System_IConvertible_ToBoolean_m4251806534_AdjustorThunk
E3e:_BigInteger_op_GreaterThanOrEqual_m1998498565
Dch:_ShimEnumerator_Reset_m2247049027_gshared
z0f:__ZL150AnimatorControllerPlayable_t4078305555_CustomAttributesCacheGenerator_AnimatorControllerPlayable_CrossFadeInFixedTimeInternal_m793606818____fixedTime4P21CustomAttributesCache
dhj:__ZN6il2cpp6icalls8mscorlib6System4Type27get_IsGenericTypeDefinitionEP20Il2CppReflectionType
u3a:__ZN7Texture13SetAnisoLevelEi
uuf:_X509Chain_Process_m2508784250
rIa:__ZN9GfxDevice20GetComputeBufferDataE15ComputeBufferIDPvj
Tpe:_List_1_RemoveAt_m2929488689_gshared
Ewc:__ZN27PerformanceReportingManager23VirtualRedirectTransferER24GenerateTypeTreeTransfer
PCc:_raccess_guess_vfat
gSc:__Z44Canvas_CUSTOM_GetETC1SupportedCanvasMaterialv
Jxi:_X509Extension_Decode_m972859652
A8:__ZN33InstancedMeshIntermediateRenderer13StaticDestroyEPv
FOe:_Int16_Parse_m3012618547
tij:__ZN14dense_hash_mapI10KeyWrapperIP14Il2CppIUnknownEjN6il2cpp5utils11PointerHashIS1_EENS3_14EqualsComparerINSt3__28equal_toIS2_EEEENS9_9allocatorINS9_4pairIKS3_jEEEEE13set_empty_keyERSF_
m0d:_Array_InternalArray__IEnumerable_GetEnumerator_TisVector4_t2243707581_m829381058_gshared
Cjb:__Z21DestroyShadowMapCacheP14ShadowMapCache
Sy:__ZN7mecanim9animation25CreateControllerWorkspaceEPKNS0_18ControllerConstantERNS_6memory9AllocatorE
k2d:_Array_InternalArray__IndexOf_TisUInt64_t2909196914_m3958307360_gshared
LRd:_Graphic_RegisterDirtyVerticesCallback_m4169445219
vih:_Dictionary_2_get_Count_m3636113691_gshared
Jbj:__ZN15dense_hashtableINSt3__24pairIK10KeyWrapperIPK10Il2CppTypeEjEES6_N6il2cpp8metadata14Il2CppTypeHashEN14dense_hash_mapIS6_jSB_NS6_14EqualsComparerINSA_26Il2CppTypeEqualityComparerEEENS0_9allocatorIS8_EEE9SelectKeyESF_SH_E14squash_deletedEv
thj:__ZN6il2cpp2vm13LivenessState5ResetEv
oBi:_Transform_get_parent_m147407266
aqc:__ZN9JSONWrite8TransferI11KeyframeTplIfEEEvRT_PKc17TransferMetaFlags
tOh:__Z71RuntimeInvoker_Double_t4078015681_Double_t4078015681_Double_t4078015681PK10MethodInfoPvPS2_
eah:_Text_get_cachedTextGenerator_m224335893
d9d:_Array_swap_TisVector4_t2243707581_m3504221493_gshared
RPg:_GameObject_GetComponent_m306258075
Nyh:_InternalEnumerator_1_Dispose_m4229866913_AdjustorThunk
fjg:_ObjRef_get_ChannelInfo_m53840305
_ij:__ZN6il2cpp2vm3RCW23GetOrCreateFromIUnknownEP14Il2CppIUnknownP11Il2CppClass
pgj:__ZN6il2cpp2vm9Exception27RaiseNullReferenceExceptionEv
aJa:__ZN24BuiltinShaderParamValuesC2Ev
Tqc:__ZL41CreateJSONTransferFunctionScriptingTraitsv
qid:_Convert_ToInt32_m3683486440
KTe:_FileStream_get_CanWrite_m775322953
HSf:__ZL72PKCS12_t1362584795_CustomAttributesCacheGenerator_U3CU3Ef__switchU24map7P21CustomAttributesCache
Hvg:_TimerCallback_BeginInvoke_m2938818726
kOa:__Z23GetLateBehaviourManagerv
Lbd:_EncoderExceptionFallbackBuffer__ctor_m3538569575
y5:__ZN10MemoryPool10DeallocateEPv
DLe:_NumberFormatInfo__ctor_m2752806684
Nnf:_SslStreamBase_get_CanRead_m3061866682
Xve:_Collection_1_System_Collections_IList_get_IsReadOnly_m1820916678_gshared
Epi:_PatternCompiler_EmitFastRepeat_m1175707353
uae:_Array_InternalArray__get_Item_TisKeyValuePair_2_t3716250094_m3120861630_gshared
tCc:_cff_driver_class_pic_free
POf:__ZL62ApplicationException_t474868623_CustomAttributesCacheGeneratorP21CustomAttributesCache
Yyj:__ZNSt3__26__treeINS_12__value_typeIPvxEENS_19__map_value_compareIS2_S3_NS_4lessIS2_EELb1EEENS_9allocatorIS3_EEE16__insert_node_atEPNS_16__tree_node_baseIS2_EERSD_SD_
Mce:_Enumerator__ctor_m3421311553_AdjustorThunk
Uvc:__ZNK9rapidjson12GenericValueINS_4UTF8IcEE13JSONAllocatorE6AcceptINS_6WriterI16TempBufferWriterS2_S2_S3_EEEEbRT_
NHj:dynCall_vif
dih:_Dictionary_2__ctor_m2849528578_gshared
OHj:dynCall_vid
t3f:__ZL75Event_t3028476042_CustomAttributesCacheGenerator_Event_get_type_m2426033198P21CustomAttributesCache
Nje:_List_1_System_Collections_IList_get_Item_m3989815218_gshared
QHj:dynCall_vii
Krd:_DateTime__ctor_m3604679583
KQb:__Z18Transfer_BlittableI18StreamedBinaryReadILb0EELb0EdEvRK29SerializationCommandArgumentsR31RuntimeSerializationCommandInfo
Voi:_Enumerator_System_Collections_IEnumerator_MoveNext_m3313126804
rni:_AsyncResult_set_CallMessage_m4011807282
GVa:__ZNK17InstancedPropInfo14IsInstanceableERK19ShaderPropertySheet
H8e:_PKCS12_Finalize_m107130293
tcb:__ZN5Unity9Component16CheckConsistencyEv
$Kd:_LayoutRebuilder_ValidController_m2595049322
g0f:__ZL156AnimatorControllerPlayable_t4078305555_CustomAttributesCacheGenerator_AnimatorControllerPlayable_INTERNAL_CALL_GetAnimatorTransitionInfoInternal_m2259454958P21CustomAttributesCache
sDa:__ZN7ApiGLES11CheckShaderERjb
bdg:__ZL138U3CMouseDragOutsideRectU3Ec__Iterator1_t2599668326_CustomAttributesCacheGenerator_U3CMouseDragOutsideRectU3Ec__Iterator1__ctor_m1439320044P21CustomAttributesCache
d1g:_RectTransform_set_anchoredPosition_m2077229449
IMb:__ZL26Transfer_SimpleNativeClassI19StreamedBinaryWriteILb0EE10RectOffsetLb1EEvRK29SerializationCommandArgumentsR31RuntimeSerializationCommandInfo
Fva:__ZN9GfxDevice15SetSurfaceFlagsE12ObjectHandleI17RenderSurface_TagP17RenderSurfaceBaseEj
b5g:_RaycastAllCallback__ctor_m3281594834
tae:_Array_InternalArray__get_Item_TisKeyValuePair_2_t1174980068_m964958642_gshared
fnd:_DictionaryEntry_get_Key_m3623293571_AdjustorThunk
h7i:__ZN15dense_hashtableINSt3__24pairIK10KeyWrapperIPK10Il2CppTypeEjEES6_N6il2cpp8metadata14Il2CppTypeHashEN14dense_hash_mapIS6_jSB_NS6_14EqualsComparerINSA_26Il2CppTypeEqualityComparerEEENS0_9allocatorIS8_EEE9SelectKeyESF_SH_E3endEv
o_a:__Z28GetNonInterpolatedLightProbeRK17LightProbeContextjR20SphericalHarmonicsL2
_2d:_Array_InternalArray__ICollection_Add_TisDateTime_t693205669_m3559987213_gshared
Mwa:__ZN13GfxDeviceGLES17SetGpuProgramNameEP10GpuProgramPKc
WYi:__ZN6il2cpp2vm13MetadataCache28GetMethodDefinitionFromIndexEi
qSf:__ZL77U3CPrivateImplementationDetailsU3E_t1486305137_CustomAttributesCacheGeneratorP21CustomAttributesCache
_qj:__ZN6il2cpp2os20FileErrnoToErrorCodeEi
Sga:__ZN14SafeBinaryRead19TransferSTLStyleMapINSt3__23mapI39DeprecatedFastPropertyNameSerialization10ColorRGBAfNS1_4lessIS3_EENS1_9allocatorINS1_4pairIKS3_S4_EEEEEEEEvRT_17TransferMetaFlags
dCb:__ZN14CachingManager13WriteInfoFileERKN4core12basic_stringIcNS0_20StringStorageDefaultIcEEEERKNSt3__26vectorIS4_NS7_9allocatorIS4_EEEE
Dod:_Slot_t2022531261_marshal_pinvoke
d7h:_Behaviour_get_enabled_m4079055610
qEa:__ZN7ApiGLES18CreateRenderbufferEiN2gl9TexFormatEii
uCi:_Vector3_Lerp_m2935648359
IDi:_NetFxCoreExtensions_GetMethodInfo_m2715372889
bh:_atexit
emd:_BitArrayEnumerator_Reset_m3218489242
C$g:_RaycastHit_t87180320_marshal_pinvoke_cleanup
vhd:_Byte_System_IConvertible_ToUInt16_m2275325191
N0d:__ZN21InterfaceFuncInvoker1Ii23RaycastResult_t21186376E6InvokeEjP11Il2CppClassP12Il2CppObjectS0_
QFg:_ConstructorBuilder_get_CallingConvention_m443074051
kaj:__ZN6il2cpp2vmL31GetObjectForMissingDefaultValueEj
KAf:__ZL80Decimal_t724701077_CustomAttributesCacheGenerator_Decimal_op_Implicit_m233687092P21CustomAttributesCache
k6i:__ZN15dense_hashtableINSt3__24pairIK10KeyWrapperINS1_IPK14Il2CppAssemblyP11Il2CppClassEEEjEES9_17ReflectionMapHashIS8_EN14dense_hash_mapIS9_jSD_NS9_14EqualsComparerINS0_8equal_toIS8_EEEENS0_9allocatorISB_EEE9SelectKeyESI_SK_E16reset_thresholdsEv
jQa:_UNITY_png_write_info_before_PLTE
KYc:__ZN16UploadHandlerRawD0Ev
Rxe:_Collection_1__ctor_m824713192_gshared
oUb:__ZN9ShaderLab14SerializedPassC2ERKS0_
Arh:_InternalEnumerator_1_System_Collections_IEnumerator_get_Current_m3088751576_AdjustorThunk
lUd:_InputField_get_text_m409351770
YIg:_GenericTypeParameterBuilder_GetCustomAttributes_m3266536625
l:STACKTOP
UPd:_U3CDelayedDestroyDropdownListU3Ec__Iterator0_System_Collections_IEnumerator_get_Current_m622919791
FN:__ZNK7Texture14IsDepthTextureEv
rKc:_cff_get_name_index
vVf:__ZL81Camera_t189460977_CustomAttributesCacheGenerator_Camera_get_cullingMask_m73686965P21CustomAttributesCache
GYe:_Math_Cos_m43596019
Vqb:__ZN21EnlightenSceneMapping16BuildRemapTablesEv
wFb:__ZNSt3__26vectorI4PPtrI10MonoScriptE13stl_allocatorIS3_L18MemLabelIdentifier76ELi16EEE8__appendEj
V5b:__ZN17TransformInternal27UpdateDeepChildCountUpwardsER18TransformHierarchyii
Qxh:_InternalEnumerator_1_System_Collections_IEnumerator_get_Current_m1533037706_AdjustorThunk
rFj:__ZNK10__cxxabiv117__class_type_info16search_above_dstEPNS_19__dynamic_cast_infoEPKvS4_ib
jEf:__ZL59ArrayListWrapper_t3918858854_CustomAttributesCacheGeneratorP21CustomAttributesCache
n$h:__Z72RuntimeInvoker_Void_t1841601450_CustomAttributeTypedArgument_t1498197914PK10MethodInfoPvPS2_
A:tempBigIntD
P7c:_Single_Equals_m3359827399_AdjustorThunk
NGd:_EventTrigger_OnPointerClick_m413999043
z:tempBigIntI
nGi:_CachedInvokableCall_1__ctor_m127496184_gshared
tcf:_PrimalityTests_RabinMillerTest_m2029846965
y:tempBigIntR
x:tempBigIntS
dSe:_BinaryReader_ReadInt32_m1811936587
on:FUNCTION_TABLE_viffi
vAc:_open_face_PS_from_sfnt_stream
Nkg:_ServerIdentity_CreateObjRef_m1056204803
k5:__ZN6Object18RegisterInstanceIDEPS_
BKb:__Z18Transfer_BlittableI24GenerateTypeTreeTransferLb1EsEvRK29SerializationCommandArgumentsR31RuntimeSerializationCommandInfo
mlj:__ZN15dense_hashtableINSt3__24pairIK10KeyWrapperIP12Il2CppObjectEN6il2cpp2gc9CachedCCWEEES5_NS7_5utils11PointerHashIS3_EEN14dense_hash_mapIS5_S9_SD_NS5_14EqualsComparerINS0_8equal_toIS4_EEEENS0_9allocatorISA_EEE9SelectKeyESI_SK_E11set_deletedER30dense_hashtable_const_iteratorISA_S5_SD_SM_SI_SK_E
lua:__ZNK9GfxDevice18GetWorldViewMatrixEv
Yje:_List_1_Contains_m3819542652_gshared
LZh:__Z51RuntimeInvoker_Boolean_t3825574718_Byte_t3683104436PK10MethodInfoPvPS2_
L9f:__ZL104PointerEventData_t1599784723_CustomAttributesCacheGenerator_PointerEventData_set_pointerDrag_m3543074708P21CustomAttributesCache
uhf:_TlsServerKeyExchange__ctor_m247733406
jBg:_UInt64_GetHashCode_m3478338766_AdjustorThunk
rmj:__ZN15dense_hashtableINSt3__24pairIK10KeyWrapperINS1_IPKcS4_EEEiEES6_24NamespaceAndNamePairHashN14dense_hash_mapIS6_iS9_NS6_14EqualsComparerI26NamespaceAndNamePairEqualsEENS0_9allocatorIS8_EEE9SelectKeyESD_SF_E12expand_arrayEjN21dense_hash_map_traits17integral_constantIbLb0EEE
KDe:_ReadOnlyCollection_1_System_Collections_IList_Add_m3065652010_gshared
Ssj:__ZN6il2cpp6icalls8mscorlib6System7Convert17Base64ToByteArrayEPDsib
lJi:_IndexedSet_1_Clear_m2776064367_gshared
BHf:__ZL95MethodBase_t904190842_CustomAttributesCacheGenerator_MethodBase_GetGenericArguments_m1277035033P21CustomAttributesCache
AWg:_GUIUtility_set_systemCopyBuffer_m2040945785
tpe:_List_1_System_Collections_IList_get_IsFixedSize_m1188646288_gshared
SSh:__Z87RuntimeInvoker_Void_t1841601450_Int32_t2071877448_Single_t2076509932_Single_t2076509932PK10MethodInfoPvPS2_
NYf:__ZL81Mesh_t1356156583_CustomAttributesCacheGenerator_Mesh_get_subMeshCount_m1945011773P21CustomAttributesCache
shb:__ZN39AssetBundleLoadFromStreamAsyncOperationD2Ev
kZg:_Mesh_SetNormals_m3341225499
aWi:__ZNSt3__218__insertion_sort_3IRN6il2cpp5utils11collections13ArrayValueMapIPK10Il2CppType17Il2CppInteropData26InteropDataToTypeConverterNS1_8metadata14Il2CppTypeLessENSA_26Il2CppTypeEqualityComparerEE12SortComparerEPS8_EEvT0_SH_T_
